

Microchip MPLAB XC8 Assembler V2.40 build 20220703182018 
                                                                                               Tue Jan 03 15:21:55 2023

Microchip MPLAB XC8 C Compiler v2.40 (Free license) build 20220703182018 Og1 
     1                           	processor	16F877A
     2                           	pagewidth 120
     3                           	opt	flic
     4                           	psect	strings,global,class=STRING,delta=2,noexec
     5                           	psect	cinit,global,class=CODE,merge=1,delta=2
     6                           	psect	bssCOMMON,global,class=COMMON,space=1,delta=1,noexec
     7                           	psect	bssBANK0,global,class=BANK0,space=1,delta=1,noexec
     8                           	psect	cstackCOMMON,global,class=COMMON,space=1,delta=1,noexec
     9                           	psect	cstackBANK0,global,class=BANK0,space=1,delta=1,noexec
    10                           	psect	maintext,global,class=CODE,split=1,delta=2
    11                           	psect	text1,local,class=CODE,merge=1,delta=2,group=1
    12                           	psect	text2,local,class=CODE,merge=1,delta=2,group=1
    13                           	psect	text3,local,class=CODE,merge=1,delta=2,group=1
    14                           	psect	text4,local,class=CODE,merge=1,delta=2,group=1
    15                           	psect	text5,local,class=CODE,merge=1,delta=2,group=1
    16                           	psect	text6,local,class=CODE,merge=1,delta=2,group=1
    17                           	psect	text7,local,class=CODE,merge=1,delta=2
    18                           	psect	text8,local,class=CODE,merge=1,delta=2,group=1
    19                           	psect	text9,local,class=CODE,merge=1,delta=2,group=1
    20                           	psect	text10,local,class=CODE,merge=1,delta=2,group=1
    21                           	psect	text11,local,class=CODE,merge=1,delta=2
    22                           	psect	text12,local,class=CODE,merge=1,delta=2
    23                           	psect	text13,local,class=CODE,merge=1,delta=2
    24                           	psect	text14,local,class=CODE,merge=1,delta=2
    25                           	psect	text15,local,class=CODE,merge=1,delta=2
    26                           	psect	text16,local,class=CODE,merge=1,delta=2
    27                           	psect	text17,local,class=CODE,merge=1,delta=2
    28                           	psect	text18,local,class=CODE,merge=1,delta=2
    29                           	psect	text19,local,class=CODE,merge=1,delta=2
    30                           	psect	text20,local,class=CODE,merge=1,delta=2
    31                           	psect	intentry,global,class=CODE,delta=2
    32                           	psect	idloc,global,abs,ovrld,class=IDLOC,space=5,delta=2,noexec
    33                           	psect	config,global,abs,ovrld,class=CONFIG,space=4,delta=2,noexec
    34                           	dabs	1,0x7E,2
    35     0000                     
    36                           ; Version 2.40
    37                           ; Generated 17/11/2021 GMT
    38                           ; 
    39                           ; Copyright © 2021, Microchip Technology Inc. and its subsidiaries ("Microchip")
    40                           ; All rights reserved.
    41                           ; 
    42                           ; This software is developed by Microchip Technology Inc. and its subsidiaries ("Microch
      +                          ip").
    43                           ; 
    44                           ; Redistribution and use in source and binary forms, with or without modification, are
    45                           ; permitted provided that the following conditions are met:
    46                           ; 
    47                           ;     1. Redistributions of source code must retain the above copyright notice, this lis
      +                          t of
    48                           ;        conditions and the following disclaimer.
    49                           ; 
    50                           ;     2. Redistributions in binary form must reproduce the above copyright notice, this 
      +                          list
    51                           ;        of conditions and the following disclaimer in the documentation and/or other
    52                           ;        materials provided with the distribution. Publication is not required when
    53                           ;        this file is used in an embedded application.
    54                           ; 
    55                           ;     3. Microchip's name may not be used to endorse or promote products derived from th
      +                          is
    56                           ;        software without specific prior written permission.
    57                           ; 
    58                           ; THIS SOFTWARE IS PROVIDED BY MICROCHIP "AS IS" AND ANY EXPRESS OR IMPLIED WARRANTIES,
    59                           ; INCLUDING, BUT NOT LIMITED TO, THE IMPLIED WARRANTIES OF MERCHANTABILITY AND FITNESS F
      +                          OR
    60                           ; PURPOSE ARE DISCLAIMED.  IN NO EVENT SHALL MICROCHIP BE LIABLE FOR ANY DIRECT, INDIREC
      +                          T,
    61                           ; INCIDENTAL, SPECIAL, EXEMPLARY, OR CONSEQUENTIAL DAMAGES (INCLUDING BUT NOT LIMITED TO
    62                           ; PROCUREMENT OF SUBSTITUTE GOODS OR SERVICES; LOSS OF USE, DATA OR PROFITS; OR BUSINESS
    63                           ; INTERRUPTION) HOWSOEVER CAUSED AND ON ANY THEORY OF LIABILITY, WHETHER IN CONTRACT, ST
      +                          RICT
    64                           ; LIABILITY, OR TORT (INCLUDING NEGLIGENCE OR OTHERWISE) ARISING IN ANY WAY OUT OF THE U
      +                          SE OF
    65                           ; THIS SOFTWARE, EVEN IF ADVISED OF THE POSSIBILITY OF SUCH DAMAGE.
    66                           ; 
    67                           ; 
    68                           ; Code-generator required, PIC16F877A Definitions
    69                           ; 
    70                           ; SFR Addresses
    71     0000                     	;# 
    72     0001                     	;# 
    73     0002                     	;# 
    74     0003                     	;# 
    75     0004                     	;# 
    76     0005                     	;# 
    77     0006                     	;# 
    78     0007                     	;# 
    79     0008                     	;# 
    80     0009                     	;# 
    81     000A                     	;# 
    82     000B                     	;# 
    83     000C                     	;# 
    84     000D                     	;# 
    85     000E                     	;# 
    86     000E                     	;# 
    87     000F                     	;# 
    88     0010                     	;# 
    89     0011                     	;# 
    90     0012                     	;# 
    91     0013                     	;# 
    92     0014                     	;# 
    93     0015                     	;# 
    94     0015                     	;# 
    95     0016                     	;# 
    96     0017                     	;# 
    97     0018                     	;# 
    98     0019                     	;# 
    99     001A                     	;# 
   100     001B                     	;# 
   101     001B                     	;# 
   102     001C                     	;# 
   103     001D                     	;# 
   104     001E                     	;# 
   105     001F                     	;# 
   106     0081                     	;# 
   107     0085                     	;# 
   108     0086                     	;# 
   109     0087                     	;# 
   110     0088                     	;# 
   111     0089                     	;# 
   112     008C                     	;# 
   113     008D                     	;# 
   114     008E                     	;# 
   115     0091                     	;# 
   116     0092                     	;# 
   117     0093                     	;# 
   118     0094                     	;# 
   119     0098                     	;# 
   120     0099                     	;# 
   121     009C                     	;# 
   122     009D                     	;# 
   123     009E                     	;# 
   124     009F                     	;# 
   125     010C                     	;# 
   126     010D                     	;# 
   127     010E                     	;# 
   128     010F                     	;# 
   129     018C                     	;# 
   130     018D                     	;# 
   131     0000                     	;# 
   132     0001                     	;# 
   133     0002                     	;# 
   134     0003                     	;# 
   135     0004                     	;# 
   136     0005                     	;# 
   137     0006                     	;# 
   138     0007                     	;# 
   139     0008                     	;# 
   140     0009                     	;# 
   141     000A                     	;# 
   142     000B                     	;# 
   143     000C                     	;# 
   144     000D                     	;# 
   145     000E                     	;# 
   146     000E                     	;# 
   147     000F                     	;# 
   148     0010                     	;# 
   149     0011                     	;# 
   150     0012                     	;# 
   151     0013                     	;# 
   152     0014                     	;# 
   153     0015                     	;# 
   154     0015                     	;# 
   155     0016                     	;# 
   156     0017                     	;# 
   157     0018                     	;# 
   158     0019                     	;# 
   159     001A                     	;# 
   160     001B                     	;# 
   161     001B                     	;# 
   162     001C                     	;# 
   163     001D                     	;# 
   164     001E                     	;# 
   165     001F                     	;# 
   166     0081                     	;# 
   167     0085                     	;# 
   168     0086                     	;# 
   169     0087                     	;# 
   170     0088                     	;# 
   171     0089                     	;# 
   172     008C                     	;# 
   173     008D                     	;# 
   174     008E                     	;# 
   175     0091                     	;# 
   176     0092                     	;# 
   177     0093                     	;# 
   178     0094                     	;# 
   179     0098                     	;# 
   180     0099                     	;# 
   181     009C                     	;# 
   182     009D                     	;# 
   183     009E                     	;# 
   184     009F                     	;# 
   185     010C                     	;# 
   186     010D                     	;# 
   187     010E                     	;# 
   188     010F                     	;# 
   189     018C                     	;# 
   190     018D                     	;# 
   191     0001                     _TMR0	set	1
   192     0007                     _PORTC	set	7
   193     0015                     _CCPR1L	set	21
   194     0017                     _CCP1CON	set	23
   195     0012                     _T2CON	set	18
   196     000D                     _PIR2	set	13
   197     000C                     _PIR1	set	12
   198     000B                     _INTCON	set	11
   199     0009                     _PORTEbits	set	9
   200     0008                     _PORTDbits	set	8
   201     001E                     _ADRESH	set	30
   202     001F                     _ADCON0	set	31
   203     0087                     _TRISC	set	135
   204     0081                     _OPTION_REG	set	129
   205     008D                     _PIE2	set	141
   206     008C                     _PIE1	set	140
   207     0089                     _TRISE	set	137
   208     0088                     _TRISD	set	136
   209     009E                     _ADRESL	set	158
   210     0085                     _TRISA	set	133
   211     009F                     _ADCON1	set	159
   212                           
   213                           	psect	strings
   214     07ED                     __pstrings:
   215     07ED                     stringtab:
   216     07ED                     __stringtab:
   217                           
   218                           ;	String table - string pointers are 1 byte each
   219     07ED  1BFF               	btfsc	btemp+1,7
   220     07EE  2FF7               	ljmp	stringcode
   221     07EF  1383               	bcf	3,7
   222     07F0  187F               	btfsc	btemp+1,0
   223     07F1  1783               	bsf	3,7
   224     07F2  0800               	movf	0,w
   225     07F3  0A84               	incf	4,f
   226     07F4  1903               	skipnz
   227     07F5  0AFF               	incf	btemp+1,f
   228     07F6  0008               	return
   229     07F7                     stringcode:
   230     07F7                     stringdir:
   231     07F7  3007               	movlw	high stringdir
   232     07F8  008A               	movwf	10
   233     07F9  0804               	movf	4,w
   234     07FA  0A84               	incf	4,f
   235     07FB  0782               	addwf	2,f
   236     07FC                     __stringbase:
   237     07FC  3400               	retlw	0
   238     07FD                     __end_of__stringtab:
   239     07FD                     STR_1:
   240     07FD  342E               	retlw	46	;'.'
   241     07FE  3435               	retlw	53	;'5'
   242     07FF  3400               	retlw	0
   243                           
   244                           	psect	cinit
   245     000F                     start_initialization:	
   246                           ; #config settings
   247                           
   248     000F                     __initialization:
   249                           
   250                           ; Clear objects allocated to COMMON
   251     000F  01FA               	clrf	__pbssCOMMON& (0+127)
   252                           
   253                           ; Clear objects allocated to BANK0
   254     0010  1283               	bcf	3,5	;RP0=0, select bank0
   255     0011  1303               	bcf	3,6	;RP1=0, select bank0
   256     0012  01EE               	clrf	__pbssBANK0& (0+127)
   257     0013                     end_of_initialization:	
   258                           ;End of C runtime variable initialization code
   259                           
   260     0013                     __end_of__initialization:
   261     0013  0183               	clrf	3
   262     0014  120A  118A  2DBC   	ljmp	_main	;jump to C main() function
   263                           
   264                           	psect	bssCOMMON
   265     007A                     __pbssCOMMON:
   266     007A                     ISR@counter:
   267     007A                     	ds	1
   268                           
   269                           	psect	bssBANK0
   270     006E                     __pbssBANK0:
   271     006E                     _Duty_cycle:
   272     006E                     	ds	1
   273                           
   274                           	psect	cstackCOMMON
   275     0070                     __pcstackCOMMON:
   276     0070                     ?_Adc_Init:
   277     0070                     ?_Lcd_Port:	
   278                           ; 1 bytes @ 0x0
   279                           
   280     0070                     ?_Lcd_Cmd:	
   281                           ; 1 bytes @ 0x0
   282                           
   283     0070                     ?_Lcd_Init:	
   284                           ; 1 bytes @ 0x0
   285                           
   286     0070                     ?_Lcd_Clear:	
   287                           ; 1 bytes @ 0x0
   288                           
   289     0070                     ?_Lcd_Write_Char:	
   290                           ; 1 bytes @ 0x0
   291                           
   292     0070                     ?_main:	
   293                           ; 1 bytes @ 0x0
   294                           
   295     0070                     ?_ISR:	
   296                           ; 1 bytes @ 0x0
   297                           
   298     0070                     ??_ISR:	
   299                           ; 1 bytes @ 0x0
   300                           
   301                           
   302                           ; 1 bytes @ 0x0
   303     0070                     	ds	3
   304     0073                     ??_Adc_Init:
   305     0073                     ??_Lcd_Port:	
   306                           ; 1 bytes @ 0x3
   307                           
   308     0073                     ?__Umul8_16:	
   309                           ; 1 bytes @ 0x3
   310                           
   311     0073                     ?_Adc_Read:	
   312                           ; 2 bytes @ 0x3
   313                           
   314     0073                     ?___awdiv:	
   315                           ; 2 bytes @ 0x3
   316                           
   317     0073                     ?___lwdiv:	
   318                           ; 2 bytes @ 0x3
   319                           
   320     0073                     ?___lwmod:	
   321                           ; 2 bytes @ 0x3
   322                           
   323     0073                     ?___xxtofl:	
   324                           ; 2 bytes @ 0x3
   325                           
   326     0073                     Lcd_Port@a:	
   327                           ; 4 bytes @ 0x3
   328                           
   329     0073                     ___fladd@signs:	
   330                           ; 1 bytes @ 0x3
   331                           
   332     0073                     __Umul8_16@multiplicand:	
   333                           ; 1 bytes @ 0x3
   334                           
   335     0073                     ___awdiv@divisor:	
   336                           ; 1 bytes @ 0x3
   337                           
   338     0073                     ___lwdiv@divisor:	
   339                           ; 2 bytes @ 0x3
   340                           
   341     0073                     ___lwmod@divisor:	
   342                           ; 2 bytes @ 0x3
   343                           
   344     0073                     ___xxtofl@val:	
   345                           ; 2 bytes @ 0x3
   346                           
   347                           
   348                           ; 4 bytes @ 0x3
   349     0073                     	ds	1
   350     0074                     ??_Lcd_Cmd:
   351     0074                     ??_Lcd_Write_Char:	
   352                           ; 1 bytes @ 0x4
   353                           
   354     0074                     ___fladd@aexp:	
   355                           ; 1 bytes @ 0x4
   356                           
   357                           
   358                           ; 1 bytes @ 0x4
   359     0074                     	ds	1
   360     0075                     ??__Umul8_16:
   361     0075                     ??_Adc_Read:	
   362                           ; 1 bytes @ 0x5
   363                           
   364     0075                     Lcd_Write_Char@temp:	
   365                           ; 1 bytes @ 0x5
   366                           
   367     0075                     ___fladd@bexp:	
   368                           ; 1 bytes @ 0x5
   369                           
   370     0075                     ___awdiv@dividend:	
   371                           ; 1 bytes @ 0x5
   372                           
   373     0075                     ___lwdiv@dividend:	
   374                           ; 2 bytes @ 0x5
   375                           
   376     0075                     ___lwmod@dividend:	
   377                           ; 2 bytes @ 0x5
   378                           
   379                           
   380                           ; 2 bytes @ 0x5
   381     0075                     	ds	1
   382     0076                     Lcd_Cmd@a:
   383     0076                     Lcd_Write_Char@y:	
   384                           ; 1 bytes @ 0x6
   385                           
   386     0076                     ___fladd@grs:	
   387                           ; 1 bytes @ 0x6
   388                           
   389                           
   390                           ; 1 bytes @ 0x6
   391     0076                     	ds	1
   392     0077                     ??_Lcd_Init:
   393     0077                     ??_Lcd_Clear:	
   394                           ; 1 bytes @ 0x7
   395                           
   396     0077                     ?_Lcd_Set_Cursor:	
   397                           ; 1 bytes @ 0x7
   398                           
   399     0077                     ??___awdiv:	
   400                           ; 1 bytes @ 0x7
   401                           
   402     0077                     ??___lwdiv:	
   403                           ; 1 bytes @ 0x7
   404                           
   405     0077                     ??___lwmod:	
   406                           ; 1 bytes @ 0x7
   407                           
   408     0077                     ??___flsub:	
   409                           ; 1 bytes @ 0x7
   410                           
   411     0077                     Adc_Read@channel:	
   412                           ; 1 bytes @ 0x7
   413                           
   414     0077                     Lcd_Set_Cursor@colonna:	
   415                           ; 1 bytes @ 0x7
   416                           
   417     0077                     Lcd_Write_Char@a:	
   418                           ; 1 bytes @ 0x7
   419                           
   420     0077                     ___fltol@sign1:	
   421                           ; 1 bytes @ 0x7
   422                           
   423                           
   424                           ; 1 bytes @ 0x7
   425     0077                     	ds	1
   426     0078                     ??_Lcd_Set_Cursor:
   427     0078                     ?_Lcd_Write_String:	
   428                           ; 1 bytes @ 0x8
   429                           
   430     0078                     ___fltol@exp1:	
   431                           ; 1 bytes @ 0x8
   432                           
   433     0078                     ___lwmod@counter:	
   434                           ; 1 bytes @ 0x8
   435                           
   436     0078                     Lcd_Write_String@a:	
   437                           ; 1 bytes @ 0x8
   438                           
   439                           
   440                           ; 2 bytes @ 0x8
   441     0078                     	ds	2
   442                           
   443                           	psect	cstackBANK0
   444     0020                     __pcstackBANK0:
   445     0020                     ??_Lcd_Write_String:
   446     0020                     ??___xxtofl:	
   447                           ; 1 bytes @ 0x0
   448                           
   449     0020                     ?___fladd:	
   450                           ; 1 bytes @ 0x0
   451                           
   452     0020                     Lcd_Set_Cursor@riga:	
   453                           ; 4 bytes @ 0x0
   454                           
   455     0020                     ___awdiv@counter:	
   456                           ; 1 bytes @ 0x0
   457                           
   458     0020                     ___lwdiv@counter:	
   459                           ; 1 bytes @ 0x0
   460                           
   461     0020                     __Umul8_16@product:	
   462                           ; 1 bytes @ 0x0
   463                           
   464     0020                     ___fladd@b:	
   465                           ; 2 bytes @ 0x0
   466                           
   467                           
   468                           ; 4 bytes @ 0x0
   469     0020                     	ds	1
   470     0021                     Lcd_Set_Cursor@z:
   471     0021                     ___awdiv@sign:	
   472                           ; 1 bytes @ 0x1
   473                           
   474     0021                     ___lwdiv@quotient:	
   475                           ; 1 bytes @ 0x1
   476                           
   477                           
   478                           ; 2 bytes @ 0x1
   479     0021                     	ds	1
   480     0022                     Lcd_Set_Cursor@y:
   481     0022                     ___awdiv@quotient:	
   482                           ; 1 bytes @ 0x2
   483                           
   484     0022                     __Umul8_16@word_mpld:	
   485                           ; 2 bytes @ 0x2
   486                           
   487                           
   488                           ; 2 bytes @ 0x2
   489     0022                     	ds	1
   490     0023                     Lcd_Set_Cursor@temp:
   491     0023                     Lcd_Write_String@i:	
   492                           ; 1 bytes @ 0x3
   493                           
   494                           
   495                           ; 2 bytes @ 0x3
   496     0023                     	ds	1
   497     0024                     __Umul8_16@multiplier:
   498     0024                     ___xxtofl@sign:	
   499                           ; 1 bytes @ 0x4
   500                           
   501     0024                     ___fladd@a:	
   502                           ; 1 bytes @ 0x4
   503                           
   504                           
   505                           ; 4 bytes @ 0x4
   506     0024                     	ds	1
   507     0025                     ?_Lcd_Write_Int:
   508     0025                     ___xxtofl@exp:	
   509                           ; 2 bytes @ 0x5
   510                           
   511     0025                     Lcd_Write_Int@val:	
   512                           ; 1 bytes @ 0x5
   513                           
   514                           
   515                           ; 2 bytes @ 0x5
   516     0025                     	ds	1
   517     0026                     ___xxtofl@arg:
   518                           
   519                           ; 4 bytes @ 0x6
   520     0026                     	ds	1
   521     0027                     ??_Lcd_Write_Int:
   522                           
   523                           ; 1 bytes @ 0x7
   524     0027                     	ds	1
   525     0028                     ??___fladd:
   526                           
   527                           ; 1 bytes @ 0x8
   528     0028                     	ds	2
   529     002A                     Lcd_Write_Int@buffer:
   530                           
   531                           ; 50 bytes @ 0xA
   532     002A                     	ds	6
   533     0030                     ?___flsub:
   534     0030                     ___flsub@a:	
   535                           ; 4 bytes @ 0x10
   536                           
   537                           
   538                           ; 4 bytes @ 0x10
   539     0030                     	ds	4
   540     0034                     ___flsub@b:
   541                           
   542                           ; 4 bytes @ 0x14
   543     0034                     	ds	4
   544     0038                     ?___flmul:
   545     0038                     ___flmul@b:	
   546                           ; 4 bytes @ 0x18
   547                           
   548                           
   549                           ; 4 bytes @ 0x18
   550     0038                     	ds	4
   551     003C                     ___flmul@a:
   552                           
   553                           ; 4 bytes @ 0x1C
   554     003C                     	ds	4
   555     0040                     ??___flmul:
   556                           
   557                           ; 1 bytes @ 0x20
   558     0040                     	ds	5
   559     0045                     ___flmul@sign:
   560                           
   561                           ; 1 bytes @ 0x25
   562     0045                     	ds	1
   563     0046                     ___flmul@grs:
   564                           
   565                           ; 4 bytes @ 0x26
   566     0046                     	ds	4
   567     004A                     ___flmul@aexp:
   568                           
   569                           ; 1 bytes @ 0x2A
   570     004A                     	ds	1
   571     004B                     ___flmul@bexp:
   572                           
   573                           ; 1 bytes @ 0x2B
   574     004B                     	ds	1
   575     004C                     ___flmul@prod:
   576                           
   577                           ; 4 bytes @ 0x2C
   578     004C                     	ds	4
   579     0050                     ___flmul@temp:
   580                           
   581                           ; 2 bytes @ 0x30
   582     0050                     	ds	2
   583     0052                     ?___fltol:
   584     0052                     ___fltol@f1:	
   585                           ; 4 bytes @ 0x32
   586                           
   587                           
   588                           ; 4 bytes @ 0x32
   589     0052                     	ds	4
   590     0056                     ??___fltol:
   591                           
   592                           ; 1 bytes @ 0x36
   593     0056                     	ds	6
   594     005C                     Lcd_Write_Int@isNeg:
   595                           
   596                           ; 1 bytes @ 0x3C
   597     005C                     	ds	1
   598     005D                     Lcd_Write_Int@n1:
   599                           
   600                           ; 2 bytes @ 0x3D
   601     005D                     	ds	2
   602     005F                     Lcd_Write_Int@n:
   603                           
   604                           ; 2 bytes @ 0x3F
   605     005F                     	ds	2
   606     0061                     Lcd_Write_Int@t:
   607                           
   608                           ; 2 bytes @ 0x41
   609     0061                     	ds	2
   610     0063                     Lcd_Write_Int@i:
   611                           
   612                           ; 2 bytes @ 0x43
   613     0063                     	ds	2
   614     0065                     ??_main:
   615                           
   616                           ; 1 bytes @ 0x45
   617     0065                     	ds	2
   618     0067                     main@old_val:
   619                           
   620                           ; 2 bytes @ 0x47
   621     0067                     	ds	2
   622     0069                     main@temperatura:
   623                           
   624                           ; 1 bytes @ 0x49
   625     0069                     	ds	1
   626     006A                     main@err:
   627                           
   628                           ; 2 bytes @ 0x4A
   629     006A                     	ds	2
   630     006C                     main@val:
   631                           
   632                           ; 2 bytes @ 0x4C
   633     006C                     	ds	2
   634                           
   635                           	psect	maintext
   636     05BC                     __pmaintext:	
   637 ;;
   638 ;;Main: autosize = 0, tempsize = 2, incstack = 0, save=0
   639 ;;
   640 ;; *************** function _main *****************
   641 ;; Defined at:
   642 ;;		line 29 in file "main.c"
   643 ;; Parameters:    Size  Location     Type
   644 ;;		None
   645 ;; Auto vars:     Size  Location     Type
   646 ;;  val             2   76[BANK0 ] int 
   647 ;;  err             2   74[BANK0 ] unsigned int 
   648 ;;  temperatura     1   73[BANK0 ] unsigned char 
   649 ;;  old_val         2   71[BANK0 ] int 
   650 ;; Return value:  Size  Location     Type
   651 ;;                  1    wreg      void 
   652 ;; Registers used:
   653 ;;		wreg, fsr0l, fsr0h, status,2, status,0, btemp+1, pclath, cstack
   654 ;; Tracked objects:
   655 ;;		On entry : B00/0
   656 ;;		On exit  : 0/0
   657 ;;		Unchanged: 0/0
   658 ;; Data sizes:     COMMON   BANK0   BANK1   BANK3   BANK2
   659 ;;      Params:         0       0       0       0       0
   660 ;;      Locals:         0       7       0       0       0
   661 ;;      Temps:          0       2       0       0       0
   662 ;;      Totals:         0       9       0       0       0
   663 ;;Total ram usage:        9 bytes
   664 ;; Hardware stack levels required when called: 5
   665 ;; This function calls:
   666 ;;		_Adc_Init
   667 ;;		_Adc_Read
   668 ;;		_Lcd_Clear
   669 ;;		_Lcd_Init
   670 ;;		_Lcd_Set_Cursor
   671 ;;		_Lcd_Write_Int
   672 ;;		_Lcd_Write_String
   673 ;;		___flmul
   674 ;;		___flsub
   675 ;;		___fltol
   676 ;;		___xxtofl
   677 ;; This function is called by:
   678 ;;		Startup code after reset
   679 ;; This function uses a non-reentrant model
   680 ;;
   681                           
   682     05BC                     _main:	
   683                           ;psect for function _main
   684                           
   685     05BC                     l2584:	
   686                           ;incstack = 0
   687                           ; Regs used in _main: [wreg-fsr0h+status,2+status,0+btemp+1+pclath+cstack]
   688                           
   689                           
   690                           ;main.c: 30:     Adc_Init();
   691     05BC  120A  158A  23FB  120A  118A  	fcall	_Adc_Init
   692                           
   693                           ;main.c: 31:     Lcd_Init();
   694     05C1  120A  158A  2600  120A  118A  	fcall	_Lcd_Init
   695     05C6                     l2586:
   696                           
   697                           ;main.c: 32:     INTCON = 0xA0;
   698     05C6  30A0               	movlw	160
   699     05C7  008B               	movwf	11	;volatile
   700     05C8                     l2588:
   701                           
   702                           ;main.c: 33:     OPTION_REG = 0x80;
   703     05C8  3080               	movlw	128
   704     05C9  1683               	bsf	3,5	;RP0=1, select bank1
   705     05CA  1303               	bcf	3,6	;RP1=0, select bank1
   706     05CB  0081               	movwf	1	;volatile
   707     05CC                     l2590:
   708                           
   709                           ;main.c: 34:     TRISC = 0x00;
   710     05CC  0187               	clrf	7	;volatile
   711     05CD                     l2592:
   712                           
   713                           ;main.c: 35:     PORTC |= 0x04;
   714     05CD  1283               	bcf	3,5	;RP0=0, select bank0
   715     05CE  1303               	bcf	3,6	;RP1=0, select bank0
   716     05CF  1507               	bsf	7,2	;volatile
   717     05D0                     l2594:
   718                           
   719                           ;main.c: 38:         unsigned int err;;main.c: 39:         int val = 0;
   720     05D0  1283               	bcf	3,5	;RP0=0, select bank0
   721     05D1  1303               	bcf	3,6	;RP1=0, select bank0
   722     05D2  01EC               	clrf	main@val
   723     05D3  01ED               	clrf	main@val+1
   724                           
   725                           ;main.c: 40:         val = Adc_Read(2);
   726     05D4  3002               	movlw	2
   727     05D5  120A  158A  2500  120A  118A  	fcall	_Adc_Read
   728     05DA  0874               	movf	?_Adc_Read+1,w
   729     05DB  1283               	bcf	3,5	;RP0=0, select bank0
   730     05DC  1303               	bcf	3,6	;RP1=0, select bank0
   731     05DD  00ED               	movwf	main@val+1
   732     05DE  0873               	movf	?_Adc_Read,w
   733     05DF  00EC               	movwf	main@val
   734     05E0                     l2596:
   735                           
   736                           ;main.c: 41:         err = (50/0.488 - val)*4;
   737     05E0  3042               	movlw	66
   738     05E1  00B7               	movwf	___flsub@b+3
   739     05E2  30CC               	movlw	204
   740     05E3  00B6               	movwf	___flsub@b+2
   741     05E4  30EB               	movlw	235
   742     05E5  00B5               	movwf	___flsub@b+1
   743     05E6  3004               	movlw	4
   744     05E7  00B4               	movwf	___flsub@b
   745     05E8  086C               	movf	main@val,w
   746     05E9  00F3               	movwf	___xxtofl@val
   747     05EA  086D               	movf	main@val+1,w
   748     05EB  00F4               	movwf	___xxtofl@val+1
   749     05EC  3000               	movlw	0
   750     05ED  1BF4               	btfsc	___xxtofl@val+1,7
   751     05EE  30FF               	movlw	255
   752     05EF  00F5               	movwf	___xxtofl@val+2
   753     05F0  00F6               	movwf	___xxtofl@val+3
   754     05F1  3001               	movlw	1
   755     05F2  120A  158A  2746  120A  118A  	fcall	___xxtofl
   756     05F7  0876               	movf	?___xxtofl+3,w
   757     05F8  1283               	bcf	3,5	;RP0=0, select bank0
   758     05F9  1303               	bcf	3,6	;RP1=0, select bank0
   759     05FA  00B3               	movwf	___flsub@a+3
   760     05FB  0875               	movf	?___xxtofl+2,w
   761     05FC  00B2               	movwf	___flsub@a+2
   762     05FD  0874               	movf	?___xxtofl+1,w
   763     05FE  00B1               	movwf	___flsub@a+1
   764     05FF  0873               	movf	?___xxtofl,w
   765     0600  00B0               	movwf	___flsub@a
   766     0601  120A  158A  2454  120A  118A  	fcall	___flsub
   767     0606  1283               	bcf	3,5	;RP0=0, select bank0
   768     0607  1303               	bcf	3,6	;RP1=0, select bank0
   769     0608  0833               	movf	?___flsub+3,w
   770     0609  00BF               	movwf	___flmul@a+3
   771     060A  0832               	movf	?___flsub+2,w
   772     060B  00BE               	movwf	___flmul@a+2
   773     060C  0831               	movf	?___flsub+1,w
   774     060D  00BD               	movwf	___flmul@a+1
   775     060E  0830               	movf	?___flsub,w
   776     060F  00BC               	movwf	___flmul@a
   777     0610  3040               	movlw	64
   778     0611  00BB               	movwf	___flmul@b+3
   779     0612  3080               	movlw	128
   780     0613  00BA               	movwf	___flmul@b+2
   781     0614  3000               	movlw	0
   782     0615  00B9               	movwf	___flmul@b+1
   783     0616  3000               	movlw	0
   784     0617  00B8               	movwf	___flmul@b
   785     0618  120A  118A  2017  120A  118A  	fcall	___flmul
   786     061D  1283               	bcf	3,5	;RP0=0, select bank0
   787     061E  1303               	bcf	3,6	;RP1=0, select bank0
   788     061F  083B               	movf	?___flmul+3,w
   789     0620  00D5               	movwf	___fltol@f1+3
   790     0621  083A               	movf	?___flmul+2,w
   791     0622  00D4               	movwf	___fltol@f1+2
   792     0623  0839               	movf	?___flmul+1,w
   793     0624  00D3               	movwf	___fltol@f1+1
   794     0625  0838               	movf	?___flmul,w
   795     0626  00D2               	movwf	___fltol@f1
   796     0627  120A  158A  26CE  120A  118A  	fcall	___fltol
   797     062C  1283               	bcf	3,5	;RP0=0, select bank0
   798     062D  1303               	bcf	3,6	;RP1=0, select bank0
   799     062E  0853               	movf	?___fltol+1,w
   800     062F  00EB               	movwf	main@err+1
   801     0630  0852               	movf	?___fltol,w
   802     0631  00EA               	movwf	main@err
   803     0632                     l2598:
   804                           
   805                           ;main.c: 42:         Duty_cycle = err;
   806     0632  086A               	movf	main@err,w
   807     0633  00EE               	movwf	_Duty_cycle
   808     0634                     l2600:
   809                           
   810                           ;main.c: 43:         if (val == old_val) continue;
   811     0634  0868               	movf	main@old_val+1,w
   812     0635  066D               	xorwf	main@val+1,w
   813     0636  1D03               	skipz
   814     0637  2E3A               	goto	u4055
   815     0638  0867               	movf	main@old_val,w
   816     0639  066C               	xorwf	main@val,w
   817     063A                     u4055:
   818     063A  1D03               	skipz
   819     063B  2E3D               	goto	u4051
   820     063C  2E3E               	goto	u4050
   821     063D                     u4051:
   822     063D  2E3F               	goto	l2604
   823     063E                     u4050:
   824     063E  2DD0               	goto	l2594
   825     063F                     l2604:
   826                           
   827                           ;main.c: 44:         old_val = val;
   828     063F  086D               	movf	main@val+1,w
   829     0640  00E8               	movwf	main@old_val+1
   830     0641  086C               	movf	main@val,w
   831     0642  00E7               	movwf	main@old_val
   832     0643                     l2606:
   833                           
   834                           ;main.c: 45:         char temperatura = val * 0.488;
   835     0643  086C               	movf	main@val,w
   836     0644  00F3               	movwf	___xxtofl@val
   837     0645  086D               	movf	main@val+1,w
   838     0646  00F4               	movwf	___xxtofl@val+1
   839     0647  3000               	movlw	0
   840     0648  1BF4               	btfsc	___xxtofl@val+1,7
   841     0649  30FF               	movlw	255
   842     064A  00F5               	movwf	___xxtofl@val+2
   843     064B  00F6               	movwf	___xxtofl@val+3
   844     064C  3001               	movlw	1
   845     064D  120A  158A  2746  120A  118A  	fcall	___xxtofl
   846     0652  0876               	movf	?___xxtofl+3,w
   847     0653  1283               	bcf	3,5	;RP0=0, select bank0
   848     0654  1303               	bcf	3,6	;RP1=0, select bank0
   849     0655  00BF               	movwf	___flmul@a+3
   850     0656  0875               	movf	?___xxtofl+2,w
   851     0657  00BE               	movwf	___flmul@a+2
   852     0658  0874               	movf	?___xxtofl+1,w
   853     0659  00BD               	movwf	___flmul@a+1
   854     065A  0873               	movf	?___xxtofl,w
   855     065B  00BC               	movwf	___flmul@a
   856     065C  303E               	movlw	62
   857     065D  00BB               	movwf	___flmul@b+3
   858     065E  30F9               	movlw	249
   859     065F  00BA               	movwf	___flmul@b+2
   860     0660  30DB               	movlw	219
   861     0661  00B9               	movwf	___flmul@b+1
   862     0662  3023               	movlw	35
   863     0663  00B8               	movwf	___flmul@b
   864     0664  120A  118A  2017  120A  118A  	fcall	___flmul
   865     0669  1283               	bcf	3,5	;RP0=0, select bank0
   866     066A  1303               	bcf	3,6	;RP1=0, select bank0
   867     066B  083B               	movf	?___flmul+3,w
   868     066C  00D5               	movwf	___fltol@f1+3
   869     066D  083A               	movf	?___flmul+2,w
   870     066E  00D4               	movwf	___fltol@f1+2
   871     066F  0839               	movf	?___flmul+1,w
   872     0670  00D3               	movwf	___fltol@f1+1
   873     0671  0838               	movf	?___flmul,w
   874     0672  00D2               	movwf	___fltol@f1
   875     0673  120A  158A  26CE  120A  118A  	fcall	___fltol
   876     0678  1283               	bcf	3,5	;RP0=0, select bank0
   877     0679  1303               	bcf	3,6	;RP1=0, select bank0
   878     067A  0852               	movf	?___fltol,w
   879     067B  00E9               	movwf	main@temperatura
   880     067C                     l2608:
   881                           
   882                           ;main.c: 47:         Lcd_Clear();
   883     067C  120A  158A  2404  120A  118A  	fcall	_Lcd_Clear
   884     0681                     l2610:
   885                           
   886                           ;main.c: 48:         Lcd_Write_Int(temperatura);
   887     0681  1283               	bcf	3,5	;RP0=0, select bank0
   888     0682  1303               	bcf	3,6	;RP1=0, select bank0
   889     0683  0869               	movf	main@temperatura,w
   890     0684  00E5               	movwf	??_main
   891     0685  01E6               	clrf	??_main+1
   892     0686  0865               	movf	??_main,w
   893     0687  00A5               	movwf	Lcd_Write_Int@val
   894     0688  0866               	movf	??_main+1,w
   895     0689  00A6               	movwf	Lcd_Write_Int@val+1
   896     068A  120A  118A  26C1  120A  118A  	fcall	_Lcd_Write_Int
   897     068F                     l2612:
   898                           
   899                           ;main.c: 49:         if (!(val & 0x01)) Lcd_Write_String(".5");
   900     068F  1283               	bcf	3,5	;RP0=0, select bank0
   901     0690  1303               	bcf	3,6	;RP1=0, select bank0
   902     0691  186C               	btfsc	main@val,0
   903     0692  2E94               	goto	u4061
   904     0693  2E95               	goto	u4060
   905     0694                     u4061:
   906     0694  2E9E               	goto	l2616
   907     0695                     u4060:
   908     0695                     l2614:
   909     0695  3001               	movlw	(low ((STR_1-__stringbase)| (0+32768)))& (0+255)
   910     0696  00F8               	movwf	Lcd_Write_String@a
   911     0697  3080               	movlw	128
   912     0698  00F9               	movwf	Lcd_Write_String@a+1
   913     0699  120A  158A  2574  120A  118A  	fcall	_Lcd_Write_String
   914     069E                     l2616:
   915                           
   916                           ;main.c: 50:         Lcd_Set_Cursor(1,0);
   917     069E  01F7               	clrf	Lcd_Set_Cursor@colonna
   918     069F  3001               	movlw	1
   919     06A0  120A  118A  27A2  120A  118A  	fcall	_Lcd_Set_Cursor
   920     06A5                     l2618:
   921                           
   922                           ;main.c: 51:         Lcd_Write_Int(err>>3);
   923     06A5  1283               	bcf	3,5	;RP0=0, select bank0
   924     06A6  1303               	bcf	3,6	;RP1=0, select bank0
   925     06A7  086B               	movf	main@err+1,w
   926     06A8  00E6               	movwf	??_main+1
   927     06A9  086A               	movf	main@err,w
   928     06AA  00E5               	movwf	??_main
   929     06AB  1003               	clrc
   930     06AC  0CE6               	rrf	??_main+1,f
   931     06AD  0CE5               	rrf	??_main,f
   932     06AE  1003               	clrc
   933     06AF  0CE6               	rrf	??_main+1,f
   934     06B0  0CE5               	rrf	??_main,f
   935     06B1  1003               	clrc
   936     06B2  0CE6               	rrf	??_main+1,f
   937     06B3  0CE5               	rrf	??_main,f
   938     06B4  0865               	movf	??_main,w
   939     06B5  00A5               	movwf	Lcd_Write_Int@val
   940     06B6  0866               	movf	??_main+1,w
   941     06B7  00A6               	movwf	Lcd_Write_Int@val+1
   942     06B8  120A  118A  26C1  120A  118A  	fcall	_Lcd_Write_Int
   943     06BD  2DD0               	goto	l2594
   944     06BE  120A  118A  280C   	ljmp	start
   945     06C1                     __end_of_main:
   946                           
   947                           	psect	text1
   948     0F46                     __ptext1:	
   949 ;; *************** function ___xxtofl *****************
   950 ;; Defined at:
   951 ;;		line 10 in file "C:\Program Files\Microchip\xc8\v2.40\pic\sources\c90\common\xxtofl.c"
   952 ;; Parameters:    Size  Location     Type
   953 ;;  sign            1    wreg     unsigned char 
   954 ;;  val             4    3[COMMON] long 
   955 ;; Auto vars:     Size  Location     Type
   956 ;;  sign            1    4[BANK0 ] unsigned char 
   957 ;;  arg             4    6[BANK0 ] unsigned long 
   958 ;;  exp             1    5[BANK0 ] unsigned char 
   959 ;; Return value:  Size  Location     Type
   960 ;;                  4    3[COMMON] unsigned char 
   961 ;; Registers used:
   962 ;;		wreg, status,2, status,0
   963 ;; Tracked objects:
   964 ;;		On entry : 0/0
   965 ;;		On exit  : 0/0
   966 ;;		Unchanged: 0/0
   967 ;; Data sizes:     COMMON   BANK0   BANK1   BANK3   BANK2
   968 ;;      Params:         4       0       0       0       0
   969 ;;      Locals:         0       6       0       0       0
   970 ;;      Temps:          0       4       0       0       0
   971 ;;      Totals:         4      10       0       0       0
   972 ;;Total ram usage:       14 bytes
   973 ;; Hardware stack levels used: 1
   974 ;; Hardware stack levels required when called: 1
   975 ;; This function calls:
   976 ;;		Nothing
   977 ;; This function is called by:
   978 ;;		_main
   979 ;; This function uses a non-reentrant model
   980 ;;
   981                           
   982     0F46                     ___xxtofl:	
   983                           ;psect for function ___xxtofl
   984                           
   985                           
   986                           ;incstack = 0
   987                           ; Regs used in ___xxtofl: [wreg+status,2+status,0]
   988                           ;___xxtofl@sign stored from wreg
   989     0F46  1283               	bcf	3,5	;RP0=0, select bank0
   990     0F47  1303               	bcf	3,6	;RP1=0, select bank0
   991     0F48  00A4               	movwf	___xxtofl@sign
   992     0F49                     l2540:
   993     0F49  0824               	movf	___xxtofl@sign,w
   994     0F4A  1903               	btfsc	3,2
   995     0F4B  2F4D               	goto	u3911
   996     0F4C  2F4E               	goto	u3910
   997     0F4D                     u3911:
   998     0F4D  2F62               	goto	l2546
   999     0F4E                     u3910:
  1000     0F4E                     l2542:
  1001     0F4E  1FF6               	btfss	___xxtofl@val+3,7
  1002     0F4F  2F51               	goto	u3921
  1003     0F50  2F52               	goto	u3920
  1004     0F51                     u3921:
  1005     0F51  2F62               	goto	l2546
  1006     0F52                     u3920:
  1007     0F52                     l2544:
  1008     0F52  0973               	comf	___xxtofl@val,w
  1009     0F53  00A6               	movwf	___xxtofl@arg
  1010     0F54  0974               	comf	___xxtofl@val+1,w
  1011     0F55  00A7               	movwf	___xxtofl@arg+1
  1012     0F56  0975               	comf	___xxtofl@val+2,w
  1013     0F57  00A8               	movwf	___xxtofl@arg+2
  1014     0F58  0976               	comf	___xxtofl@val+3,w
  1015     0F59  00A9               	movwf	___xxtofl@arg+3
  1016     0F5A  0AA6               	incf	___xxtofl@arg,f
  1017     0F5B  1903               	skipnz
  1018     0F5C  0AA7               	incf	___xxtofl@arg+1,f
  1019     0F5D  1903               	skipnz
  1020     0F5E  0AA8               	incf	___xxtofl@arg+2,f
  1021     0F5F  1903               	skipnz
  1022     0F60  0AA9               	incf	___xxtofl@arg+3,f
  1023     0F61  2F6A               	goto	l657
  1024     0F62                     l2546:
  1025     0F62  0876               	movf	___xxtofl@val+3,w
  1026     0F63  00A9               	movwf	___xxtofl@arg+3
  1027     0F64  0875               	movf	___xxtofl@val+2,w
  1028     0F65  00A8               	movwf	___xxtofl@arg+2
  1029     0F66  0874               	movf	___xxtofl@val+1,w
  1030     0F67  00A7               	movwf	___xxtofl@arg+1
  1031     0F68  0873               	movf	___xxtofl@val,w
  1032     0F69  00A6               	movwf	___xxtofl@arg
  1033     0F6A                     l657:
  1034     0F6A  0876               	movf	___xxtofl@val+3,w
  1035     0F6B  0475               	iorwf	___xxtofl@val+2,w
  1036     0F6C  0474               	iorwf	___xxtofl@val+1,w
  1037     0F6D  0473               	iorwf	___xxtofl@val,w
  1038     0F6E  1D03               	skipz
  1039     0F6F  2F71               	goto	u3931
  1040     0F70  2F72               	goto	u3930
  1041     0F71                     u3931:
  1042     0F71  2F7B               	goto	l2552
  1043     0F72                     u3930:
  1044     0F72                     l2548:
  1045     0F72  3000               	movlw	0
  1046     0F73  00F6               	movwf	?___xxtofl+3
  1047     0F74  3000               	movlw	0
  1048     0F75  00F5               	movwf	?___xxtofl+2
  1049     0F76  3000               	movlw	0
  1050     0F77  00F4               	movwf	?___xxtofl+1
  1051     0F78  3000               	movlw	0
  1052     0F79  00F3               	movwf	?___xxtofl
  1053     0F7A  2FFF               	goto	l659
  1054     0F7B                     l2552:
  1055     0F7B  3096               	movlw	150
  1056     0F7C  00A5               	movwf	___xxtofl@exp
  1057     0F7D  2F8B               	goto	l2556
  1058     0F7E                     l2554:
  1059     0F7E  3001               	movlw	1
  1060     0F7F  00A0               	movwf	??___xxtofl
  1061     0F80  0820               	movf	??___xxtofl,w
  1062     0F81  07A5               	addwf	___xxtofl@exp,f
  1063     0F82  3001               	movlw	1
  1064     0F83                     u3945:
  1065     0F83  1003               	clrc
  1066     0F84  0CA9               	rrf	___xxtofl@arg+3,f
  1067     0F85  0CA8               	rrf	___xxtofl@arg+2,f
  1068     0F86  0CA7               	rrf	___xxtofl@arg+1,f
  1069     0F87  0CA6               	rrf	___xxtofl@arg,f
  1070     0F88  3EFF               	addlw	-1
  1071     0F89  1D03               	skipz
  1072     0F8A  2F83               	goto	u3945
  1073     0F8B                     l2556:
  1074     0F8B  30FE               	movlw	254
  1075     0F8C  0529               	andwf	___xxtofl@arg+3,w
  1076     0F8D  1D03               	btfss	3,2
  1077     0F8E  2F90               	goto	u3951
  1078     0F8F  2F91               	goto	u3950
  1079     0F90                     u3951:
  1080     0F90  2F7E               	goto	l2554
  1081     0F91                     u3950:
  1082     0F91  2FAD               	goto	l663
  1083     0F92                     l2558:
  1084     0F92  3001               	movlw	1
  1085     0F93  00A0               	movwf	??___xxtofl
  1086     0F94  0820               	movf	??___xxtofl,w
  1087     0F95  07A5               	addwf	___xxtofl@exp,f
  1088     0F96                     l2560:
  1089     0F96  3001               	movlw	1
  1090     0F97  07A6               	addwf	___xxtofl@arg,f
  1091     0F98  3000               	movlw	0
  1092     0F99  1803               	skipnc
  1093     0F9A  3001               	movlw	1
  1094     0F9B  07A7               	addwf	___xxtofl@arg+1,f
  1095     0F9C  3000               	movlw	0
  1096     0F9D  1803               	skipnc
  1097     0F9E  3001               	movlw	1
  1098     0F9F  07A8               	addwf	___xxtofl@arg+2,f
  1099     0FA0  3000               	movlw	0
  1100     0FA1  1803               	skipnc
  1101     0FA2  3001               	movlw	1
  1102     0FA3  07A9               	addwf	___xxtofl@arg+3,f
  1103     0FA4                     l2562:
  1104     0FA4  3001               	movlw	1
  1105     0FA5                     u3965:
  1106     0FA5  1003               	clrc
  1107     0FA6  0CA9               	rrf	___xxtofl@arg+3,f
  1108     0FA7  0CA8               	rrf	___xxtofl@arg+2,f
  1109     0FA8  0CA7               	rrf	___xxtofl@arg+1,f
  1110     0FA9  0CA6               	rrf	___xxtofl@arg,f
  1111     0FAA  3EFF               	addlw	-1
  1112     0FAB  1D03               	skipz
  1113     0FAC  2FA5               	goto	u3965
  1114     0FAD                     l663:
  1115     0FAD  30FF               	movlw	255
  1116     0FAE  0529               	andwf	___xxtofl@arg+3,w
  1117     0FAF  1D03               	btfss	3,2
  1118     0FB0  2FB2               	goto	u3971
  1119     0FB1  2FB3               	goto	u3970
  1120     0FB2                     u3971:
  1121     0FB2  2F92               	goto	l2558
  1122     0FB3                     u3970:
  1123     0FB3  2FBF               	goto	l2566
  1124     0FB4                     l2564:
  1125     0FB4  3001               	movlw	1
  1126     0FB5  02A5               	subwf	___xxtofl@exp,f
  1127     0FB6  3001               	movlw	1
  1128     0FB7  00A0               	movwf	??___xxtofl
  1129     0FB8                     u3985:
  1130     0FB8  1003               	clrc
  1131     0FB9  0DA6               	rlf	___xxtofl@arg,f
  1132     0FBA  0DA7               	rlf	___xxtofl@arg+1,f
  1133     0FBB  0DA8               	rlf	___xxtofl@arg+2,f
  1134     0FBC  0DA9               	rlf	___xxtofl@arg+3,f
  1135     0FBD  0BA0               	decfsz	??___xxtofl,f
  1136     0FBE  2FB8               	goto	u3985
  1137     0FBF                     l2566:
  1138     0FBF  1BA8               	btfsc	___xxtofl@arg+2,7
  1139     0FC0  2FC2               	goto	u3991
  1140     0FC1  2FC3               	goto	u3990
  1141     0FC2                     u3991:
  1142     0FC2  2FC9               	goto	l670
  1143     0FC3                     u3990:
  1144     0FC3                     l2568:
  1145     0FC3  3002               	movlw	2
  1146     0FC4  0225               	subwf	___xxtofl@exp,w
  1147     0FC5  1803               	skipnc
  1148     0FC6  2FC8               	goto	u4001
  1149     0FC7  2FC9               	goto	u4000
  1150     0FC8                     u4001:
  1151     0FC8  2FB4               	goto	l2564
  1152     0FC9                     u4000:
  1153     0FC9                     l670:
  1154     0FC9  1825               	btfsc	___xxtofl@exp,0
  1155     0FCA  2FCC               	goto	u4011
  1156     0FCB  2FCD               	goto	u4010
  1157     0FCC                     u4011:
  1158     0FCC  2FD5               	goto	l671
  1159     0FCD                     u4010:
  1160     0FCD                     l2570:
  1161     0FCD  30FF               	movlw	255
  1162     0FCE  05A6               	andwf	___xxtofl@arg,f
  1163     0FCF  30FF               	movlw	255
  1164     0FD0  05A7               	andwf	___xxtofl@arg+1,f
  1165     0FD1  307F               	movlw	127
  1166     0FD2  05A8               	andwf	___xxtofl@arg+2,f
  1167     0FD3  30FF               	movlw	255
  1168     0FD4  05A9               	andwf	___xxtofl@arg+3,f
  1169     0FD5                     l671:
  1170     0FD5  1003               	clrc
  1171     0FD6  0CA5               	rrf	___xxtofl@exp,f
  1172     0FD7                     l2572:
  1173     0FD7  0825               	movf	___xxtofl@exp,w
  1174     0FD8  00A0               	movwf	??___xxtofl
  1175     0FD9  01A1               	clrf	??___xxtofl+1
  1176     0FDA  01A2               	clrf	??___xxtofl+2
  1177     0FDB  01A3               	clrf	??___xxtofl+3
  1178     0FDC  3018               	movlw	24
  1179     0FDD                     u4025:
  1180     0FDD  1003               	clrc
  1181     0FDE  0DA0               	rlf	??___xxtofl,f
  1182     0FDF  0DA1               	rlf	??___xxtofl+1,f
  1183     0FE0  0DA2               	rlf	??___xxtofl+2,f
  1184     0FE1  0DA3               	rlf	??___xxtofl+3,f
  1185     0FE2                     u4020:
  1186     0FE2  3EFF               	addlw	-1
  1187     0FE3  1D03               	skipz
  1188     0FE4  2FDD               	goto	u4025
  1189     0FE5  0820               	movf	??___xxtofl,w
  1190     0FE6  04A6               	iorwf	___xxtofl@arg,f
  1191     0FE7  0821               	movf	??___xxtofl+1,w
  1192     0FE8  04A7               	iorwf	___xxtofl@arg+1,f
  1193     0FE9  0822               	movf	??___xxtofl+2,w
  1194     0FEA  04A8               	iorwf	___xxtofl@arg+2,f
  1195     0FEB  0823               	movf	??___xxtofl+3,w
  1196     0FEC  04A9               	iorwf	___xxtofl@arg+3,f
  1197     0FED                     l2574:
  1198     0FED  0824               	movf	___xxtofl@sign,w
  1199     0FEE  1903               	btfsc	3,2
  1200     0FEF  2FF1               	goto	u4031
  1201     0FF0  2FF2               	goto	u4030
  1202     0FF1                     u4031:
  1203     0FF1  2FF7               	goto	l2580
  1204     0FF2                     u4030:
  1205     0FF2                     l2576:
  1206     0FF2  1FF6               	btfss	___xxtofl@val+3,7
  1207     0FF3  2FF5               	goto	u4041
  1208     0FF4  2FF6               	goto	u4040
  1209     0FF5                     u4041:
  1210     0FF5  2FF7               	goto	l2580
  1211     0FF6                     u4040:
  1212     0FF6                     l2578:
  1213     0FF6  17A9               	bsf	___xxtofl@arg+3,7
  1214     0FF7                     l2580:
  1215     0FF7  0829               	movf	___xxtofl@arg+3,w
  1216     0FF8  00F6               	movwf	?___xxtofl+3
  1217     0FF9  0828               	movf	___xxtofl@arg+2,w
  1218     0FFA  00F5               	movwf	?___xxtofl+2
  1219     0FFB  0827               	movf	___xxtofl@arg+1,w
  1220     0FFC  00F4               	movwf	?___xxtofl+1
  1221     0FFD  0826               	movf	___xxtofl@arg,w
  1222     0FFE  00F3               	movwf	?___xxtofl
  1223     0FFF                     l659:
  1224     0FFF  0008               	return
  1225     1000                     __end_of___xxtofl:
  1226                           
  1227                           	psect	text2
  1228     0ECE                     __ptext2:	
  1229 ;; *************** function ___fltol *****************
  1230 ;; Defined at:
  1231 ;;		line 43 in file "C:\Program Files\Microchip\xc8\v2.40\pic\sources\c90\common\fltol.c"
  1232 ;; Parameters:    Size  Location     Type
  1233 ;;  f1              4   50[BANK0 ] unsigned char 
  1234 ;; Auto vars:     Size  Location     Type
  1235 ;;  exp1            1    8[COMMON] unsigned char 
  1236 ;;  sign1           1    7[COMMON] unsigned char 
  1237 ;; Return value:  Size  Location     Type
  1238 ;;                  4   50[BANK0 ] long 
  1239 ;; Registers used:
  1240 ;;		wreg, status,2, status,0
  1241 ;; Tracked objects:
  1242 ;;		On entry : 0/0
  1243 ;;		On exit  : 0/0
  1244 ;;		Unchanged: 0/0
  1245 ;; Data sizes:     COMMON   BANK0   BANK1   BANK3   BANK2
  1246 ;;      Params:         0       4       0       0       0
  1247 ;;      Locals:         2       0       0       0       0
  1248 ;;      Temps:          0       4       0       0       0
  1249 ;;      Totals:         2       8       0       0       0
  1250 ;;Total ram usage:       10 bytes
  1251 ;; Hardware stack levels used: 1
  1252 ;; Hardware stack levels required when called: 1
  1253 ;; This function calls:
  1254 ;;		Nothing
  1255 ;; This function is called by:
  1256 ;;		_main
  1257 ;; This function uses a non-reentrant model
  1258 ;;
  1259                           
  1260     0ECE                     ___fltol:	
  1261                           ;psect for function ___fltol
  1262                           
  1263     0ECE                     l2498:	
  1264                           ;incstack = 0
  1265                           ; Regs used in ___fltol: [wreg+status,2+status,0]
  1266                           
  1267     0ECE  1003               	clrc
  1268     0ECF  1283               	bcf	3,5	;RP0=0, select bank0
  1269     0ED0  1303               	bcf	3,6	;RP1=0, select bank0
  1270     0ED1  0D54               	rlf	___fltol@f1+2,w
  1271     0ED2  0D55               	rlf	___fltol@f1+3,w
  1272     0ED3  00F8               	movwf	___fltol@exp1
  1273     0ED4  0878               	movf	___fltol@exp1,w
  1274     0ED5  1D03               	btfss	3,2
  1275     0ED6  2ED8               	goto	u3811
  1276     0ED7  2ED9               	goto	u3810
  1277     0ED8                     u3811:
  1278     0ED8  2EE2               	goto	l2504
  1279     0ED9                     u3810:
  1280     0ED9                     l2500:
  1281     0ED9  3000               	movlw	0
  1282     0EDA  00D5               	movwf	?___fltol+3
  1283     0EDB  3000               	movlw	0
  1284     0EDC  00D4               	movwf	?___fltol+2
  1285     0EDD  3000               	movlw	0
  1286     0EDE  00D3               	movwf	?___fltol+1
  1287     0EDF  3000               	movlw	0
  1288     0EE0  00D2               	movwf	?___fltol
  1289     0EE1  2F45               	goto	l410
  1290     0EE2                     l2504:
  1291     0EE2  0852               	movf	___fltol@f1,w
  1292     0EE3  00D6               	movwf	??___fltol
  1293     0EE4  0853               	movf	___fltol@f1+1,w
  1294     0EE5  00D7               	movwf	??___fltol+1
  1295     0EE6  0854               	movf	___fltol@f1+2,w
  1296     0EE7  00D8               	movwf	??___fltol+2
  1297     0EE8  0855               	movf	___fltol@f1+3,w
  1298     0EE9  00D9               	movwf	??___fltol+3
  1299     0EEA  301F               	movlw	31
  1300     0EEB                     u3825:
  1301     0EEB  1003               	clrc
  1302     0EEC  0CD9               	rrf	??___fltol+3,f
  1303     0EED  0CD8               	rrf	??___fltol+2,f
  1304     0EEE  0CD7               	rrf	??___fltol+1,f
  1305     0EEF  0CD6               	rrf	??___fltol,f
  1306     0EF0                     u3820:
  1307     0EF0  3EFF               	addlw	-1
  1308     0EF1  1D03               	skipz
  1309     0EF2  2EEB               	goto	u3825
  1310     0EF3  0856               	movf	??___fltol,w
  1311     0EF4  00F7               	movwf	___fltol@sign1
  1312     0EF5                     l2506:
  1313     0EF5  17D4               	bsf	___fltol@f1+2,7
  1314     0EF6                     l2508:
  1315     0EF6  30FF               	movlw	255
  1316     0EF7  05D2               	andwf	___fltol@f1,f
  1317     0EF8  30FF               	movlw	255
  1318     0EF9  05D3               	andwf	___fltol@f1+1,f
  1319     0EFA  30FF               	movlw	255
  1320     0EFB  05D4               	andwf	___fltol@f1+2,f
  1321     0EFC  3000               	movlw	0
  1322     0EFD  05D5               	andwf	___fltol@f1+3,f
  1323     0EFE                     l2510:
  1324     0EFE  3096               	movlw	150
  1325     0EFF  02F8               	subwf	___fltol@exp1,f
  1326     0F00                     l2512:
  1327     0F00  1FF8               	btfss	___fltol@exp1,7
  1328     0F01  2F03               	goto	u3831
  1329     0F02  2F04               	goto	u3830
  1330     0F03                     u3831:
  1331     0F03  2F1E               	goto	l2522
  1332     0F04                     u3830:
  1333     0F04                     l2514:
  1334     0F04  0878               	movf	___fltol@exp1,w
  1335     0F05  3A80               	xorlw	128
  1336     0F06  3E97               	addlw	151
  1337     0F07  1803               	skipnc
  1338     0F08  2F0A               	goto	u3841
  1339     0F09  2F0B               	goto	u3840
  1340     0F0A                     u3841:
  1341     0F0A  2F0C               	goto	l2520
  1342     0F0B                     u3840:
  1343     0F0B  2ED9               	goto	l2500
  1344     0F0C                     l2520:
  1345     0F0C  3001               	movlw	1
  1346     0F0D                     u3855:
  1347     0F0D  1003               	clrc
  1348     0F0E  0CD5               	rrf	___fltol@f1+3,f
  1349     0F0F  0CD4               	rrf	___fltol@f1+2,f
  1350     0F10  0CD3               	rrf	___fltol@f1+1,f
  1351     0F11  0CD2               	rrf	___fltol@f1,f
  1352     0F12  3EFF               	addlw	-1
  1353     0F13  1D03               	skipz
  1354     0F14  2F0D               	goto	u3855
  1355     0F15  3001               	movlw	1
  1356     0F16  00D6               	movwf	??___fltol
  1357     0F17  0856               	movf	??___fltol,w
  1358     0F18  07F8               	addwf	___fltol@exp1,f
  1359     0F19  1D03               	btfss	3,2
  1360     0F1A  2F1C               	goto	u3861
  1361     0F1B  2F1D               	goto	u3860
  1362     0F1C                     u3861:
  1363     0F1C  2F0C               	goto	l2520
  1364     0F1D                     u3860:
  1365     0F1D  2F35               	goto	l2530
  1366     0F1E                     l2522:
  1367     0F1E  3020               	movlw	32
  1368     0F1F  0278               	subwf	___fltol@exp1,w
  1369     0F20  1C03               	skipc
  1370     0F21  2F23               	goto	u3871
  1371     0F22  2F24               	goto	u3870
  1372     0F23                     u3871:
  1373     0F23  2F30               	goto	l417
  1374     0F24                     u3870:
  1375     0F24  2ED9               	goto	l2500
  1376     0F25                     l2528:
  1377     0F25  3001               	movlw	1
  1378     0F26  00D6               	movwf	??___fltol
  1379     0F27                     u3885:
  1380     0F27  1003               	clrc
  1381     0F28  0DD2               	rlf	___fltol@f1,f
  1382     0F29  0DD3               	rlf	___fltol@f1+1,f
  1383     0F2A  0DD4               	rlf	___fltol@f1+2,f
  1384     0F2B  0DD5               	rlf	___fltol@f1+3,f
  1385     0F2C  0BD6               	decfsz	??___fltol,f
  1386     0F2D  2F27               	goto	u3885
  1387     0F2E  3001               	movlw	1
  1388     0F2F  02F8               	subwf	___fltol@exp1,f
  1389     0F30                     l417:
  1390     0F30  0878               	movf	___fltol@exp1,w
  1391     0F31  1D03               	btfss	3,2
  1392     0F32  2F34               	goto	u3891
  1393     0F33  2F35               	goto	u3890
  1394     0F34                     u3891:
  1395     0F34  2F25               	goto	l2528
  1396     0F35                     u3890:
  1397     0F35                     l2530:
  1398     0F35  0877               	movf	___fltol@sign1,w
  1399     0F36  1903               	btfsc	3,2
  1400     0F37  2F39               	goto	u3901
  1401     0F38  2F3A               	goto	u3900
  1402     0F39                     u3901:
  1403     0F39  2F45               	goto	l420
  1404     0F3A                     u3900:
  1405     0F3A                     l2532:
  1406     0F3A  09D2               	comf	___fltol@f1,f
  1407     0F3B  09D3               	comf	___fltol@f1+1,f
  1408     0F3C  09D4               	comf	___fltol@f1+2,f
  1409     0F3D  09D5               	comf	___fltol@f1+3,f
  1410     0F3E  0AD2               	incf	___fltol@f1,f
  1411     0F3F  1903               	skipnz
  1412     0F40  0AD3               	incf	___fltol@f1+1,f
  1413     0F41  1903               	skipnz
  1414     0F42  0AD4               	incf	___fltol@f1+2,f
  1415     0F43  1903               	skipnz
  1416     0F44  0AD5               	incf	___fltol@f1+3,f
  1417     0F45                     l420:
  1418     0F45                     l410:
  1419     0F45  0008               	return
  1420     0F46                     __end_of___fltol:
  1421                           
  1422                           	psect	text3
  1423     0C54                     __ptext3:	
  1424 ;; *************** function ___flsub *****************
  1425 ;; Defined at:
  1426 ;;		line 242 in file "C:\Program Files\Microchip\xc8\v2.40\pic\sources\c90\common\sprcadd.c"
  1427 ;; Parameters:    Size  Location     Type
  1428 ;;  a               4   16[BANK0 ] long 
  1429 ;;  b               4   20[BANK0 ] long 
  1430 ;; Auto vars:     Size  Location     Type
  1431 ;;		None
  1432 ;; Return value:  Size  Location     Type
  1433 ;;                  4   16[BANK0 ] long 
  1434 ;; Registers used:
  1435 ;;		wreg, status,2, status,0, btemp+1, pclath, cstack
  1436 ;; Tracked objects:
  1437 ;;		On entry : 0/0
  1438 ;;		On exit  : 0/0
  1439 ;;		Unchanged: 0/0
  1440 ;; Data sizes:     COMMON   BANK0   BANK1   BANK3   BANK2
  1441 ;;      Params:         0       8       0       0       0
  1442 ;;      Locals:         0       0       0       0       0
  1443 ;;      Temps:          0       0       0       0       0
  1444 ;;      Totals:         0       8       0       0       0
  1445 ;;Total ram usage:        8 bytes
  1446 ;; Hardware stack levels used: 1
  1447 ;; Hardware stack levels required when called: 2
  1448 ;; This function calls:
  1449 ;;		___fladd
  1450 ;; This function is called by:
  1451 ;;		_main
  1452 ;; This function uses a non-reentrant model
  1453 ;;
  1454                           
  1455     0C54                     ___flsub:	
  1456                           ;psect for function ___flsub
  1457                           
  1458     0C54                     l2534:	
  1459                           ;incstack = 0
  1460                           ; Regs used in ___flsub: [wreg+status,2+status,0+btemp+1+pclath+cstack]
  1461                           
  1462     0C54  3080               	movlw	128
  1463     0C55  1283               	bcf	3,5	;RP0=0, select bank0
  1464     0C56  1303               	bcf	3,6	;RP1=0, select bank0
  1465     0C57  06B3               	xorwf	___flsub@a+3,f
  1466     0C58                     l2536:
  1467     0C58  0837               	movf	___flsub@b+3,w
  1468     0C59  00A3               	movwf	___fladd@b+3
  1469     0C5A  0836               	movf	___flsub@b+2,w
  1470     0C5B  00A2               	movwf	___fladd@b+2
  1471     0C5C  0835               	movf	___flsub@b+1,w
  1472     0C5D  00A1               	movwf	___fladd@b+1
  1473     0C5E  0834               	movf	___flsub@b,w
  1474     0C5F  00A0               	movwf	___fladd@b
  1475     0C60  0833               	movf	___flsub@a+3,w
  1476     0C61  00A7               	movwf	___fladd@a+3
  1477     0C62  0832               	movf	___flsub@a+2,w
  1478     0C63  00A6               	movwf	___fladd@a+2
  1479     0C64  0831               	movf	___flsub@a+1,w
  1480     0C65  00A5               	movwf	___fladd@a+1
  1481     0C66  0830               	movf	___flsub@a,w
  1482     0C67  00A4               	movwf	___fladd@a
  1483     0C68  120A  118A  235C  120A  158A  	fcall	___fladd
  1484     0C6D  1283               	bcf	3,5	;RP0=0, select bank0
  1485     0C6E  1303               	bcf	3,6	;RP1=0, select bank0
  1486     0C6F  0823               	movf	?___fladd+3,w
  1487     0C70  00B3               	movwf	?___flsub+3
  1488     0C71  0822               	movf	?___fladd+2,w
  1489     0C72  00B2               	movwf	?___flsub+2
  1490     0C73  0821               	movf	?___fladd+1,w
  1491     0C74  00B1               	movwf	?___flsub+1
  1492     0C75  0820               	movf	?___fladd,w
  1493     0C76  00B0               	movwf	?___flsub
  1494     0C77                     l563:
  1495     0C77  0008               	return
  1496     0C78                     __end_of___flsub:
  1497                           
  1498                           	psect	text4
  1499     035C                     __ptext4:	
  1500 ;; *************** function ___fladd *****************
  1501 ;; Defined at:
  1502 ;;		line 10 in file "C:\Program Files\Microchip\xc8\v2.40\pic\sources\c90\common\sprcadd.c"
  1503 ;; Parameters:    Size  Location     Type
  1504 ;;  b               4    0[BANK0 ] long 
  1505 ;;  a               4    4[BANK0 ] long 
  1506 ;; Auto vars:     Size  Location     Type
  1507 ;;  grs             1    6[COMMON] unsigned char 
  1508 ;;  bexp            1    5[COMMON] unsigned char 
  1509 ;;  aexp            1    4[COMMON] unsigned char 
  1510 ;;  signs           1    3[COMMON] unsigned char 
  1511 ;; Return value:  Size  Location     Type
  1512 ;;                  4    0[BANK0 ] unsigned char 
  1513 ;; Registers used:
  1514 ;;		wreg, status,2, status,0, btemp+1
  1515 ;; Tracked objects:
  1516 ;;		On entry : 0/0
  1517 ;;		On exit  : 0/0
  1518 ;;		Unchanged: 0/0
  1519 ;; Data sizes:     COMMON   BANK0   BANK1   BANK3   BANK2
  1520 ;;      Params:         0       8       0       0       0
  1521 ;;      Locals:         4       0       0       0       0
  1522 ;;      Temps:          0       8       0       0       0
  1523 ;;      Totals:         4      16       0       0       0
  1524 ;;Total ram usage:       20 bytes
  1525 ;; Hardware stack levels used: 1
  1526 ;; Hardware stack levels required when called: 1
  1527 ;; This function calls:
  1528 ;;		Nothing
  1529 ;; This function is called by:
  1530 ;;		___flsub
  1531 ;; This function uses a non-reentrant model
  1532 ;;
  1533                           
  1534     035C                     ___fladd:	
  1535                           ;psect for function ___fladd
  1536                           
  1537     035C                     l2260:	
  1538                           ;incstack = 0
  1539                           ; Regs used in ___fladd: [wreg+status,2+status,0+btemp+1]
  1540                           
  1541     035C  1283               	bcf	3,5	;RP0=0, select bank0
  1542     035D  1303               	bcf	3,6	;RP1=0, select bank0
  1543     035E  0823               	movf	___fladd@b+3,w
  1544     035F  3980               	andlw	128
  1545     0360  00F3               	movwf	___fladd@signs
  1546     0361                     l2262:
  1547     0361  0823               	movf	___fladd@b+3,w
  1548     0362  00A8               	movwf	??___fladd
  1549     0363  0728               	addwf	??___fladd,w
  1550     0364  00F5               	movwf	___fladd@bexp
  1551     0365                     l2264:
  1552     0365  1FA2               	btfss	___fladd@b+2,7
  1553     0366  2B68               	goto	u3281
  1554     0367  2B69               	goto	u3280
  1555     0368                     u3281:
  1556     0368  2B6A               	goto	l2268
  1557     0369                     u3280:
  1558     0369                     l2266:
  1559     0369  1475               	bsf	___fladd@bexp,0
  1560     036A                     l2268:
  1561     036A  0875               	movf	___fladd@bexp,w
  1562     036B  1903               	btfsc	3,2
  1563     036C  2B6E               	goto	u3291
  1564     036D  2B6F               	goto	u3290
  1565     036E                     u3291:
  1566     036E  2B7F               	goto	l2278
  1567     036F                     u3290:
  1568     036F                     l2270:
  1569     036F  0A75               	incf	___fladd@bexp,w
  1570     0370  1D03               	btfss	3,2
  1571     0371  2B73               	goto	u3301
  1572     0372  2B74               	goto	u3300
  1573     0373                     u3301:
  1574     0373  2B7C               	goto	l2274
  1575     0374                     u3300:
  1576     0374                     l2272:
  1577     0374  3000               	movlw	0
  1578     0375  00A3               	movwf	___fladd@b+3
  1579     0376  3000               	movlw	0
  1580     0377  00A2               	movwf	___fladd@b+2
  1581     0378  3000               	movlw	0
  1582     0379  00A1               	movwf	___fladd@b+1
  1583     037A  3000               	movlw	0
  1584     037B  00A0               	movwf	___fladd@b
  1585     037C                     l2274:
  1586     037C  17A2               	bsf	___fladd@b+2,7
  1587     037D                     l2276:
  1588     037D  01A3               	clrf	___fladd@b+3
  1589     037E  2B87               	goto	l2280
  1590     037F                     l2278:
  1591     037F  3000               	movlw	0
  1592     0380  00A3               	movwf	___fladd@b+3
  1593     0381  3000               	movlw	0
  1594     0382  00A2               	movwf	___fladd@b+2
  1595     0383  3000               	movlw	0
  1596     0384  00A1               	movwf	___fladd@b+1
  1597     0385  3000               	movlw	0
  1598     0386  00A0               	movwf	___fladd@b
  1599     0387                     l2280:
  1600     0387  0827               	movf	___fladd@a+3,w
  1601     0388  3980               	andlw	128
  1602     0389  00F4               	movwf	___fladd@aexp
  1603     038A                     l2282:
  1604     038A  0874               	movf	___fladd@aexp,w
  1605     038B  0673               	xorwf	___fladd@signs,w
  1606     038C  1903               	skipnz
  1607     038D  2B8F               	goto	u3311
  1608     038E  2B90               	goto	u3310
  1609     038F                     u3311:
  1610     038F  2B91               	goto	l2286
  1611     0390                     u3310:
  1612     0390                     l2284:
  1613     0390  1773               	bsf	___fladd@signs,6
  1614     0391                     l2286:
  1615     0391  0827               	movf	___fladd@a+3,w
  1616     0392  00A8               	movwf	??___fladd
  1617     0393  0728               	addwf	??___fladd,w
  1618     0394  00F4               	movwf	___fladd@aexp
  1619     0395                     l2288:
  1620     0395  1FA6               	btfss	___fladd@a+2,7
  1621     0396  2B98               	goto	u3321
  1622     0397  2B99               	goto	u3320
  1623     0398                     u3321:
  1624     0398  2B9A               	goto	l2292
  1625     0399                     u3320:
  1626     0399                     l2290:
  1627     0399  1474               	bsf	___fladd@aexp,0
  1628     039A                     l2292:
  1629     039A  0874               	movf	___fladd@aexp,w
  1630     039B  1903               	btfsc	3,2
  1631     039C  2B9E               	goto	u3331
  1632     039D  2B9F               	goto	u3330
  1633     039E                     u3331:
  1634     039E  2BAF               	goto	l2302
  1635     039F                     u3330:
  1636     039F                     l2294:
  1637     039F  0A74               	incf	___fladd@aexp,w
  1638     03A0  1D03               	btfss	3,2
  1639     03A1  2BA3               	goto	u3341
  1640     03A2  2BA4               	goto	u3340
  1641     03A3                     u3341:
  1642     03A3  2BAC               	goto	l2298
  1643     03A4                     u3340:
  1644     03A4                     l2296:
  1645     03A4  3000               	movlw	0
  1646     03A5  00A7               	movwf	___fladd@a+3
  1647     03A6  3000               	movlw	0
  1648     03A7  00A6               	movwf	___fladd@a+2
  1649     03A8  3000               	movlw	0
  1650     03A9  00A5               	movwf	___fladd@a+1
  1651     03AA  3000               	movlw	0
  1652     03AB  00A4               	movwf	___fladd@a
  1653     03AC                     l2298:
  1654     03AC  17A6               	bsf	___fladd@a+2,7
  1655     03AD                     l2300:
  1656     03AD  01A7               	clrf	___fladd@a+3
  1657     03AE  2BB7               	goto	l517
  1658     03AF                     l2302:
  1659     03AF  3000               	movlw	0
  1660     03B0  00A7               	movwf	___fladd@a+3
  1661     03B1  3000               	movlw	0
  1662     03B2  00A6               	movwf	___fladd@a+2
  1663     03B3  3000               	movlw	0
  1664     03B4  00A5               	movwf	___fladd@a+1
  1665     03B5  3000               	movlw	0
  1666     03B6  00A4               	movwf	___fladd@a
  1667     03B7                     l517:
  1668     03B7  0875               	movf	___fladd@bexp,w
  1669     03B8  0274               	subwf	___fladd@aexp,w
  1670     03B9  1803               	skipnc
  1671     03BA  2BBC               	goto	u3351
  1672     03BB  2BBD               	goto	u3350
  1673     03BC                     u3351:
  1674     03BC  2BE3               	goto	l2338
  1675     03BD                     u3350:
  1676     03BD                     l2304:
  1677     03BD  1F73               	btfss	___fladd@signs,6
  1678     03BE  2BC0               	goto	u3361
  1679     03BF  2BC1               	goto	u3360
  1680     03C0                     u3361:
  1681     03C0  2BC5               	goto	l2308
  1682     03C1                     u3360:
  1683     03C1                     l2306:
  1684     03C1  3080               	movlw	128
  1685     03C2  00A8               	movwf	??___fladd
  1686     03C3  0828               	movf	??___fladd,w
  1687     03C4  06F3               	xorwf	___fladd@signs,f
  1688     03C5                     l2308:
  1689     03C5  0875               	movf	___fladd@bexp,w
  1690     03C6  00F6               	movwf	___fladd@grs
  1691     03C7                     l2310:
  1692     03C7  0874               	movf	___fladd@aexp,w
  1693     03C8  00F5               	movwf	___fladd@bexp
  1694     03C9                     l2312:
  1695     03C9  0876               	movf	___fladd@grs,w
  1696     03CA  00F4               	movwf	___fladd@aexp
  1697     03CB                     l2314:
  1698     03CB  0820               	movf	___fladd@b,w
  1699     03CC  00F6               	movwf	___fladd@grs
  1700     03CD                     l2316:
  1701     03CD  0824               	movf	___fladd@a,w
  1702     03CE  00A0               	movwf	___fladd@b
  1703     03CF                     l2318:
  1704     03CF  0876               	movf	___fladd@grs,w
  1705     03D0  00A4               	movwf	___fladd@a
  1706     03D1                     l2320:
  1707     03D1  0821               	movf	___fladd@b+1,w
  1708     03D2  00F6               	movwf	___fladd@grs
  1709     03D3                     l2322:
  1710     03D3  0825               	movf	___fladd@a+1,w
  1711     03D4  00A1               	movwf	___fladd@b+1
  1712     03D5                     l2324:
  1713     03D5  0876               	movf	___fladd@grs,w
  1714     03D6  00A5               	movwf	___fladd@a+1
  1715     03D7                     l2326:
  1716     03D7  0822               	movf	___fladd@b+2,w
  1717     03D8  00F6               	movwf	___fladd@grs
  1718     03D9                     l2328:
  1719     03D9  0826               	movf	___fladd@a+2,w
  1720     03DA  00A2               	movwf	___fladd@b+2
  1721     03DB                     l2330:
  1722     03DB  0876               	movf	___fladd@grs,w
  1723     03DC  00A6               	movwf	___fladd@a+2
  1724     03DD                     l2332:
  1725     03DD  0823               	movf	___fladd@b+3,w
  1726     03DE  00F6               	movwf	___fladd@grs
  1727     03DF                     l2334:
  1728     03DF  0827               	movf	___fladd@a+3,w
  1729     03E0  00A3               	movwf	___fladd@b+3
  1730     03E1                     l2336:
  1731     03E1  0876               	movf	___fladd@grs,w
  1732     03E2  00A7               	movwf	___fladd@a+3
  1733     03E3                     l2338:
  1734     03E3  01F6               	clrf	___fladd@grs
  1735     03E4                     l2340:
  1736     03E4  0874               	movf	___fladd@aexp,w
  1737     03E5  00A8               	movwf	??___fladd
  1738     03E6  01A9               	clrf	??___fladd+1
  1739     03E7  0829               	movf	??___fladd+1,w
  1740     03E8  00AB               	movwf	??___fladd+3
  1741     03E9  0875               	movf	___fladd@bexp,w
  1742     03EA  0228               	subwf	??___fladd,w
  1743     03EB  00AA               	movwf	??___fladd+2
  1744     03EC  1C03               	skipc
  1745     03ED  03AB               	decf	??___fladd+3,f
  1746     03EE  082B               	movf	??___fladd+3,w
  1747     03EF  3A80               	xorlw	128
  1748     03F0  00FF               	movwf	btemp+1
  1749     03F1  3080               	movlw	128
  1750     03F2  027F               	subwf	btemp+1,w
  1751     03F3  1D03               	skipz
  1752     03F4  2BF7               	goto	u3375
  1753     03F5  301A               	movlw	26
  1754     03F6  022A               	subwf	??___fladd+2,w
  1755     03F7                     u3375:
  1756     03F7  1C03               	skipc
  1757     03F8  2BFA               	goto	u3371
  1758     03F9  2BFB               	goto	u3370
  1759     03FA                     u3371:
  1760     03FA  2C36               	goto	l2356
  1761     03FB                     u3370:
  1762     03FB                     l2342:
  1763     03FB  1283               	bcf	3,5	;RP0=0, select bank0
  1764     03FC  1303               	bcf	3,6	;RP1=0, select bank0
  1765     03FD  0823               	movf	___fladd@b+3,w
  1766     03FE  0422               	iorwf	___fladd@b+2,w
  1767     03FF  0421               	iorwf	___fladd@b+1,w
  1768     0400  0420               	iorwf	___fladd@b,w
  1769     0401  1D03               	skipz
  1770     0402  2C04               	goto	u3381
  1771     0403  2C06               	goto	u3380
  1772     0404                     u3381:
  1773     0404  3001               	movlw	1
  1774     0405  2C07               	goto	u3390
  1775     0406                     u3380:
  1776     0406  3000               	movlw	0
  1777     0407                     u3390:
  1778     0407  00F6               	movwf	___fladd@grs
  1779     0408  3000               	movlw	0
  1780     0409  00A3               	movwf	___fladd@b+3
  1781     040A  3000               	movlw	0
  1782     040B  00A2               	movwf	___fladd@b+2
  1783     040C  3000               	movlw	0
  1784     040D  00A1               	movwf	___fladd@b+1
  1785     040E  3000               	movlw	0
  1786     040F  00A0               	movwf	___fladd@b
  1787     0410  0874               	movf	___fladd@aexp,w
  1788     0411  00F5               	movwf	___fladd@bexp
  1789     0412  2C3C               	goto	l521
  1790     0413                     l523:
  1791     0413  1C76               	btfss	___fladd@grs,0
  1792     0414  2C16               	goto	u3401
  1793     0415  2C17               	goto	u3400
  1794     0416                     u3401:
  1795     0416  2C20               	goto	l2346
  1796     0417                     u3400:
  1797     0417                     l2344:
  1798     0417  0876               	movf	___fladd@grs,w
  1799     0418  1283               	bcf	3,5	;RP0=0, select bank0
  1800     0419  1303               	bcf	3,6	;RP1=0, select bank0
  1801     041A  00A8               	movwf	??___fladd
  1802     041B  1003               	clrc
  1803     041C  0C28               	rrf	??___fladd,w
  1804     041D  3801               	iorlw	1
  1805     041E  00F6               	movwf	___fladd@grs
  1806     041F  2C22               	goto	l2348
  1807     0420                     l2346:
  1808     0420  1003               	clrc
  1809     0421  0CF6               	rrf	___fladd@grs,f
  1810     0422                     l2348:
  1811     0422  1283               	bcf	3,5	;RP0=0, select bank0
  1812     0423  1303               	bcf	3,6	;RP1=0, select bank0
  1813     0424  1C20               	btfss	___fladd@b,0
  1814     0425  2C27               	goto	u3411
  1815     0426  2C28               	goto	u3410
  1816     0427                     u3411:
  1817     0427  2C29               	goto	l2352
  1818     0428                     u3410:
  1819     0428                     l2350:
  1820     0428  17F6               	bsf	___fladd@grs,7
  1821     0429                     l2352:
  1822     0429  3001               	movlw	1
  1823     042A  00A8               	movwf	??___fladd
  1824     042B                     u3425:
  1825     042B  0D23               	rlf	___fladd@b+3,w
  1826     042C  0CA3               	rrf	___fladd@b+3,f
  1827     042D  0CA2               	rrf	___fladd@b+2,f
  1828     042E  0CA1               	rrf	___fladd@b+1,f
  1829     042F  0CA0               	rrf	___fladd@b,f
  1830     0430  0BA8               	decfsz	??___fladd& (0+127),f
  1831     0431  2C2B               	goto	u3425
  1832     0432                     l2354:
  1833     0432  3001               	movlw	1
  1834     0433  00A8               	movwf	??___fladd
  1835     0434  0828               	movf	??___fladd,w
  1836     0435  07F5               	addwf	___fladd@bexp,f
  1837     0436                     l2356:
  1838     0436  0874               	movf	___fladd@aexp,w
  1839     0437  0275               	subwf	___fladd@bexp,w
  1840     0438  1C03               	skipc
  1841     0439  2C3B               	goto	u3431
  1842     043A  2C3C               	goto	u3430
  1843     043B                     u3431:
  1844     043B  2C13               	goto	l523
  1845     043C                     u3430:
  1846     043C                     l521:
  1847     043C  1B73               	btfsc	___fladd@signs,6
  1848     043D  2C3F               	goto	u3441
  1849     043E  2C40               	goto	u3440
  1850     043F                     u3441:
  1851     043F  2C8D               	goto	l2382
  1852     0440                     u3440:
  1853     0440                     l2358:
  1854     0440  0875               	movf	___fladd@bexp,w
  1855     0441  1D03               	btfss	3,2
  1856     0442  2C44               	goto	u3451
  1857     0443  2C45               	goto	u3450
  1858     0444                     u3451:
  1859     0444  2C50               	goto	l2364
  1860     0445                     u3450:
  1861     0445                     l2360:
  1862     0445  3000               	movlw	0
  1863     0446  1283               	bcf	3,5	;RP0=0, select bank0
  1864     0447  1303               	bcf	3,6	;RP1=0, select bank0
  1865     0448  00A3               	movwf	?___fladd+3
  1866     0449  3000               	movlw	0
  1867     044A  00A2               	movwf	?___fladd+2
  1868     044B  3000               	movlw	0
  1869     044C  00A1               	movwf	?___fladd+1
  1870     044D  3000               	movlw	0
  1871     044E  00A0               	movwf	?___fladd
  1872     044F  2DBB               	goto	l530
  1873     0450                     l2364:
  1874     0450  1283               	bcf	3,5	;RP0=0, select bank0
  1875     0451  1303               	bcf	3,6	;RP1=0, select bank0
  1876     0452  0824               	movf	___fladd@a,w
  1877     0453  07A0               	addwf	___fladd@b,f
  1878     0454  0825               	movf	___fladd@a+1,w
  1879     0455  1103               	clrz
  1880     0456  1803               	skipnc
  1881     0457  3E01               	addlw	1
  1882     0458  1903               	skipnz
  1883     0459  2C5B               	goto	u3461
  1884     045A  07A1               	addwf	___fladd@b+1,f
  1885     045B                     u3461:
  1886     045B  0826               	movf	___fladd@a+2,w
  1887     045C  1103               	clrz
  1888     045D  1803               	skipnc
  1889     045E  3E01               	addlw	1
  1890     045F  1903               	skipnz
  1891     0460  2C62               	goto	u3462
  1892     0461  07A2               	addwf	___fladd@b+2,f
  1893     0462                     u3462:
  1894     0462  0827               	movf	___fladd@a+3,w
  1895     0463  1103               	clrz
  1896     0464  1803               	skipnc
  1897     0465  3E01               	addlw	1
  1898     0466  1903               	skipnz
  1899     0467  2C69               	goto	u3463
  1900     0468  07A3               	addwf	___fladd@b+3,f
  1901     0469                     u3463:
  1902     0469                     l2366:
  1903     0469  1C23               	btfss	___fladd@b+3,0
  1904     046A  2C6C               	goto	u3471
  1905     046B  2C6D               	goto	u3470
  1906     046C                     u3471:
  1907     046C  2D43               	goto	l2416
  1908     046D                     u3470:
  1909     046D                     l2368:
  1910     046D  1C76               	btfss	___fladd@grs,0
  1911     046E  2C70               	goto	u3481
  1912     046F  2C71               	goto	u3480
  1913     0470                     u3481:
  1914     0470  2C78               	goto	l2372
  1915     0471                     u3480:
  1916     0471                     l2370:
  1917     0471  0876               	movf	___fladd@grs,w
  1918     0472  00A8               	movwf	??___fladd
  1919     0473  1003               	clrc
  1920     0474  0C28               	rrf	??___fladd,w
  1921     0475  3801               	iorlw	1
  1922     0476  00F6               	movwf	___fladd@grs
  1923     0477  2C7A               	goto	l2374
  1924     0478                     l2372:
  1925     0478  1003               	clrc
  1926     0479  0CF6               	rrf	___fladd@grs,f
  1927     047A                     l2374:
  1928     047A  1C20               	btfss	___fladd@b,0
  1929     047B  2C7D               	goto	u3491
  1930     047C  2C7E               	goto	u3490
  1931     047D                     u3491:
  1932     047D  2C7F               	goto	l2378
  1933     047E                     u3490:
  1934     047E                     l2376:
  1935     047E  17F6               	bsf	___fladd@grs,7
  1936     047F                     l2378:
  1937     047F  3001               	movlw	1
  1938     0480  00A8               	movwf	??___fladd
  1939     0481                     u3505:
  1940     0481  0D23               	rlf	___fladd@b+3,w
  1941     0482  0CA3               	rrf	___fladd@b+3,f
  1942     0483  0CA2               	rrf	___fladd@b+2,f
  1943     0484  0CA1               	rrf	___fladd@b+1,f
  1944     0485  0CA0               	rrf	___fladd@b,f
  1945     0486  0BA8               	decfsz	??___fladd& (0+127),f
  1946     0487  2C81               	goto	u3505
  1947     0488                     l2380:
  1948     0488  3001               	movlw	1
  1949     0489  00A8               	movwf	??___fladd
  1950     048A  0828               	movf	??___fladd,w
  1951     048B  07F5               	addwf	___fladd@bexp,f
  1952     048C  2D43               	goto	l2416
  1953     048D                     l2382:
  1954     048D  1283               	bcf	3,5	;RP0=0, select bank0
  1955     048E  1303               	bcf	3,6	;RP1=0, select bank0
  1956     048F  0823               	movf	___fladd@b+3,w
  1957     0490  3A80               	xorlw	128
  1958     0491  00FF               	movwf	btemp+1
  1959     0492  0827               	movf	___fladd@a+3,w
  1960     0493  3A80               	xorlw	128
  1961     0494  027F               	subwf	btemp+1,w
  1962     0495  1D03               	skipz
  1963     0496  2CA1               	goto	u3513
  1964     0497  0826               	movf	___fladd@a+2,w
  1965     0498  0222               	subwf	___fladd@b+2,w
  1966     0499  1D03               	skipz
  1967     049A  2CA1               	goto	u3513
  1968     049B  0825               	movf	___fladd@a+1,w
  1969     049C  0221               	subwf	___fladd@b+1,w
  1970     049D  1D03               	skipz
  1971     049E  2CA1               	goto	u3513
  1972     049F  0824               	movf	___fladd@a,w
  1973     04A0  0220               	subwf	___fladd@b,w
  1974     04A1                     u3513:
  1975     04A1  1803               	skipnc
  1976     04A2  2CA4               	goto	u3511
  1977     04A3  2CA5               	goto	u3510
  1978     04A4                     u3511:
  1979     04A4  2CFD               	goto	l2392
  1980     04A5                     u3510:
  1981     04A5                     l2384:
  1982     04A5  30FF               	movlw	255
  1983     04A6  00A8               	movwf	??___fladd
  1984     04A7  30FF               	movlw	255
  1985     04A8  00A9               	movwf	??___fladd+1
  1986     04A9  30FF               	movlw	255
  1987     04AA  00AA               	movwf	??___fladd+2
  1988     04AB  30FF               	movlw	255
  1989     04AC  00AB               	movwf	??___fladd+3
  1990     04AD  0824               	movf	___fladd@a,w
  1991     04AE  00AC               	movwf	??___fladd+4
  1992     04AF  0825               	movf	___fladd@a+1,w
  1993     04B0  00AD               	movwf	??___fladd+5
  1994     04B1  0826               	movf	___fladd@a+2,w
  1995     04B2  00AE               	movwf	??___fladd+6
  1996     04B3  0827               	movf	___fladd@a+3,w
  1997     04B4  00AF               	movwf	??___fladd+7
  1998     04B5  0820               	movf	___fladd@b,w
  1999     04B6  02AC               	subwf	??___fladd+4,f
  2000     04B7  0821               	movf	___fladd@b+1,w
  2001     04B8  1C03               	skipc
  2002     04B9  0F21               	incfsz	___fladd@b+1,w
  2003     04BA  2CBC               	goto	u3521
  2004     04BB  2CBD               	goto	u3522
  2005     04BC                     u3521:
  2006     04BC  02AD               	subwf	??___fladd+5,f
  2007     04BD                     u3522:
  2008     04BD  0822               	movf	___fladd@b+2,w
  2009     04BE  1C03               	skipc
  2010     04BF  0F22               	incfsz	___fladd@b+2,w
  2011     04C0  2CC2               	goto	u3523
  2012     04C1  2CC3               	goto	u3524
  2013     04C2                     u3523:
  2014     04C2  02AE               	subwf	??___fladd+6,f
  2015     04C3                     u3524:
  2016     04C3  0823               	movf	___fladd@b+3,w
  2017     04C4  1C03               	skipc
  2018     04C5  0F23               	incfsz	___fladd@b+3,w
  2019     04C6  2CC8               	goto	u3525
  2020     04C7  2CC9               	goto	u3526
  2021     04C8                     u3525:
  2022     04C8  02AF               	subwf	??___fladd+7,f
  2023     04C9                     u3526:
  2024     04C9  082C               	movf	??___fladd+4,w
  2025     04CA  07A8               	addwf	??___fladd,f
  2026     04CB  082D               	movf	??___fladd+5,w
  2027     04CC  1803               	skipnc
  2028     04CD  0F2D               	incfsz	??___fladd+5,w
  2029     04CE  2CD0               	goto	u3530
  2030     04CF  2CD1               	goto	u3531
  2031     04D0                     u3530:
  2032     04D0  07A9               	addwf	??___fladd+1,f
  2033     04D1                     u3531:
  2034     04D1  082E               	movf	??___fladd+6,w
  2035     04D2  1803               	skipnc
  2036     04D3  0F2E               	incfsz	??___fladd+6,w
  2037     04D4  2CD6               	goto	u3532
  2038     04D5  2CD7               	goto	u3533
  2039     04D6                     u3532:
  2040     04D6  07AA               	addwf	??___fladd+2,f
  2041     04D7                     u3533:
  2042     04D7  082F               	movf	??___fladd+7,w
  2043     04D8  1803               	skipnc
  2044     04D9  0A2F               	incf	??___fladd+7,w
  2045     04DA  07AB               	addwf	??___fladd+3,f
  2046     04DB  082B               	movf	??___fladd+3,w
  2047     04DC  00A3               	movwf	___fladd@b+3
  2048     04DD  082A               	movf	??___fladd+2,w
  2049     04DE  00A2               	movwf	___fladd@b+2
  2050     04DF  0829               	movf	??___fladd+1,w
  2051     04E0  00A1               	movwf	___fladd@b+1
  2052     04E1  0828               	movf	??___fladd,w
  2053     04E2  00A0               	movwf	___fladd@b
  2054     04E3                     l2386:
  2055     04E3  3080               	movlw	128
  2056     04E4  00A8               	movwf	??___fladd
  2057     04E5  0828               	movf	??___fladd,w
  2058     04E6  06F3               	xorwf	___fladd@signs,f
  2059     04E7  09F6               	comf	___fladd@grs,f
  2060     04E8  0AF6               	incf	___fladd@grs,f
  2061     04E9                     l2388:
  2062     04E9  0876               	movf	___fladd@grs,w
  2063     04EA  1D03               	btfss	3,2
  2064     04EB  2CED               	goto	u3541
  2065     04EC  2CEE               	goto	u3540
  2066     04ED                     u3541:
  2067     04ED  2D0B               	goto	l538
  2068     04EE                     u3540:
  2069     04EE                     l2390:
  2070     04EE  3001               	movlw	1
  2071     04EF  07A0               	addwf	___fladd@b,f
  2072     04F0  3000               	movlw	0
  2073     04F1  1803               	skipnc
  2074     04F2  3001               	movlw	1
  2075     04F3  07A1               	addwf	___fladd@b+1,f
  2076     04F4  3000               	movlw	0
  2077     04F5  1803               	skipnc
  2078     04F6  3001               	movlw	1
  2079     04F7  07A2               	addwf	___fladd@b+2,f
  2080     04F8  3000               	movlw	0
  2081     04F9  1803               	skipnc
  2082     04FA  3001               	movlw	1
  2083     04FB  07A3               	addwf	___fladd@b+3,f
  2084     04FC  2D0B               	goto	l538
  2085     04FD                     l2392:
  2086     04FD  0824               	movf	___fladd@a,w
  2087     04FE  02A0               	subwf	___fladd@b,f
  2088     04FF  0825               	movf	___fladd@a+1,w
  2089     0500  1C03               	skipc
  2090     0501  0F25               	incfsz	___fladd@a+1,w
  2091     0502  02A1               	subwf	___fladd@b+1,f
  2092     0503  0826               	movf	___fladd@a+2,w
  2093     0504  1C03               	skipc
  2094     0505  0F26               	incfsz	___fladd@a+2,w
  2095     0506  02A2               	subwf	___fladd@b+2,f
  2096     0507  0827               	movf	___fladd@a+3,w
  2097     0508  1C03               	skipc
  2098     0509  0F27               	incfsz	___fladd@a+3,w
  2099     050A  02A3               	subwf	___fladd@b+3,f
  2100     050B                     l538:
  2101     050B  0823               	movf	___fladd@b+3,w
  2102     050C  0422               	iorwf	___fladd@b+2,w
  2103     050D  0421               	iorwf	___fladd@b+1,w
  2104     050E  0420               	iorwf	___fladd@b,w
  2105     050F  1D03               	skipz
  2106     0510  2D12               	goto	u3551
  2107     0511  2D13               	goto	u3550
  2108     0512                     u3551:
  2109     0512  2D3F               	goto	l2414
  2110     0513                     u3550:
  2111     0513                     l2394:
  2112     0513  0876               	movf	___fladd@grs,w
  2113     0514  1D03               	btfss	3,2
  2114     0515  2D17               	goto	u3561
  2115     0516  2D18               	goto	u3560
  2116     0517                     u3561:
  2117     0517  2D3F               	goto	l2414
  2118     0518                     u3560:
  2119     0518                     l2396:
  2120     0518  3000               	movlw	0
  2121     0519  00A3               	movwf	?___fladd+3
  2122     051A  3000               	movlw	0
  2123     051B  00A2               	movwf	?___fladd+2
  2124     051C  3000               	movlw	0
  2125     051D  00A1               	movwf	?___fladd+1
  2126     051E  3000               	movlw	0
  2127     051F  00A0               	movwf	?___fladd
  2128     0520  2DBB               	goto	l530
  2129     0521                     l2400:
  2130     0521  3001               	movlw	1
  2131     0522  00A8               	movwf	??___fladd
  2132     0523                     u3575:
  2133     0523  1003               	clrc
  2134     0524  0DA0               	rlf	___fladd@b,f
  2135     0525  0DA1               	rlf	___fladd@b+1,f
  2136     0526  0DA2               	rlf	___fladd@b+2,f
  2137     0527  0DA3               	rlf	___fladd@b+3,f
  2138     0528  0BA8               	decfsz	??___fladd,f
  2139     0529  2D23               	goto	u3575
  2140     052A                     l2402:
  2141     052A  1FF6               	btfss	___fladd@grs,7
  2142     052B  2D2D               	goto	u3581
  2143     052C  2D2E               	goto	u3580
  2144     052D                     u3581:
  2145     052D  2D2F               	goto	l542
  2146     052E                     u3580:
  2147     052E                     l2404:
  2148     052E  1420               	bsf	___fladd@b,0
  2149     052F                     l542:
  2150     052F  1C76               	btfss	___fladd@grs,0
  2151     0530  2D32               	goto	u3591
  2152     0531  2D33               	goto	u3590
  2153     0532                     u3591:
  2154     0532  2D36               	goto	l2408
  2155     0533                     u3590:
  2156     0533                     l2406:
  2157     0533  1403               	setc
  2158     0534  0DF6               	rlf	___fladd@grs,f
  2159     0535  2D38               	goto	l2410
  2160     0536                     l2408:
  2161     0536  1003               	clrc
  2162     0537  0DF6               	rlf	___fladd@grs,f
  2163     0538                     l2410:
  2164     0538  0875               	movf	___fladd@bexp,w
  2165     0539  1903               	btfsc	3,2
  2166     053A  2D3C               	goto	u3601
  2167     053B  2D3D               	goto	u3600
  2168     053C                     u3601:
  2169     053C  2D3F               	goto	l2414
  2170     053D                     u3600:
  2171     053D                     l2412:
  2172     053D  3001               	movlw	1
  2173     053E  02F5               	subwf	___fladd@bexp,f
  2174     053F                     l2414:
  2175     053F  1FA2               	btfss	___fladd@b+2,7
  2176     0540  2D42               	goto	u3611
  2177     0541  2D43               	goto	u3610
  2178     0542                     u3611:
  2179     0542  2D21               	goto	l2400
  2180     0543                     u3610:
  2181     0543                     l2416:
  2182     0543  01F4               	clrf	___fladd@aexp
  2183     0544                     l2418:
  2184     0544  1FF6               	btfss	___fladd@grs,7
  2185     0545  2D47               	goto	u3621
  2186     0546  2D48               	goto	u3620
  2187     0547                     u3621:
  2188     0547  2D56               	goto	l2426
  2189     0548                     u3620:
  2190     0548                     l2420:
  2191     0548  0876               	movf	___fladd@grs,w
  2192     0549  397F               	andlw	127
  2193     054A  1903               	btfsc	3,2
  2194     054B  2D4D               	goto	u3631
  2195     054C  2D4E               	goto	u3630
  2196     054D                     u3631:
  2197     054D  2D51               	goto	l548
  2198     054E                     u3630:
  2199     054E                     l2422:
  2200     054E  01F4               	clrf	___fladd@aexp
  2201     054F  0AF4               	incf	___fladd@aexp,f
  2202     0550  2D56               	goto	l2426
  2203     0551                     l548:
  2204     0551  1C20               	btfss	___fladd@b,0
  2205     0552  2D54               	goto	u3641
  2206     0553  2D55               	goto	u3640
  2207     0554                     u3641:
  2208     0554  2D56               	goto	l2426
  2209     0555                     u3640:
  2210     0555  2D4E               	goto	l2422
  2211     0556                     l2426:
  2212     0556  0874               	movf	___fladd@aexp,w
  2213     0557  1903               	btfsc	3,2
  2214     0558  2D5A               	goto	u3651
  2215     0559  2D5B               	goto	u3650
  2216     055A                     u3651:
  2217     055A  2D8F               	goto	l551
  2218     055B                     u3650:
  2219     055B                     l2428:
  2220     055B  3001               	movlw	1
  2221     055C  07A0               	addwf	___fladd@b,f
  2222     055D  3000               	movlw	0
  2223     055E  1803               	skipnc
  2224     055F  3001               	movlw	1
  2225     0560  07A1               	addwf	___fladd@b+1,f
  2226     0561  3000               	movlw	0
  2227     0562  1803               	skipnc
  2228     0563  3001               	movlw	1
  2229     0564  07A2               	addwf	___fladd@b+2,f
  2230     0565  3000               	movlw	0
  2231     0566  1803               	skipnc
  2232     0567  3001               	movlw	1
  2233     0568  07A3               	addwf	___fladd@b+3,f
  2234     0569                     l2430:
  2235     0569  1C23               	btfss	___fladd@b+3,0
  2236     056A  2D6C               	goto	u3661
  2237     056B  2D6D               	goto	u3660
  2238     056C                     u3661:
  2239     056C  2D8F               	goto	l551
  2240     056D                     u3660:
  2241     056D                     l2432:
  2242     056D  0820               	movf	___fladd@b,w
  2243     056E  00A8               	movwf	??___fladd
  2244     056F  0821               	movf	___fladd@b+1,w
  2245     0570  00A9               	movwf	??___fladd+1
  2246     0571  0822               	movf	___fladd@b+2,w
  2247     0572  00AA               	movwf	??___fladd+2
  2248     0573  0823               	movf	___fladd@b+3,w
  2249     0574  00AB               	movwf	??___fladd+3
  2250     0575  3001               	movlw	1
  2251     0576  00AC               	movwf	??___fladd+4
  2252     0577                     u3675:
  2253     0577  0D2B               	rlf	??___fladd+3,w
  2254     0578  0CAB               	rrf	??___fladd+3,f
  2255     0579  0CAA               	rrf	??___fladd+2,f
  2256     057A  0CA9               	rrf	??___fladd+1,f
  2257     057B  0CA8               	rrf	??___fladd,f
  2258     057C                     u3670:
  2259     057C  0BAC               	decfsz	??___fladd+4,f
  2260     057D  2D77               	goto	u3675
  2261     057E  082B               	movf	??___fladd+3,w
  2262     057F  00A3               	movwf	___fladd@b+3
  2263     0580  082A               	movf	??___fladd+2,w
  2264     0581  00A2               	movwf	___fladd@b+2
  2265     0582  0829               	movf	??___fladd+1,w
  2266     0583  00A1               	movwf	___fladd@b+1
  2267     0584  0828               	movf	??___fladd,w
  2268     0585  00A0               	movwf	___fladd@b
  2269     0586  0A75               	incf	___fladd@bexp,w
  2270     0587  1903               	btfsc	3,2
  2271     0588  2D8A               	goto	u3681
  2272     0589  2D8B               	goto	u3680
  2273     058A                     u3681:
  2274     058A  2D8F               	goto	l551
  2275     058B                     u3680:
  2276     058B                     l2434:
  2277     058B  3001               	movlw	1
  2278     058C  00A8               	movwf	??___fladd
  2279     058D  0828               	movf	??___fladd,w
  2280     058E  07F5               	addwf	___fladd@bexp,f
  2281     058F                     l551:
  2282     058F  0A75               	incf	___fladd@bexp,w
  2283     0590  1903               	btfsc	3,2
  2284     0591  2D93               	goto	u3691
  2285     0592  2D94               	goto	u3690
  2286     0593                     u3691:
  2287     0593  2D99               	goto	l2438
  2288     0594                     u3690:
  2289     0594                     l2436:
  2290     0594  0875               	movf	___fladd@bexp,w
  2291     0595  1D03               	btfss	3,2
  2292     0596  2D98               	goto	u3701
  2293     0597  2D99               	goto	u3700
  2294     0598                     u3701:
  2295     0598  2DA7               	goto	l2444
  2296     0599                     u3700:
  2297     0599                     l2438:
  2298     0599  3000               	movlw	0
  2299     059A  00A3               	movwf	___fladd@b+3
  2300     059B  3000               	movlw	0
  2301     059C  00A2               	movwf	___fladd@b+2
  2302     059D  3000               	movlw	0
  2303     059E  00A1               	movwf	___fladd@b+1
  2304     059F  3000               	movlw	0
  2305     05A0  00A0               	movwf	___fladd@b
  2306     05A1                     l2440:
  2307     05A1  0875               	movf	___fladd@bexp,w
  2308     05A2  1D03               	btfss	3,2
  2309     05A3  2DA5               	goto	u3711
  2310     05A4  2DA6               	goto	u3710
  2311     05A5                     u3711:
  2312     05A5  2DA7               	goto	l2444
  2313     05A6                     u3710:
  2314     05A6                     l2442:
  2315     05A6  01F3               	clrf	___fladd@signs
  2316     05A7                     l2444:
  2317     05A7  1C75               	btfss	___fladd@bexp,0
  2318     05A8  2DAA               	goto	u3721
  2319     05A9  2DAB               	goto	u3720
  2320     05AA                     u3721:
  2321     05AA  2DAD               	goto	l2448
  2322     05AB                     u3720:
  2323     05AB                     l2446:
  2324     05AB  17A2               	bsf	___fladd@b+2,7
  2325     05AC  2DB1               	goto	l559
  2326     05AD                     l2448:
  2327     05AD  307F               	movlw	127
  2328     05AE  00A8               	movwf	??___fladd
  2329     05AF  0828               	movf	??___fladd,w
  2330     05B0  05A2               	andwf	___fladd@b+2,f
  2331     05B1                     l559:
  2332     05B1  0875               	movf	___fladd@bexp,w
  2333     05B2  00A8               	movwf	??___fladd
  2334     05B3  1003               	clrc
  2335     05B4  0C28               	rrf	??___fladd,w
  2336     05B5  00A3               	movwf	___fladd@b+3
  2337     05B6                     l2450:
  2338     05B6  1FF3               	btfss	___fladd@signs,7
  2339     05B7  2DB9               	goto	u3731
  2340     05B8  2DBA               	goto	u3730
  2341     05B9                     u3731:
  2342     05B9  2DBB               	goto	l560
  2343     05BA                     u3730:
  2344     05BA                     l2452:
  2345     05BA  17A3               	bsf	___fladd@b+3,7
  2346     05BB                     l560:
  2347     05BB                     l530:
  2348     05BB  0008               	return
  2349     05BC                     __end_of___fladd:
  2350                           
  2351                           	psect	text5
  2352     0017                     __ptext5:	
  2353 ;; *************** function ___flmul *****************
  2354 ;; Defined at:
  2355 ;;		line 8 in file "C:\Program Files\Microchip\xc8\v2.40\pic\sources\c90\common\sprcmul.c"
  2356 ;; Parameters:    Size  Location     Type
  2357 ;;  b               4   24[BANK0 ] unsigned char 
  2358 ;;  a               4   28[BANK0 ] unsigned char 
  2359 ;; Auto vars:     Size  Location     Type
  2360 ;;  prod            4   44[BANK0 ] struct .
  2361 ;;  grs             4   38[BANK0 ] unsigned long 
  2362 ;;  temp            2   48[BANK0 ] struct .
  2363 ;;  bexp            1   43[BANK0 ] unsigned char 
  2364 ;;  aexp            1   42[BANK0 ] unsigned char 
  2365 ;;  sign            1   37[BANK0 ] unsigned char 
  2366 ;; Return value:  Size  Location     Type
  2367 ;;                  4   24[BANK0 ] unsigned char 
  2368 ;; Registers used:
  2369 ;;		wreg, status,2, status,0, btemp+1, pclath, cstack
  2370 ;; Tracked objects:
  2371 ;;		On entry : 0/0
  2372 ;;		On exit  : 0/0
  2373 ;;		Unchanged: 0/0
  2374 ;; Data sizes:     COMMON   BANK0   BANK1   BANK3   BANK2
  2375 ;;      Params:         0       8       0       0       0
  2376 ;;      Locals:         0      13       0       0       0
  2377 ;;      Temps:          0       5       0       0       0
  2378 ;;      Totals:         0      26       0       0       0
  2379 ;;Total ram usage:       26 bytes
  2380 ;; Hardware stack levels used: 1
  2381 ;; Hardware stack levels required when called: 2
  2382 ;; This function calls:
  2383 ;;		__Umul8_16
  2384 ;; This function is called by:
  2385 ;;		_main
  2386 ;; This function uses a non-reentrant model
  2387 ;;
  2388                           
  2389     0017                     ___flmul:	
  2390                           ;psect for function ___flmul
  2391                           
  2392     0017                     l1994:	
  2393                           ;incstack = 0
  2394                           ; Regs used in ___flmul: [wreg+status,2+status,0+btemp+1+pclath+cstack]
  2395                           
  2396     0017  1283               	bcf	3,5	;RP0=0, select bank0
  2397     0018  1303               	bcf	3,6	;RP1=0, select bank0
  2398     0019  083B               	movf	___flmul@b+3,w
  2399     001A  3980               	andlw	128
  2400     001B  00C5               	movwf	___flmul@sign
  2401     001C                     l1996:
  2402     001C  083B               	movf	___flmul@b+3,w
  2403     001D  00C0               	movwf	??___flmul
  2404     001E  0740               	addwf	??___flmul,w
  2405     001F  00CB               	movwf	___flmul@bexp
  2406     0020                     l1998:
  2407     0020  1FBA               	btfss	___flmul@b+2,7
  2408     0021  2823               	goto	u2651
  2409     0022  2824               	goto	u2650
  2410     0023                     u2651:
  2411     0023  2825               	goto	l2002
  2412     0024                     u2650:
  2413     0024                     l2000:
  2414     0024  144B               	bsf	___flmul@bexp,0
  2415     0025                     l2002:
  2416     0025  084B               	movf	___flmul@bexp,w
  2417     0026  1903               	btfsc	3,2
  2418     0027  2829               	goto	u2661
  2419     0028  282A               	goto	u2660
  2420     0029                     u2661:
  2421     0029  2839               	goto	l2010
  2422     002A                     u2660:
  2423     002A                     l2004:
  2424     002A  0A4B               	incf	___flmul@bexp,w
  2425     002B  1D03               	btfss	3,2
  2426     002C  282E               	goto	u2671
  2427     002D  282F               	goto	u2670
  2428     002E                     u2671:
  2429     002E  2837               	goto	l2008
  2430     002F                     u2670:
  2431     002F                     l2006:
  2432     002F  3000               	movlw	0
  2433     0030  00BB               	movwf	___flmul@b+3
  2434     0031  3000               	movlw	0
  2435     0032  00BA               	movwf	___flmul@b+2
  2436     0033  3000               	movlw	0
  2437     0034  00B9               	movwf	___flmul@b+1
  2438     0035  3000               	movlw	0
  2439     0036  00B8               	movwf	___flmul@b
  2440     0037                     l2008:
  2441     0037  17BA               	bsf	___flmul@b+2,7
  2442     0038  2841               	goto	l2012
  2443     0039                     l2010:
  2444     0039  3000               	movlw	0
  2445     003A  00BB               	movwf	___flmul@b+3
  2446     003B  3000               	movlw	0
  2447     003C  00BA               	movwf	___flmul@b+2
  2448     003D  3000               	movlw	0
  2449     003E  00B9               	movwf	___flmul@b+1
  2450     003F  3000               	movlw	0
  2451     0040  00B8               	movwf	___flmul@b
  2452     0041                     l2012:
  2453     0041  083F               	movf	___flmul@a+3,w
  2454     0042  3980               	andlw	128
  2455     0043  00C0               	movwf	??___flmul
  2456     0044  0840               	movf	??___flmul,w
  2457     0045  06C5               	xorwf	___flmul@sign,f
  2458     0046                     l2014:
  2459     0046  083F               	movf	___flmul@a+3,w
  2460     0047  00C0               	movwf	??___flmul
  2461     0048  0740               	addwf	??___flmul,w
  2462     0049  00CA               	movwf	___flmul@aexp
  2463     004A                     l2016:
  2464     004A  1FBE               	btfss	___flmul@a+2,7
  2465     004B  284D               	goto	u2681
  2466     004C  284E               	goto	u2680
  2467     004D                     u2681:
  2468     004D  284F               	goto	l2020
  2469     004E                     u2680:
  2470     004E                     l2018:
  2471     004E  144A               	bsf	___flmul@aexp,0
  2472     004F                     l2020:
  2473     004F  084A               	movf	___flmul@aexp,w
  2474     0050  1903               	btfsc	3,2
  2475     0051  2853               	goto	u2691
  2476     0052  2854               	goto	u2690
  2477     0053                     u2691:
  2478     0053  2863               	goto	l2028
  2479     0054                     u2690:
  2480     0054                     l2022:
  2481     0054  0A4A               	incf	___flmul@aexp,w
  2482     0055  1D03               	btfss	3,2
  2483     0056  2858               	goto	u2701
  2484     0057  2859               	goto	u2700
  2485     0058                     u2701:
  2486     0058  2861               	goto	l2026
  2487     0059                     u2700:
  2488     0059                     l2024:
  2489     0059  3000               	movlw	0
  2490     005A  00BF               	movwf	___flmul@a+3
  2491     005B  3000               	movlw	0
  2492     005C  00BE               	movwf	___flmul@a+2
  2493     005D  3000               	movlw	0
  2494     005E  00BD               	movwf	___flmul@a+1
  2495     005F  3000               	movlw	0
  2496     0060  00BC               	movwf	___flmul@a
  2497     0061                     l2026:
  2498     0061  17BE               	bsf	___flmul@a+2,7
  2499     0062  286B               	goto	l2030
  2500     0063                     l2028:
  2501     0063  3000               	movlw	0
  2502     0064  00BF               	movwf	___flmul@a+3
  2503     0065  3000               	movlw	0
  2504     0066  00BE               	movwf	___flmul@a+2
  2505     0067  3000               	movlw	0
  2506     0068  00BD               	movwf	___flmul@a+1
  2507     0069  3000               	movlw	0
  2508     006A  00BC               	movwf	___flmul@a
  2509     006B                     l2030:
  2510     006B  084A               	movf	___flmul@aexp,w
  2511     006C  1903               	btfsc	3,2
  2512     006D  286F               	goto	u2711
  2513     006E  2870               	goto	u2710
  2514     006F                     u2711:
  2515     006F  2875               	goto	l2034
  2516     0070                     u2710:
  2517     0070                     l2032:
  2518     0070  084B               	movf	___flmul@bexp,w
  2519     0071  1D03               	btfss	3,2
  2520     0072  2874               	goto	u2721
  2521     0073  2875               	goto	u2720
  2522     0074                     u2721:
  2523     0074  287E               	goto	l2038
  2524     0075                     u2720:
  2525     0075                     l2034:
  2526     0075  3000               	movlw	0
  2527     0076  00BB               	movwf	?___flmul+3
  2528     0077  3000               	movlw	0
  2529     0078  00BA               	movwf	?___flmul+2
  2530     0079  3000               	movlw	0
  2531     007A  00B9               	movwf	?___flmul+1
  2532     007B  3000               	movlw	0
  2533     007C  00B8               	movwf	?___flmul
  2534     007D  2B5B               	goto	l613
  2535     007E                     l2038:
  2536     007E  0838               	movf	___flmul@b,w
  2537     007F  00F3               	movwf	__Umul8_16@multiplicand
  2538     0080  083E               	movf	___flmul@a+2,w
  2539     0081  120A  158A  2478  120A  118A  	fcall	__Umul8_16
  2540     0086  0874               	movf	?__Umul8_16+1,w
  2541     0087  1283               	bcf	3,5	;RP0=0, select bank0
  2542     0088  1303               	bcf	3,6	;RP1=0, select bank0
  2543     0089  00D1               	movwf	___flmul@temp+1
  2544     008A  0873               	movf	?__Umul8_16,w
  2545     008B  00D0               	movwf	___flmul@temp
  2546     008C                     l2040:
  2547     008C  0850               	movf	___flmul@temp,w
  2548     008D  00C0               	movwf	??___flmul
  2549     008E  01C1               	clrf	??___flmul+1
  2550     008F  01C2               	clrf	??___flmul+2
  2551     0090  01C3               	clrf	??___flmul+3
  2552     0091  0843               	movf	??___flmul+3,w
  2553     0092  00C9               	movwf	___flmul@grs+3
  2554     0093  0842               	movf	??___flmul+2,w
  2555     0094  00C8               	movwf	___flmul@grs+2
  2556     0095  0841               	movf	??___flmul+1,w
  2557     0096  00C7               	movwf	___flmul@grs+1
  2558     0097  0840               	movf	??___flmul,w
  2559     0098  00C6               	movwf	___flmul@grs
  2560     0099                     l2042:
  2561     0099  0851               	movf	___flmul@temp+1,w
  2562     009A  00C0               	movwf	??___flmul
  2563     009B  01C1               	clrf	??___flmul+1
  2564     009C  01C2               	clrf	??___flmul+2
  2565     009D  01C3               	clrf	??___flmul+3
  2566     009E  0843               	movf	??___flmul+3,w
  2567     009F  00CF               	movwf	___flmul@prod+3
  2568     00A0  0842               	movf	??___flmul+2,w
  2569     00A1  00CE               	movwf	___flmul@prod+2
  2570     00A2  0841               	movf	??___flmul+1,w
  2571     00A3  00CD               	movwf	___flmul@prod+1
  2572     00A4  0840               	movf	??___flmul,w
  2573     00A5  00CC               	movwf	___flmul@prod
  2574     00A6  0839               	movf	___flmul@b+1,w
  2575     00A7  00F3               	movwf	__Umul8_16@multiplicand
  2576     00A8  083D               	movf	___flmul@a+1,w
  2577     00A9  120A  158A  2478  120A  118A  	fcall	__Umul8_16
  2578     00AE  0874               	movf	?__Umul8_16+1,w
  2579     00AF  1283               	bcf	3,5	;RP0=0, select bank0
  2580     00B0  1303               	bcf	3,6	;RP1=0, select bank0
  2581     00B1  00D1               	movwf	___flmul@temp+1
  2582     00B2  0873               	movf	?__Umul8_16,w
  2583     00B3  00D0               	movwf	___flmul@temp
  2584     00B4                     l2044:
  2585     00B4  0850               	movf	___flmul@temp,w
  2586     00B5  00C0               	movwf	??___flmul
  2587     00B6  01C1               	clrf	??___flmul+1
  2588     00B7  01C2               	clrf	??___flmul+2
  2589     00B8  01C3               	clrf	??___flmul+3
  2590     00B9  0840               	movf	??___flmul,w
  2591     00BA  07C6               	addwf	___flmul@grs,f
  2592     00BB  0841               	movf	??___flmul+1,w
  2593     00BC  1103               	clrz
  2594     00BD  1803               	skipnc
  2595     00BE  3E01               	addlw	1
  2596     00BF  1903               	skipnz
  2597     00C0  28C2               	goto	u2731
  2598     00C1  07C7               	addwf	___flmul@grs+1,f
  2599     00C2                     u2731:
  2600     00C2  0842               	movf	??___flmul+2,w
  2601     00C3  1103               	clrz
  2602     00C4  1803               	skipnc
  2603     00C5  3E01               	addlw	1
  2604     00C6  1903               	skipnz
  2605     00C7  28C9               	goto	u2732
  2606     00C8  07C8               	addwf	___flmul@grs+2,f
  2607     00C9                     u2732:
  2608     00C9  0843               	movf	??___flmul+3,w
  2609     00CA  1103               	clrz
  2610     00CB  1803               	skipnc
  2611     00CC  3E01               	addlw	1
  2612     00CD  1903               	skipnz
  2613     00CE  28D0               	goto	u2733
  2614     00CF  07C9               	addwf	___flmul@grs+3,f
  2615     00D0                     u2733:
  2616     00D0                     l2046:
  2617     00D0  0851               	movf	___flmul@temp+1,w
  2618     00D1  00C0               	movwf	??___flmul
  2619     00D2  01C1               	clrf	??___flmul+1
  2620     00D3  01C2               	clrf	??___flmul+2
  2621     00D4  01C3               	clrf	??___flmul+3
  2622     00D5  0840               	movf	??___flmul,w
  2623     00D6  07CC               	addwf	___flmul@prod,f
  2624     00D7  0841               	movf	??___flmul+1,w
  2625     00D8  1103               	clrz
  2626     00D9  1803               	skipnc
  2627     00DA  3E01               	addlw	1
  2628     00DB  1903               	skipnz
  2629     00DC  28DE               	goto	u2741
  2630     00DD  07CD               	addwf	___flmul@prod+1,f
  2631     00DE                     u2741:
  2632     00DE  0842               	movf	??___flmul+2,w
  2633     00DF  1103               	clrz
  2634     00E0  1803               	skipnc
  2635     00E1  3E01               	addlw	1
  2636     00E2  1903               	skipnz
  2637     00E3  28E5               	goto	u2742
  2638     00E4  07CE               	addwf	___flmul@prod+2,f
  2639     00E5                     u2742:
  2640     00E5  0843               	movf	??___flmul+3,w
  2641     00E6  1103               	clrz
  2642     00E7  1803               	skipnc
  2643     00E8  3E01               	addlw	1
  2644     00E9  1903               	skipnz
  2645     00EA  28EC               	goto	u2743
  2646     00EB  07CF               	addwf	___flmul@prod+3,f
  2647     00EC                     u2743:
  2648     00EC  083A               	movf	___flmul@b+2,w
  2649     00ED  00F3               	movwf	__Umul8_16@multiplicand
  2650     00EE  083C               	movf	___flmul@a,w
  2651     00EF  120A  158A  2478  120A  118A  	fcall	__Umul8_16
  2652     00F4  0874               	movf	?__Umul8_16+1,w
  2653     00F5  1283               	bcf	3,5	;RP0=0, select bank0
  2654     00F6  1303               	bcf	3,6	;RP1=0, select bank0
  2655     00F7  00D1               	movwf	___flmul@temp+1
  2656     00F8  0873               	movf	?__Umul8_16,w
  2657     00F9  00D0               	movwf	___flmul@temp
  2658     00FA                     l2048:
  2659     00FA  0850               	movf	___flmul@temp,w
  2660     00FB  00C0               	movwf	??___flmul
  2661     00FC  01C1               	clrf	??___flmul+1
  2662     00FD  01C2               	clrf	??___flmul+2
  2663     00FE  01C3               	clrf	??___flmul+3
  2664     00FF  0840               	movf	??___flmul,w
  2665     0100  07C6               	addwf	___flmul@grs,f
  2666     0101  0841               	movf	??___flmul+1,w
  2667     0102  1103               	clrz
  2668     0103  1803               	skipnc
  2669     0104  3E01               	addlw	1
  2670     0105  1903               	skipnz
  2671     0106  2908               	goto	u2751
  2672     0107  07C7               	addwf	___flmul@grs+1,f
  2673     0108                     u2751:
  2674     0108  0842               	movf	??___flmul+2,w
  2675     0109  1103               	clrz
  2676     010A  1803               	skipnc
  2677     010B  3E01               	addlw	1
  2678     010C  1903               	skipnz
  2679     010D  290F               	goto	u2752
  2680     010E  07C8               	addwf	___flmul@grs+2,f
  2681     010F                     u2752:
  2682     010F  0843               	movf	??___flmul+3,w
  2683     0110  1103               	clrz
  2684     0111  1803               	skipnc
  2685     0112  3E01               	addlw	1
  2686     0113  1903               	skipnz
  2687     0114  2916               	goto	u2753
  2688     0115  07C9               	addwf	___flmul@grs+3,f
  2689     0116                     u2753:
  2690     0116                     l2050:
  2691     0116  0851               	movf	___flmul@temp+1,w
  2692     0117  00C0               	movwf	??___flmul
  2693     0118  01C1               	clrf	??___flmul+1
  2694     0119  01C2               	clrf	??___flmul+2
  2695     011A  01C3               	clrf	??___flmul+3
  2696     011B  0840               	movf	??___flmul,w
  2697     011C  07CC               	addwf	___flmul@prod,f
  2698     011D  0841               	movf	??___flmul+1,w
  2699     011E  1103               	clrz
  2700     011F  1803               	skipnc
  2701     0120  3E01               	addlw	1
  2702     0121  1903               	skipnz
  2703     0122  2924               	goto	u2761
  2704     0123  07CD               	addwf	___flmul@prod+1,f
  2705     0124                     u2761:
  2706     0124  0842               	movf	??___flmul+2,w
  2707     0125  1103               	clrz
  2708     0126  1803               	skipnc
  2709     0127  3E01               	addlw	1
  2710     0128  1903               	skipnz
  2711     0129  292B               	goto	u2762
  2712     012A  07CE               	addwf	___flmul@prod+2,f
  2713     012B                     u2762:
  2714     012B  0843               	movf	??___flmul+3,w
  2715     012C  1103               	clrz
  2716     012D  1803               	skipnc
  2717     012E  3E01               	addlw	1
  2718     012F  1903               	skipnz
  2719     0130  2932               	goto	u2763
  2720     0131  07CF               	addwf	___flmul@prod+3,f
  2721     0132                     u2763:
  2722     0132                     l2052:
  2723     0132  3008               	movlw	8
  2724     0133  00C0               	movwf	??___flmul
  2725     0134                     u2775:
  2726     0134  1003               	clrc
  2727     0135  0DC6               	rlf	___flmul@grs,f
  2728     0136  0DC7               	rlf	___flmul@grs+1,f
  2729     0137  0DC8               	rlf	___flmul@grs+2,f
  2730     0138  0DC9               	rlf	___flmul@grs+3,f
  2731     0139  0BC0               	decfsz	??___flmul,f
  2732     013A  2934               	goto	u2775
  2733     013B                     l2054:
  2734     013B  0839               	movf	___flmul@b+1,w
  2735     013C  00F3               	movwf	__Umul8_16@multiplicand
  2736     013D  083C               	movf	___flmul@a,w
  2737     013E  120A  158A  2478  120A  118A  	fcall	__Umul8_16
  2738     0143  0874               	movf	?__Umul8_16+1,w
  2739     0144  1283               	bcf	3,5	;RP0=0, select bank0
  2740     0145  1303               	bcf	3,6	;RP1=0, select bank0
  2741     0146  00D1               	movwf	___flmul@temp+1
  2742     0147  0873               	movf	?__Umul8_16,w
  2743     0148  00D0               	movwf	___flmul@temp
  2744     0149                     l2056:
  2745     0149  0850               	movf	___flmul@temp,w
  2746     014A  00C0               	movwf	??___flmul
  2747     014B  0851               	movf	___flmul@temp+1,w
  2748     014C  00C1               	movwf	??___flmul+1
  2749     014D  01C2               	clrf	??___flmul+2
  2750     014E  01C3               	clrf	??___flmul+3
  2751     014F  0840               	movf	??___flmul,w
  2752     0150  07C6               	addwf	___flmul@grs,f
  2753     0151  0841               	movf	??___flmul+1,w
  2754     0152  1103               	clrz
  2755     0153  1803               	skipnc
  2756     0154  3E01               	addlw	1
  2757     0155  1903               	skipnz
  2758     0156  2958               	goto	u2781
  2759     0157  07C7               	addwf	___flmul@grs+1,f
  2760     0158                     u2781:
  2761     0158  0842               	movf	??___flmul+2,w
  2762     0159  1103               	clrz
  2763     015A  1803               	skipnc
  2764     015B  3E01               	addlw	1
  2765     015C  1903               	skipnz
  2766     015D  295F               	goto	u2782
  2767     015E  07C8               	addwf	___flmul@grs+2,f
  2768     015F                     u2782:
  2769     015F  0843               	movf	??___flmul+3,w
  2770     0160  1103               	clrz
  2771     0161  1803               	skipnc
  2772     0162  3E01               	addlw	1
  2773     0163  1903               	skipnz
  2774     0164  2966               	goto	u2783
  2775     0165  07C9               	addwf	___flmul@grs+3,f
  2776     0166                     u2783:
  2777     0166                     l2058:
  2778     0166  0838               	movf	___flmul@b,w
  2779     0167  00F3               	movwf	__Umul8_16@multiplicand
  2780     0168  083D               	movf	___flmul@a+1,w
  2781     0169  120A  158A  2478  120A  118A  	fcall	__Umul8_16
  2782     016E  0874               	movf	?__Umul8_16+1,w
  2783     016F  1283               	bcf	3,5	;RP0=0, select bank0
  2784     0170  1303               	bcf	3,6	;RP1=0, select bank0
  2785     0171  00D1               	movwf	___flmul@temp+1
  2786     0172  0873               	movf	?__Umul8_16,w
  2787     0173  00D0               	movwf	___flmul@temp
  2788     0174                     l2060:
  2789     0174  0850               	movf	___flmul@temp,w
  2790     0175  00C0               	movwf	??___flmul
  2791     0176  0851               	movf	___flmul@temp+1,w
  2792     0177  00C1               	movwf	??___flmul+1
  2793     0178  01C2               	clrf	??___flmul+2
  2794     0179  01C3               	clrf	??___flmul+3
  2795     017A  0840               	movf	??___flmul,w
  2796     017B  07C6               	addwf	___flmul@grs,f
  2797     017C  0841               	movf	??___flmul+1,w
  2798     017D  1103               	clrz
  2799     017E  1803               	skipnc
  2800     017F  3E01               	addlw	1
  2801     0180  1903               	skipnz
  2802     0181  2983               	goto	u2791
  2803     0182  07C7               	addwf	___flmul@grs+1,f
  2804     0183                     u2791:
  2805     0183  0842               	movf	??___flmul+2,w
  2806     0184  1103               	clrz
  2807     0185  1803               	skipnc
  2808     0186  3E01               	addlw	1
  2809     0187  1903               	skipnz
  2810     0188  298A               	goto	u2792
  2811     0189  07C8               	addwf	___flmul@grs+2,f
  2812     018A                     u2792:
  2813     018A  0843               	movf	??___flmul+3,w
  2814     018B  1103               	clrz
  2815     018C  1803               	skipnc
  2816     018D  3E01               	addlw	1
  2817     018E  1903               	skipnz
  2818     018F  2991               	goto	u2793
  2819     0190  07C9               	addwf	___flmul@grs+3,f
  2820     0191                     u2793:
  2821     0191                     l2062:
  2822     0191  3008               	movlw	8
  2823     0192  00C0               	movwf	??___flmul
  2824     0193                     u2805:
  2825     0193  1003               	clrc
  2826     0194  0DC6               	rlf	___flmul@grs,f
  2827     0195  0DC7               	rlf	___flmul@grs+1,f
  2828     0196  0DC8               	rlf	___flmul@grs+2,f
  2829     0197  0DC9               	rlf	___flmul@grs+3,f
  2830     0198  0BC0               	decfsz	??___flmul,f
  2831     0199  2993               	goto	u2805
  2832     019A  0838               	movf	___flmul@b,w
  2833     019B  00F3               	movwf	__Umul8_16@multiplicand
  2834     019C  083C               	movf	___flmul@a,w
  2835     019D  120A  158A  2478  120A  118A  	fcall	__Umul8_16
  2836     01A2  0874               	movf	?__Umul8_16+1,w
  2837     01A3  1283               	bcf	3,5	;RP0=0, select bank0
  2838     01A4  1303               	bcf	3,6	;RP1=0, select bank0
  2839     01A5  00D1               	movwf	___flmul@temp+1
  2840     01A6  0873               	movf	?__Umul8_16,w
  2841     01A7  00D0               	movwf	___flmul@temp
  2842     01A8                     l2064:
  2843     01A8  0850               	movf	___flmul@temp,w
  2844     01A9  00C0               	movwf	??___flmul
  2845     01AA  0851               	movf	___flmul@temp+1,w
  2846     01AB  00C1               	movwf	??___flmul+1
  2847     01AC  01C2               	clrf	??___flmul+2
  2848     01AD  01C3               	clrf	??___flmul+3
  2849     01AE  0840               	movf	??___flmul,w
  2850     01AF  07C6               	addwf	___flmul@grs,f
  2851     01B0  0841               	movf	??___flmul+1,w
  2852     01B1  1103               	clrz
  2853     01B2  1803               	skipnc
  2854     01B3  3E01               	addlw	1
  2855     01B4  1903               	skipnz
  2856     01B5  29B7               	goto	u2811
  2857     01B6  07C7               	addwf	___flmul@grs+1,f
  2858     01B7                     u2811:
  2859     01B7  0842               	movf	??___flmul+2,w
  2860     01B8  1103               	clrz
  2861     01B9  1803               	skipnc
  2862     01BA  3E01               	addlw	1
  2863     01BB  1903               	skipnz
  2864     01BC  29BE               	goto	u2812
  2865     01BD  07C8               	addwf	___flmul@grs+2,f
  2866     01BE                     u2812:
  2867     01BE  0843               	movf	??___flmul+3,w
  2868     01BF  1103               	clrz
  2869     01C0  1803               	skipnc
  2870     01C1  3E01               	addlw	1
  2871     01C2  1903               	skipnz
  2872     01C3  29C5               	goto	u2813
  2873     01C4  07C9               	addwf	___flmul@grs+3,f
  2874     01C5                     u2813:
  2875     01C5                     l2066:
  2876     01C5  0839               	movf	___flmul@b+1,w
  2877     01C6  00F3               	movwf	__Umul8_16@multiplicand
  2878     01C7  083E               	movf	___flmul@a+2,w
  2879     01C8  120A  158A  2478  120A  118A  	fcall	__Umul8_16
  2880     01CD  0874               	movf	?__Umul8_16+1,w
  2881     01CE  1283               	bcf	3,5	;RP0=0, select bank0
  2882     01CF  1303               	bcf	3,6	;RP1=0, select bank0
  2883     01D0  00D1               	movwf	___flmul@temp+1
  2884     01D1  0873               	movf	?__Umul8_16,w
  2885     01D2  00D0               	movwf	___flmul@temp
  2886     01D3  0850               	movf	___flmul@temp,w
  2887     01D4  00C0               	movwf	??___flmul
  2888     01D5  0851               	movf	___flmul@temp+1,w
  2889     01D6  00C1               	movwf	??___flmul+1
  2890     01D7  01C2               	clrf	??___flmul+2
  2891     01D8  01C3               	clrf	??___flmul+3
  2892     01D9  0840               	movf	??___flmul,w
  2893     01DA  07CC               	addwf	___flmul@prod,f
  2894     01DB  0841               	movf	??___flmul+1,w
  2895     01DC  1103               	clrz
  2896     01DD  1803               	skipnc
  2897     01DE  3E01               	addlw	1
  2898     01DF  1903               	skipnz
  2899     01E0  29E2               	goto	u2821
  2900     01E1  07CD               	addwf	___flmul@prod+1,f
  2901     01E2                     u2821:
  2902     01E2  0842               	movf	??___flmul+2,w
  2903     01E3  1103               	clrz
  2904     01E4  1803               	skipnc
  2905     01E5  3E01               	addlw	1
  2906     01E6  1903               	skipnz
  2907     01E7  29E9               	goto	u2822
  2908     01E8  07CE               	addwf	___flmul@prod+2,f
  2909     01E9                     u2822:
  2910     01E9  0843               	movf	??___flmul+3,w
  2911     01EA  1103               	clrz
  2912     01EB  1803               	skipnc
  2913     01EC  3E01               	addlw	1
  2914     01ED  1903               	skipnz
  2915     01EE  29F0               	goto	u2823
  2916     01EF  07CF               	addwf	___flmul@prod+3,f
  2917     01F0                     u2823:
  2918     01F0                     l2068:
  2919     01F0  083A               	movf	___flmul@b+2,w
  2920     01F1  00F3               	movwf	__Umul8_16@multiplicand
  2921     01F2  083D               	movf	___flmul@a+1,w
  2922     01F3  120A  158A  2478  120A  118A  	fcall	__Umul8_16
  2923     01F8  0874               	movf	?__Umul8_16+1,w
  2924     01F9  1283               	bcf	3,5	;RP0=0, select bank0
  2925     01FA  1303               	bcf	3,6	;RP1=0, select bank0
  2926     01FB  00D1               	movwf	___flmul@temp+1
  2927     01FC  0873               	movf	?__Umul8_16,w
  2928     01FD  00D0               	movwf	___flmul@temp
  2929     01FE                     l2070:
  2930     01FE  0850               	movf	___flmul@temp,w
  2931     01FF  00C0               	movwf	??___flmul
  2932     0200  0851               	movf	___flmul@temp+1,w
  2933     0201  00C1               	movwf	??___flmul+1
  2934     0202  01C2               	clrf	??___flmul+2
  2935     0203  01C3               	clrf	??___flmul+3
  2936     0204  0840               	movf	??___flmul,w
  2937     0205  07CC               	addwf	___flmul@prod,f
  2938     0206  0841               	movf	??___flmul+1,w
  2939     0207  1103               	clrz
  2940     0208  1803               	skipnc
  2941     0209  3E01               	addlw	1
  2942     020A  1903               	skipnz
  2943     020B  2A0D               	goto	u2831
  2944     020C  07CD               	addwf	___flmul@prod+1,f
  2945     020D                     u2831:
  2946     020D  0842               	movf	??___flmul+2,w
  2947     020E  1103               	clrz
  2948     020F  1803               	skipnc
  2949     0210  3E01               	addlw	1
  2950     0211  1903               	skipnz
  2951     0212  2A14               	goto	u2832
  2952     0213  07CE               	addwf	___flmul@prod+2,f
  2953     0214                     u2832:
  2954     0214  0843               	movf	??___flmul+3,w
  2955     0215  1103               	clrz
  2956     0216  1803               	skipnc
  2957     0217  3E01               	addlw	1
  2958     0218  1903               	skipnz
  2959     0219  2A1B               	goto	u2833
  2960     021A  07CF               	addwf	___flmul@prod+3,f
  2961     021B                     u2833:
  2962     021B  083A               	movf	___flmul@b+2,w
  2963     021C  00F3               	movwf	__Umul8_16@multiplicand
  2964     021D  083E               	movf	___flmul@a+2,w
  2965     021E  120A  158A  2478  120A  118A  	fcall	__Umul8_16
  2966     0223  0874               	movf	?__Umul8_16+1,w
  2967     0224  1283               	bcf	3,5	;RP0=0, select bank0
  2968     0225  1303               	bcf	3,6	;RP1=0, select bank0
  2969     0226  00D1               	movwf	___flmul@temp+1
  2970     0227  0873               	movf	?__Umul8_16,w
  2971     0228  00D0               	movwf	___flmul@temp
  2972     0229                     l2072:
  2973     0229  0850               	movf	___flmul@temp,w
  2974     022A  00C0               	movwf	??___flmul
  2975     022B  0851               	movf	___flmul@temp+1,w
  2976     022C  00C1               	movwf	??___flmul+1
  2977     022D  01C2               	clrf	??___flmul+2
  2978     022E  01C3               	clrf	??___flmul+3
  2979     022F  3008               	movlw	8
  2980     0230                     u2845:
  2981     0230  1003               	clrc
  2982     0231  0DC0               	rlf	??___flmul,f
  2983     0232  0DC1               	rlf	??___flmul+1,f
  2984     0233  0DC2               	rlf	??___flmul+2,f
  2985     0234  0DC3               	rlf	??___flmul+3,f
  2986     0235                     u2840:
  2987     0235  3EFF               	addlw	-1
  2988     0236  1D03               	skipz
  2989     0237  2A30               	goto	u2845
  2990     0238  0840               	movf	??___flmul,w
  2991     0239  07CC               	addwf	___flmul@prod,f
  2992     023A  0841               	movf	??___flmul+1,w
  2993     023B  1103               	clrz
  2994     023C  1803               	skipnc
  2995     023D  3E01               	addlw	1
  2996     023E  1903               	skipnz
  2997     023F  2A41               	goto	u2851
  2998     0240  07CD               	addwf	___flmul@prod+1,f
  2999     0241                     u2851:
  3000     0241  0842               	movf	??___flmul+2,w
  3001     0242  1103               	clrz
  3002     0243  1803               	skipnc
  3003     0244  3E01               	addlw	1
  3004     0245  1903               	skipnz
  3005     0246  2A48               	goto	u2852
  3006     0247  07CE               	addwf	___flmul@prod+2,f
  3007     0248                     u2852:
  3008     0248  0843               	movf	??___flmul+3,w
  3009     0249  1103               	clrz
  3010     024A  1803               	skipnc
  3011     024B  3E01               	addlw	1
  3012     024C  1903               	skipnz
  3013     024D  2A4F               	goto	u2853
  3014     024E  07CF               	addwf	___flmul@prod+3,f
  3015     024F                     u2853:
  3016     024F                     l2074:
  3017     024F  0846               	movf	___flmul@grs,w
  3018     0250  00C0               	movwf	??___flmul
  3019     0251  0847               	movf	___flmul@grs+1,w
  3020     0252  00C1               	movwf	??___flmul+1
  3021     0253  0848               	movf	___flmul@grs+2,w
  3022     0254  00C2               	movwf	??___flmul+2
  3023     0255  0849               	movf	___flmul@grs+3,w
  3024     0256  00C3               	movwf	??___flmul+3
  3025     0257  3018               	movlw	24
  3026     0258                     u2865:
  3027     0258  1003               	clrc
  3028     0259  0CC3               	rrf	??___flmul+3,f
  3029     025A  0CC2               	rrf	??___flmul+2,f
  3030     025B  0CC1               	rrf	??___flmul+1,f
  3031     025C  0CC0               	rrf	??___flmul,f
  3032     025D                     u2860:
  3033     025D  3EFF               	addlw	-1
  3034     025E  1D03               	skipz
  3035     025F  2A58               	goto	u2865
  3036     0260  0840               	movf	??___flmul,w
  3037     0261  07CC               	addwf	___flmul@prod,f
  3038     0262  0841               	movf	??___flmul+1,w
  3039     0263  1103               	clrz
  3040     0264  1803               	skipnc
  3041     0265  3E01               	addlw	1
  3042     0266  1903               	skipnz
  3043     0267  2A69               	goto	u2871
  3044     0268  07CD               	addwf	___flmul@prod+1,f
  3045     0269                     u2871:
  3046     0269  0842               	movf	??___flmul+2,w
  3047     026A  1103               	clrz
  3048     026B  1803               	skipnc
  3049     026C  3E01               	addlw	1
  3050     026D  1903               	skipnz
  3051     026E  2A70               	goto	u2872
  3052     026F  07CE               	addwf	___flmul@prod+2,f
  3053     0270                     u2872:
  3054     0270  0843               	movf	??___flmul+3,w
  3055     0271  1103               	clrz
  3056     0272  1803               	skipnc
  3057     0273  3E01               	addlw	1
  3058     0274  1903               	skipnz
  3059     0275  2A77               	goto	u2873
  3060     0276  07CF               	addwf	___flmul@prod+3,f
  3061     0277                     u2873:
  3062     0277                     l2076:
  3063     0277  3008               	movlw	8
  3064     0278  00C0               	movwf	??___flmul
  3065     0279                     u2885:
  3066     0279  1003               	clrc
  3067     027A  0DC6               	rlf	___flmul@grs,f
  3068     027B  0DC7               	rlf	___flmul@grs+1,f
  3069     027C  0DC8               	rlf	___flmul@grs+2,f
  3070     027D  0DC9               	rlf	___flmul@grs+3,f
  3071     027E  0BC0               	decfsz	??___flmul,f
  3072     027F  2A79               	goto	u2885
  3073     0280                     l2078:
  3074     0280  084B               	movf	___flmul@bexp,w
  3075     0281  074A               	addwf	___flmul@aexp,w
  3076     0282  00C0               	movwf	??___flmul
  3077     0283  01C1               	clrf	??___flmul+1
  3078     0284  0DC1               	rlf	??___flmul+1,f
  3079     0285  0840               	movf	??___flmul,w
  3080     0286  3E82               	addlw	130
  3081     0287  00D0               	movwf	___flmul@temp
  3082     0288  0841               	movf	??___flmul+1,w
  3083     0289  1803               	skipnc
  3084     028A  3E01               	addlw	1
  3085     028B  3EFF               	addlw	255
  3086     028C  00D1               	movwf	___flmul@temp+1
  3087     028D  2AAB               	goto	l2090
  3088     028E                     l2080:
  3089     028E  3001               	movlw	1
  3090     028F  00C0               	movwf	??___flmul
  3091     0290                     u2895:
  3092     0290  1003               	clrc
  3093     0291  0DCC               	rlf	___flmul@prod,f
  3094     0292  0DCD               	rlf	___flmul@prod+1,f
  3095     0293  0DCE               	rlf	___flmul@prod+2,f
  3096     0294  0DCF               	rlf	___flmul@prod+3,f
  3097     0295  0BC0               	decfsz	??___flmul,f
  3098     0296  2A90               	goto	u2895
  3099     0297                     l2082:
  3100     0297  1FC9               	btfss	___flmul@grs+3,7
  3101     0298  2A9A               	goto	u2901
  3102     0299  2A9B               	goto	u2900
  3103     029A                     u2901:
  3104     029A  2A9C               	goto	l2086
  3105     029B                     u2900:
  3106     029B                     l2084:
  3107     029B  144C               	bsf	___flmul@prod,0
  3108     029C                     l2086:
  3109     029C  3001               	movlw	1
  3110     029D  00C0               	movwf	??___flmul
  3111     029E                     u2915:
  3112     029E  1003               	clrc
  3113     029F  0DC6               	rlf	___flmul@grs,f
  3114     02A0  0DC7               	rlf	___flmul@grs+1,f
  3115     02A1  0DC8               	rlf	___flmul@grs+2,f
  3116     02A2  0DC9               	rlf	___flmul@grs+3,f
  3117     02A3  0BC0               	decfsz	??___flmul,f
  3118     02A4  2A9E               	goto	u2915
  3119     02A5                     l2088:
  3120     02A5  30FF               	movlw	255
  3121     02A6  07D0               	addwf	___flmul@temp,f
  3122     02A7  1803               	skipnc
  3123     02A8  0AD1               	incf	___flmul@temp+1,f
  3124     02A9  30FF               	movlw	255
  3125     02AA  07D1               	addwf	___flmul@temp+1,f
  3126     02AB                     l2090:
  3127     02AB  1FCE               	btfss	___flmul@prod+2,7
  3128     02AC  2AAE               	goto	u2921
  3129     02AD  2AAF               	goto	u2920
  3130     02AE                     u2921:
  3131     02AE  2A8E               	goto	l2080
  3132     02AF                     u2920:
  3133     02AF                     l2092:
  3134     02AF  01CA               	clrf	___flmul@aexp
  3135     02B0                     l2094:
  3136     02B0  1FC9               	btfss	___flmul@grs+3,7
  3137     02B1  2AB3               	goto	u2931
  3138     02B2  2AB4               	goto	u2930
  3139     02B3                     u2931:
  3140     02B3  2AD0               	goto	l2102
  3141     02B4                     u2930:
  3142     02B4                     l2096:
  3143     02B4  30FF               	movlw	255
  3144     02B5  0546               	andwf	___flmul@grs,w
  3145     02B6  00C0               	movwf	??___flmul
  3146     02B7  30FF               	movlw	255
  3147     02B8  0547               	andwf	___flmul@grs+1,w
  3148     02B9  00C1               	movwf	??___flmul+1
  3149     02BA  30FF               	movlw	255
  3150     02BB  0548               	andwf	___flmul@grs+2,w
  3151     02BC  00C2               	movwf	??___flmul+2
  3152     02BD  307F               	movlw	127
  3153     02BE  0549               	andwf	___flmul@grs+3,w
  3154     02BF  00C3               	movwf	??___flmul+3
  3155     02C0  0843               	movf	??___flmul+3,w
  3156     02C1  0442               	iorwf	??___flmul+2,w
  3157     02C2  0441               	iorwf	??___flmul+1,w
  3158     02C3  0440               	iorwf	??___flmul,w
  3159     02C4  1903               	skipnz
  3160     02C5  2AC7               	goto	u2941
  3161     02C6  2AC8               	goto	u2940
  3162     02C7                     u2941:
  3163     02C7  2ACB               	goto	l619
  3164     02C8                     u2940:
  3165     02C8                     l2098:
  3166     02C8  01CA               	clrf	___flmul@aexp
  3167     02C9  0ACA               	incf	___flmul@aexp,f
  3168     02CA  2AD0               	goto	l2102
  3169     02CB                     l619:
  3170     02CB  1C4C               	btfss	___flmul@prod,0
  3171     02CC  2ACE               	goto	u2951
  3172     02CD  2ACF               	goto	u2950
  3173     02CE                     u2951:
  3174     02CE  2AD0               	goto	l2102
  3175     02CF                     u2950:
  3176     02CF  2AC8               	goto	l2098
  3177     02D0                     l2102:
  3178     02D0  084A               	movf	___flmul@aexp,w
  3179     02D1  1903               	btfsc	3,2
  3180     02D2  2AD4               	goto	u2961
  3181     02D3  2AD5               	goto	u2960
  3182     02D4                     u2961:
  3183     02D4  2B06               	goto	l2112
  3184     02D5                     u2960:
  3185     02D5                     l2104:
  3186     02D5  3001               	movlw	1
  3187     02D6  07CC               	addwf	___flmul@prod,f
  3188     02D7  3000               	movlw	0
  3189     02D8  1803               	skipnc
  3190     02D9  3001               	movlw	1
  3191     02DA  07CD               	addwf	___flmul@prod+1,f
  3192     02DB  3000               	movlw	0
  3193     02DC  1803               	skipnc
  3194     02DD  3001               	movlw	1
  3195     02DE  07CE               	addwf	___flmul@prod+2,f
  3196     02DF  3000               	movlw	0
  3197     02E0  1803               	skipnc
  3198     02E1  3001               	movlw	1
  3199     02E2  07CF               	addwf	___flmul@prod+3,f
  3200     02E3                     l2106:
  3201     02E3  1C4F               	btfss	___flmul@prod+3,0
  3202     02E4  2AE6               	goto	u2971
  3203     02E5  2AE7               	goto	u2970
  3204     02E6                     u2971:
  3205     02E6  2B06               	goto	l2112
  3206     02E7                     u2970:
  3207     02E7                     l2108:
  3208     02E7  084C               	movf	___flmul@prod,w
  3209     02E8  00C0               	movwf	??___flmul
  3210     02E9  084D               	movf	___flmul@prod+1,w
  3211     02EA  00C1               	movwf	??___flmul+1
  3212     02EB  084E               	movf	___flmul@prod+2,w
  3213     02EC  00C2               	movwf	??___flmul+2
  3214     02ED  084F               	movf	___flmul@prod+3,w
  3215     02EE  00C3               	movwf	??___flmul+3
  3216     02EF  3001               	movlw	1
  3217     02F0  00C4               	movwf	??___flmul+4
  3218     02F1                     u2985:
  3219     02F1  0D43               	rlf	??___flmul+3,w
  3220     02F2  0CC3               	rrf	??___flmul+3,f
  3221     02F3  0CC2               	rrf	??___flmul+2,f
  3222     02F4  0CC1               	rrf	??___flmul+1,f
  3223     02F5  0CC0               	rrf	??___flmul,f
  3224     02F6                     u2980:
  3225     02F6  0BC4               	decfsz	??___flmul+4,f
  3226     02F7  2AF1               	goto	u2985
  3227     02F8  0843               	movf	??___flmul+3,w
  3228     02F9  00CF               	movwf	___flmul@prod+3
  3229     02FA  0842               	movf	??___flmul+2,w
  3230     02FB  00CE               	movwf	___flmul@prod+2
  3231     02FC  0841               	movf	??___flmul+1,w
  3232     02FD  00CD               	movwf	___flmul@prod+1
  3233     02FE  0840               	movf	??___flmul,w
  3234     02FF  00CC               	movwf	___flmul@prod
  3235     0300                     l2110:
  3236     0300  3001               	movlw	1
  3237     0301  07D0               	addwf	___flmul@temp,f
  3238     0302  1803               	skipnc
  3239     0303  0AD1               	incf	___flmul@temp+1,f
  3240     0304  3000               	movlw	0
  3241     0305  07D1               	addwf	___flmul@temp+1,f
  3242     0306                     l2112:
  3243     0306  0851               	movf	___flmul@temp+1,w
  3244     0307  3A80               	xorlw	128
  3245     0308  00FF               	movwf	btemp+1
  3246     0309  3080               	movlw	128
  3247     030A  027F               	subwf	btemp+1,w
  3248     030B  1D03               	skipz
  3249     030C  2B0F               	goto	u2995
  3250     030D  30FF               	movlw	255
  3251     030E  0250               	subwf	___flmul@temp,w
  3252     030F                     u2995:
  3253     030F  1C03               	skipc
  3254     0310  2B12               	goto	u2991
  3255     0311  2B13               	goto	u2990
  3256     0312                     u2991:
  3257     0312  2B1E               	goto	l2116
  3258     0313                     u2990:
  3259     0313                     l2114:
  3260     0313  307F               	movlw	127
  3261     0314  1283               	bcf	3,5	;RP0=0, select bank0
  3262     0315  1303               	bcf	3,6	;RP1=0, select bank0
  3263     0316  00CF               	movwf	___flmul@prod+3
  3264     0317  3080               	movlw	128
  3265     0318  00CE               	movwf	___flmul@prod+2
  3266     0319  3000               	movlw	0
  3267     031A  00CD               	movwf	___flmul@prod+1
  3268     031B  3000               	movlw	0
  3269     031C  00CC               	movwf	___flmul@prod
  3270     031D  2B4F               	goto	l625
  3271     031E                     l2116:
  3272     031E  1283               	bcf	3,5	;RP0=0, select bank0
  3273     031F  1303               	bcf	3,6	;RP1=0, select bank0
  3274     0320  0851               	movf	___flmul@temp+1,w
  3275     0321  3A80               	xorlw	128
  3276     0322  00FF               	movwf	btemp+1
  3277     0323  3080               	movlw	128
  3278     0324  027F               	subwf	btemp+1,w
  3279     0325  1D03               	skipz
  3280     0326  2B29               	goto	u3005
  3281     0327  3001               	movlw	1
  3282     0328  0250               	subwf	___flmul@temp,w
  3283     0329                     u3005:
  3284     0329  1803               	skipnc
  3285     032A  2B2C               	goto	u3001
  3286     032B  2B2D               	goto	u3000
  3287     032C                     u3001:
  3288     032C  2B39               	goto	l2122
  3289     032D                     u3000:
  3290     032D                     l2118:
  3291     032D  3000               	movlw	0
  3292     032E  1283               	bcf	3,5	;RP0=0, select bank0
  3293     032F  1303               	bcf	3,6	;RP1=0, select bank0
  3294     0330  00CF               	movwf	___flmul@prod+3
  3295     0331  3000               	movlw	0
  3296     0332  00CE               	movwf	___flmul@prod+2
  3297     0333  3000               	movlw	0
  3298     0334  00CD               	movwf	___flmul@prod+1
  3299     0335  3000               	movlw	0
  3300     0336  00CC               	movwf	___flmul@prod
  3301     0337                     l2120:
  3302     0337  01C5               	clrf	___flmul@sign
  3303     0338  2B4F               	goto	l625
  3304     0339                     l2122:
  3305     0339  1283               	bcf	3,5	;RP0=0, select bank0
  3306     033A  1303               	bcf	3,6	;RP1=0, select bank0
  3307     033B  0850               	movf	___flmul@temp,w
  3308     033C  00CB               	movwf	___flmul@bexp
  3309     033D  30FF               	movlw	255
  3310     033E  05CC               	andwf	___flmul@prod,f
  3311     033F  30FF               	movlw	255
  3312     0340  05CD               	andwf	___flmul@prod+1,f
  3313     0341  307F               	movlw	127
  3314     0342  05CE               	andwf	___flmul@prod+2,f
  3315     0343  3000               	movlw	0
  3316     0344  05CF               	andwf	___flmul@prod+3,f
  3317     0345                     l2124:
  3318     0345  1C4B               	btfss	___flmul@bexp,0
  3319     0346  2B48               	goto	u3011
  3320     0347  2B49               	goto	u3010
  3321     0348                     u3011:
  3322     0348  2B4A               	goto	l2128
  3323     0349                     u3010:
  3324     0349                     l2126:
  3325     0349  17CE               	bsf	___flmul@prod+2,7
  3326     034A                     l2128:
  3327     034A  084B               	movf	___flmul@bexp,w
  3328     034B  00C0               	movwf	??___flmul
  3329     034C  1003               	clrc
  3330     034D  0C40               	rrf	??___flmul,w
  3331     034E  00CF               	movwf	___flmul@prod+3
  3332     034F                     l625:
  3333     034F  0845               	movf	___flmul@sign,w
  3334     0350  00C0               	movwf	??___flmul
  3335     0351  0840               	movf	??___flmul,w
  3336     0352  04CF               	iorwf	___flmul@prod+3,f
  3337     0353                     l2130:
  3338     0353  084F               	movf	___flmul@prod+3,w
  3339     0354  00BB               	movwf	?___flmul+3
  3340     0355  084E               	movf	___flmul@prod+2,w
  3341     0356  00BA               	movwf	?___flmul+2
  3342     0357  084D               	movf	___flmul@prod+1,w
  3343     0358  00B9               	movwf	?___flmul+1
  3344     0359  084C               	movf	___flmul@prod,w
  3345     035A  00B8               	movwf	?___flmul
  3346     035B                     l613:
  3347     035B  0008               	return
  3348     035C                     __end_of___flmul:
  3349                           
  3350                           	psect	text6
  3351     0C78                     __ptext6:	
  3352 ;; *************** function __Umul8_16 *****************
  3353 ;; Defined at:
  3354 ;;		line 4 in file "C:\Program Files\Microchip\xc8\v2.40\pic\sources\c90\common\Umul8_16.c"
  3355 ;; Parameters:    Size  Location     Type
  3356 ;;  multiplier      1    wreg     unsigned char 
  3357 ;;  multiplicand    1    3[COMMON] unsigned char 
  3358 ;; Auto vars:     Size  Location     Type
  3359 ;;  multiplier      1    4[BANK0 ] unsigned char 
  3360 ;;  word_mpld       2    2[BANK0 ] unsigned int 
  3361 ;;  product         2    0[BANK0 ] unsigned int 
  3362 ;; Return value:  Size  Location     Type
  3363 ;;                  2    3[COMMON] unsigned int 
  3364 ;; Registers used:
  3365 ;;		wreg, status,2, status,0
  3366 ;; Tracked objects:
  3367 ;;		On entry : 0/0
  3368 ;;		On exit  : 0/0
  3369 ;;		Unchanged: 0/0
  3370 ;; Data sizes:     COMMON   BANK0   BANK1   BANK3   BANK2
  3371 ;;      Params:         2       0       0       0       0
  3372 ;;      Locals:         0       5       0       0       0
  3373 ;;      Temps:          2       0       0       0       0
  3374 ;;      Totals:         4       5       0       0       0
  3375 ;;Total ram usage:        9 bytes
  3376 ;; Hardware stack levels used: 1
  3377 ;; Hardware stack levels required when called: 1
  3378 ;; This function calls:
  3379 ;;		Nothing
  3380 ;; This function is called by:
  3381 ;;		___flmul
  3382 ;; This function uses a non-reentrant model
  3383 ;;
  3384                           
  3385     0C78                     __Umul8_16:	
  3386                           ;psect for function __Umul8_16
  3387                           
  3388                           
  3389                           ;incstack = 0
  3390                           ; Regs used in __Umul8_16: [wreg+status,2+status,0]
  3391                           ;__Umul8_16@multiplier stored from wreg
  3392     0C78  1283               	bcf	3,5	;RP0=0, select bank0
  3393     0C79  1303               	bcf	3,6	;RP1=0, select bank0
  3394     0C7A  00A4               	movwf	__Umul8_16@multiplier
  3395     0C7B                     l1828:
  3396     0C7B  01A0               	clrf	__Umul8_16@product
  3397     0C7C  01A1               	clrf	__Umul8_16@product+1
  3398     0C7D                     l1830:
  3399     0C7D  0873               	movf	__Umul8_16@multiplicand,w
  3400     0C7E  00F5               	movwf	??__Umul8_16
  3401     0C7F  01F6               	clrf	??__Umul8_16+1
  3402     0C80  0875               	movf	??__Umul8_16,w
  3403     0C81  00A2               	movwf	__Umul8_16@word_mpld
  3404     0C82  0876               	movf	??__Umul8_16+1,w
  3405     0C83  00A3               	movwf	__Umul8_16@word_mpld+1
  3406     0C84                     l1832:
  3407     0C84  1C24               	btfss	__Umul8_16@multiplier,0
  3408     0C85  2C87               	goto	u2381
  3409     0C86  2C88               	goto	u2380
  3410     0C87                     u2381:
  3411     0C87  2C8E               	goto	l632
  3412     0C88                     u2380:
  3413     0C88                     l1834:
  3414     0C88  0822               	movf	__Umul8_16@word_mpld,w
  3415     0C89  07A0               	addwf	__Umul8_16@product,f
  3416     0C8A  1803               	skipnc
  3417     0C8B  0AA1               	incf	__Umul8_16@product+1,f
  3418     0C8C  0823               	movf	__Umul8_16@word_mpld+1,w
  3419     0C8D  07A1               	addwf	__Umul8_16@product+1,f
  3420     0C8E                     l632:
  3421     0C8E  3001               	movlw	1
  3422     0C8F                     u2395:
  3423     0C8F  1003               	clrc
  3424     0C90  0DA2               	rlf	__Umul8_16@word_mpld,f
  3425     0C91  0DA3               	rlf	__Umul8_16@word_mpld+1,f
  3426     0C92  3EFF               	addlw	-1
  3427     0C93  1D03               	skipz
  3428     0C94  2C8F               	goto	u2395
  3429     0C95  1003               	clrc
  3430     0C96  0CA4               	rrf	__Umul8_16@multiplier,f
  3431     0C97                     l1836:
  3432     0C97  0824               	movf	__Umul8_16@multiplier,w
  3433     0C98  1D03               	btfss	3,2
  3434     0C99  2C9B               	goto	u2401
  3435     0C9A  2C9C               	goto	u2400
  3436     0C9B                     u2401:
  3437     0C9B  2C84               	goto	l1832
  3438     0C9C                     u2400:
  3439     0C9C                     l1838:
  3440     0C9C  0821               	movf	__Umul8_16@product+1,w
  3441     0C9D  00F4               	movwf	?__Umul8_16+1
  3442     0C9E  0820               	movf	__Umul8_16@product,w
  3443     0C9F  00F3               	movwf	?__Umul8_16
  3444     0CA0                     l634:
  3445     0CA0  0008               	return
  3446     0CA1                     __end_of__Umul8_16:
  3447                           
  3448                           	psect	text7
  3449     06C1                     __ptext7:	
  3450 ;; *************** function _Lcd_Write_Int *****************
  3451 ;; Defined at:
  3452 ;;		line 124 in file "./lcd.h"
  3453 ;; Parameters:    Size  Location     Type
  3454 ;;  val             2    5[BANK0 ] int 
  3455 ;; Auto vars:     Size  Location     Type
  3456 ;;  t               2   65[BANK0 ] int 
  3457 ;;  buffer         50   10[BANK0 ] unsigned char [50]
  3458 ;;  i               2   67[BANK0 ] int 
  3459 ;;  n               2   63[BANK0 ] int 
  3460 ;;  n1              2   61[BANK0 ] unsigned int 
  3461 ;;  isNeg           1   60[BANK0 ] unsigned char 
  3462 ;; Return value:  Size  Location     Type
  3463 ;;                  2    5[BANK0 ] PTR unsigned char 
  3464 ;; Registers used:
  3465 ;;		wreg, fsr0l, fsr0h, status,2, status,0, btemp+1, pclath, cstack
  3466 ;; Tracked objects:
  3467 ;;		On entry : 0/0
  3468 ;;		On exit  : 0/0
  3469 ;;		Unchanged: 0/0
  3470 ;; Data sizes:     COMMON   BANK0   BANK1   BANK3   BANK2
  3471 ;;      Params:         0       2       0       0       0
  3472 ;;      Locals:         0      59       0       0       0
  3473 ;;      Temps:          0       3       0       0       0
  3474 ;;      Totals:         0      64       0       0       0
  3475 ;;Total ram usage:       64 bytes
  3476 ;; Hardware stack levels used: 1
  3477 ;; Hardware stack levels required when called: 4
  3478 ;; This function calls:
  3479 ;;		_Lcd_Write_String
  3480 ;;		___awdiv
  3481 ;;		___lwdiv
  3482 ;;		___lwmod
  3483 ;; This function is called by:
  3484 ;;		_main
  3485 ;; This function uses a non-reentrant model
  3486 ;;
  3487                           
  3488     06C1                     _Lcd_Write_Int:	
  3489                           ;psect for function _Lcd_Write_Int
  3490                           
  3491     06C1                     l2454:	
  3492                           ;incstack = 0
  3493                           ; Regs used in _Lcd_Write_Int: [wreg-fsr0h+status,2+status,0+btemp+1+pclath+cstack]
  3494                           
  3495                           
  3496                           ;./lcd.h: 126:     int n = val;
  3497     06C1  1283               	bcf	3,5	;RP0=0, select bank0
  3498     06C2  1303               	bcf	3,6	;RP1=0, select bank0
  3499     06C3  0826               	movf	Lcd_Write_Int@val+1,w
  3500     06C4  00E0               	movwf	Lcd_Write_Int@n+1
  3501     06C5  0825               	movf	Lcd_Write_Int@val,w
  3502     06C6  00DF               	movwf	Lcd_Write_Int@n
  3503     06C7                     l2456:
  3504                           
  3505                           ;./lcd.h: 127:     char buffer[50];;./lcd.h: 128:     int i = 0;
  3506     06C7  01E3               	clrf	Lcd_Write_Int@i
  3507     06C8  01E4               	clrf	Lcd_Write_Int@i+1
  3508     06C9                     l2458:
  3509                           
  3510                           ;./lcd.h: 129:     char isNeg = n < 0;
  3511     06C9  1BE0               	btfsc	Lcd_Write_Int@n+1,7
  3512     06CA  2ECC               	goto	u3741
  3513     06CB  2ECE               	goto	u3740
  3514     06CC                     u3741:
  3515     06CC  3001               	movlw	1
  3516     06CD  2ECF               	goto	u3750
  3517     06CE                     u3740:
  3518     06CE  3000               	movlw	0
  3519     06CF                     u3750:
  3520     06CF  00DC               	movwf	Lcd_Write_Int@isNeg
  3521     06D0                     l2460:
  3522                           
  3523                           ;./lcd.h: 131:     unsigned int n1 = isNeg ? -n : n;
  3524     06D0  085C               	movf	Lcd_Write_Int@isNeg,w
  3525     06D1  1D03               	btfss	3,2
  3526     06D2  2ED4               	goto	u3761
  3527     06D3  2ED5               	goto	u3760
  3528     06D4                     u3761:
  3529     06D4  2EDA               	goto	l2464
  3530     06D5                     u3760:
  3531     06D5                     l2462:
  3532     06D5  0860               	movf	Lcd_Write_Int@n+1,w
  3533     06D6  00DE               	movwf	Lcd_Write_Int@n1+1
  3534     06D7  085F               	movf	Lcd_Write_Int@n,w
  3535     06D8  00DD               	movwf	Lcd_Write_Int@n1
  3536     06D9  2F15               	goto	l2472
  3537     06DA                     l2464:
  3538     06DA  095F               	comf	Lcd_Write_Int@n,w
  3539     06DB  00A7               	movwf	??_Lcd_Write_Int
  3540     06DC  0960               	comf	Lcd_Write_Int@n+1,w
  3541     06DD  00A8               	movwf	??_Lcd_Write_Int+1
  3542     06DE  0AA7               	incf	??_Lcd_Write_Int,f
  3543     06DF  1903               	skipnz
  3544     06E0  0AA8               	incf	??_Lcd_Write_Int+1,f
  3545     06E1  0827               	movf	??_Lcd_Write_Int,w
  3546     06E2  00DD               	movwf	Lcd_Write_Int@n1
  3547     06E3  0828               	movf	??_Lcd_Write_Int+1,w
  3548     06E4  00DE               	movwf	Lcd_Write_Int@n1+1
  3549     06E5  2F15               	goto	l2472
  3550     06E6                     l2466:
  3551                           
  3552                           ;./lcd.h: 134:         buffer[i++] = n1 % 10 + '0';
  3553     06E6  0863               	movf	Lcd_Write_Int@i,w
  3554     06E7  3E2A               	addlw	(low (Lcd_Write_Int@buffer| 0))& (0+255)
  3555     06E8  0084               	movwf	4
  3556     06E9  300A               	movlw	10
  3557     06EA  00F3               	movwf	___lwmod@divisor
  3558     06EB  3000               	movlw	0
  3559     06EC  00F4               	movwf	___lwmod@divisor+1
  3560     06ED  085E               	movf	Lcd_Write_Int@n1+1,w
  3561     06EE  00F6               	movwf	___lwmod@dividend+1
  3562     06EF  085D               	movf	Lcd_Write_Int@n1,w
  3563     06F0  00F5               	movwf	___lwmod@dividend
  3564     06F1  120A  158A  253A  120A  118A  	fcall	___lwmod
  3565     06F6  0873               	movf	?___lwmod,w
  3566     06F7  3E30               	addlw	48
  3567     06F8  1383               	bcf	3,7	;select IRP bank0
  3568     06F9  0080               	movwf	0
  3569     06FA                     l2468:
  3570     06FA  3001               	movlw	1
  3571     06FB  1283               	bcf	3,5	;RP0=0, select bank0
  3572     06FC  1303               	bcf	3,6	;RP1=0, select bank0
  3573     06FD  07E3               	addwf	Lcd_Write_Int@i,f
  3574     06FE  1803               	skipnc
  3575     06FF  0AE4               	incf	Lcd_Write_Int@i+1,f
  3576     0700  3000               	movlw	0
  3577     0701  07E4               	addwf	Lcd_Write_Int@i+1,f
  3578     0702                     l2470:
  3579                           
  3580                           ;./lcd.h: 135:         n1 = n1 / 10;
  3581     0702  300A               	movlw	10
  3582     0703  00F3               	movwf	___lwdiv@divisor
  3583     0704  3000               	movlw	0
  3584     0705  00F4               	movwf	___lwdiv@divisor+1
  3585     0706  085E               	movf	Lcd_Write_Int@n1+1,w
  3586     0707  00F6               	movwf	___lwdiv@dividend+1
  3587     0708  085D               	movf	Lcd_Write_Int@n1,w
  3588     0709  00F5               	movwf	___lwdiv@dividend
  3589     070A  120A  158A  25BA  120A  118A  	fcall	___lwdiv
  3590     070F  0874               	movf	?___lwdiv+1,w
  3591     0710  1283               	bcf	3,5	;RP0=0, select bank0
  3592     0711  1303               	bcf	3,6	;RP1=0, select bank0
  3593     0712  00DE               	movwf	Lcd_Write_Int@n1+1
  3594     0713  0873               	movf	?___lwdiv,w
  3595     0714  00DD               	movwf	Lcd_Write_Int@n1
  3596     0715                     l2472:
  3597                           
  3598                           ;./lcd.h: 133:     while (n1 != 0) {
  3599     0715  085D               	movf	Lcd_Write_Int@n1,w
  3600     0716  045E               	iorwf	Lcd_Write_Int@n1+1,w
  3601     0717  1D03               	btfss	3,2
  3602     0718  2F1A               	goto	u3771
  3603     0719  2F1B               	goto	u3770
  3604     071A                     u3771:
  3605     071A  2EE6               	goto	l2466
  3606     071B                     u3770:
  3607     071B                     l2474:
  3608                           
  3609                           ;./lcd.h: 138:     if (isNeg)
  3610     071B  085C               	movf	Lcd_Write_Int@isNeg,w
  3611     071C  1903               	btfsc	3,2
  3612     071D  2F1F               	goto	u3781
  3613     071E  2F20               	goto	u3780
  3614     071F                     u3781:
  3615     071F  2F2C               	goto	l2480
  3616     0720                     u3780:
  3617     0720                     l2476:
  3618                           
  3619                           ;./lcd.h: 139:         buffer[i++] = '-';
  3620     0720  0863               	movf	Lcd_Write_Int@i,w
  3621     0721  3E2A               	addlw	(low (Lcd_Write_Int@buffer| 0))& (0+255)
  3622     0722  0084               	movwf	4
  3623     0723  302D               	movlw	45
  3624     0724  1383               	bcf	3,7	;select IRP bank0
  3625     0725  0080               	movwf	0
  3626     0726                     l2478:
  3627     0726  3001               	movlw	1
  3628     0727  07E3               	addwf	Lcd_Write_Int@i,f
  3629     0728  1803               	skipnc
  3630     0729  0AE4               	incf	Lcd_Write_Int@i+1,f
  3631     072A  3000               	movlw	0
  3632     072B  07E4               	addwf	Lcd_Write_Int@i+1,f
  3633     072C                     l2480:
  3634                           
  3635                           ;./lcd.h: 141:     buffer[i] = '\0';
  3636     072C  0863               	movf	Lcd_Write_Int@i,w
  3637     072D  3E2A               	addlw	(low (Lcd_Write_Int@buffer| 0))& (0+255)
  3638     072E  0084               	movwf	4
  3639     072F  1383               	bcf	3,7	;select IRP bank0
  3640     0730  0180               	clrf	0
  3641     0731                     l2482:
  3642                           
  3643                           ;./lcd.h: 143:     for (int t = 0; t < i / 2; t++) {
  3644     0731  01E1               	clrf	Lcd_Write_Int@t
  3645     0732  01E2               	clrf	Lcd_Write_Int@t+1
  3646     0733  2F70               	goto	l2488
  3647     0734                     l2484:
  3648                           
  3649                           ;./lcd.h: 144:         buffer[t] ^= buffer[i - t - 1];
  3650     0734  302A               	movlw	(low (Lcd_Write_Int@buffer| 0))& (0+255)
  3651     0735  1283               	bcf	3,5	;RP0=0, select bank0
  3652     0736  1303               	bcf	3,6	;RP1=0, select bank0
  3653     0737  00A7               	movwf	??_Lcd_Write_Int
  3654     0738  0861               	movf	Lcd_Write_Int@t,w
  3655     0739  02A7               	subwf	??_Lcd_Write_Int,f
  3656     073A  0863               	movf	Lcd_Write_Int@i,w
  3657     073B  0727               	addwf	??_Lcd_Write_Int,w
  3658     073C  00A8               	movwf	??_Lcd_Write_Int+1
  3659     073D  0828               	movf	??_Lcd_Write_Int+1,w
  3660     073E  3EFF               	addlw	255
  3661     073F  0084               	movwf	4
  3662     0740  1383               	bcf	3,7	;select IRP bank0
  3663     0741  0800               	movf	0,w
  3664     0742  00A9               	movwf	??_Lcd_Write_Int+2
  3665     0743  0861               	movf	Lcd_Write_Int@t,w
  3666     0744  3E2A               	addlw	(low (Lcd_Write_Int@buffer| 0))& (0+255)
  3667     0745  0084               	movwf	4
  3668     0746  0829               	movf	??_Lcd_Write_Int+2,w
  3669     0747  0680               	xorwf	0,f
  3670                           
  3671                           ;./lcd.h: 145:         buffer[i - t - 1] ^= buffer[t];
  3672     0748  0861               	movf	Lcd_Write_Int@t,w
  3673     0749  3E2A               	addlw	(low (Lcd_Write_Int@buffer| 0))& (0+255)
  3674     074A  0084               	movwf	4
  3675     074B  0800               	movf	0,w
  3676     074C  00A7               	movwf	??_Lcd_Write_Int
  3677     074D  302A               	movlw	(low (Lcd_Write_Int@buffer| 0))& (0+255)
  3678     074E  00A8               	movwf	??_Lcd_Write_Int+1
  3679     074F  0861               	movf	Lcd_Write_Int@t,w
  3680     0750  02A8               	subwf	??_Lcd_Write_Int+1,f
  3681     0751  0863               	movf	Lcd_Write_Int@i,w
  3682     0752  0728               	addwf	??_Lcd_Write_Int+1,w
  3683     0753  00A9               	movwf	??_Lcd_Write_Int+2
  3684     0754  0829               	movf	??_Lcd_Write_Int+2,w
  3685     0755  3EFF               	addlw	255
  3686     0756  0084               	movwf	4
  3687     0757  0827               	movf	??_Lcd_Write_Int,w
  3688     0758  0680               	xorwf	0,f
  3689                           
  3690                           ;./lcd.h: 146:         buffer[t] ^= buffer[i - t - 1];
  3691     0759  302A               	movlw	(low (Lcd_Write_Int@buffer| 0))& (0+255)
  3692     075A  00A7               	movwf	??_Lcd_Write_Int
  3693     075B  0861               	movf	Lcd_Write_Int@t,w
  3694     075C  02A7               	subwf	??_Lcd_Write_Int,f
  3695     075D  0863               	movf	Lcd_Write_Int@i,w
  3696     075E  0727               	addwf	??_Lcd_Write_Int,w
  3697     075F  00A8               	movwf	??_Lcd_Write_Int+1
  3698     0760  0828               	movf	??_Lcd_Write_Int+1,w
  3699     0761  3EFF               	addlw	255
  3700     0762  0084               	movwf	4
  3701     0763  0800               	movf	0,w
  3702     0764  00A9               	movwf	??_Lcd_Write_Int+2
  3703     0765  0861               	movf	Lcd_Write_Int@t,w
  3704     0766  3E2A               	addlw	(low (Lcd_Write_Int@buffer| 0))& (0+255)
  3705     0767  0084               	movwf	4
  3706     0768  0829               	movf	??_Lcd_Write_Int+2,w
  3707     0769  0680               	xorwf	0,f
  3708     076A                     l2486:
  3709                           
  3710                           ;./lcd.h: 147:     }
  3711     076A  3001               	movlw	1
  3712     076B  07E1               	addwf	Lcd_Write_Int@t,f
  3713     076C  1803               	skipnc
  3714     076D  0AE2               	incf	Lcd_Write_Int@t+1,f
  3715     076E  3000               	movlw	0
  3716     076F  07E2               	addwf	Lcd_Write_Int@t+1,f
  3717     0770                     l2488:
  3718     0770  3002               	movlw	2
  3719     0771  00F3               	movwf	___awdiv@divisor
  3720     0772  3000               	movlw	0
  3721     0773  00F4               	movwf	___awdiv@divisor+1
  3722     0774  0864               	movf	Lcd_Write_Int@i+1,w
  3723     0775  00F6               	movwf	___awdiv@dividend+1
  3724     0776  0863               	movf	Lcd_Write_Int@i,w
  3725     0777  00F5               	movwf	___awdiv@dividend
  3726     0778  120A  158A  2665  120A  118A  	fcall	___awdiv
  3727     077D  1283               	bcf	3,5	;RP0=0, select bank0
  3728     077E  1303               	bcf	3,6	;RP1=0, select bank0
  3729     077F  0862               	movf	Lcd_Write_Int@t+1,w
  3730     0780  3A80               	xorlw	128
  3731     0781  00A7               	movwf	??_Lcd_Write_Int
  3732     0782  0874               	movf	?___awdiv+1,w
  3733     0783  3A80               	xorlw	128
  3734     0784  0227               	subwf	??_Lcd_Write_Int,w
  3735     0785  1D03               	skipz
  3736     0786  2F89               	goto	u3795
  3737     0787  0873               	movf	?___awdiv,w
  3738     0788  0261               	subwf	Lcd_Write_Int@t,w
  3739     0789                     u3795:
  3740     0789  1C03               	skipc
  3741     078A  2F8C               	goto	u3791
  3742     078B  2F8D               	goto	u3790
  3743     078C                     u3791:
  3744     078C  2F34               	goto	l2484
  3745     078D                     u3790:
  3746     078D                     l2490:
  3747                           
  3748                           ;./lcd.h: 149:     if (n == 0) {
  3749     078D  1283               	bcf	3,5	;RP0=0, select bank0
  3750     078E  1303               	bcf	3,6	;RP1=0, select bank0
  3751     078F  085F               	movf	Lcd_Write_Int@n,w
  3752     0790  0460               	iorwf	Lcd_Write_Int@n+1,w
  3753     0791  1D03               	btfss	3,2
  3754     0792  2F94               	goto	u3801
  3755     0793  2F95               	goto	u3800
  3756     0794                     u3801:
  3757     0794  2F98               	goto	l2496
  3758     0795                     u3800:
  3759     0795                     l2492:
  3760                           
  3761                           ;./lcd.h: 150:         buffer[0] = '0';
  3762     0795  3030               	movlw	48
  3763     0796  00AA               	movwf	Lcd_Write_Int@buffer
  3764     0797                     l2494:
  3765                           
  3766                           ;./lcd.h: 151:         buffer[1] = '\0';
  3767     0797  01AB               	clrf	Lcd_Write_Int@buffer+1
  3768     0798                     l2496:
  3769                           
  3770                           ;./lcd.h: 154:     Lcd_Write_String(buffer);
  3771     0798  302A               	movlw	(low (Lcd_Write_Int@buffer| 0))& (0+255)
  3772     0799  00F8               	movwf	Lcd_Write_String@a
  3773     079A  3000               	movlw	0
  3774     079B  00F9               	movwf	Lcd_Write_String@a+1
  3775     079C  120A  158A  2574  120A  118A  	fcall	_Lcd_Write_String
  3776     07A1                     l109:
  3777     07A1  0008               	return
  3778     07A2                     __end_of_Lcd_Write_Int:
  3779                           
  3780                           	psect	text8
  3781     0D3A                     __ptext8:	
  3782 ;; *************** function ___lwmod *****************
  3783 ;; Defined at:
  3784 ;;		line 5 in file "C:\Program Files\Microchip\xc8\v2.40\pic\sources\c90\common\lwmod.c"
  3785 ;; Parameters:    Size  Location     Type
  3786 ;;  divisor         2    3[COMMON] unsigned int 
  3787 ;;  dividend        2    5[COMMON] unsigned int 
  3788 ;; Auto vars:     Size  Location     Type
  3789 ;;  counter         1    8[COMMON] unsigned char 
  3790 ;; Return value:  Size  Location     Type
  3791 ;;                  2    3[COMMON] unsigned int 
  3792 ;; Registers used:
  3793 ;;		wreg, status,2, status,0
  3794 ;; Tracked objects:
  3795 ;;		On entry : 0/0
  3796 ;;		On exit  : 0/0
  3797 ;;		Unchanged: 0/0
  3798 ;; Data sizes:     COMMON   BANK0   BANK1   BANK3   BANK2
  3799 ;;      Params:         4       0       0       0       0
  3800 ;;      Locals:         1       0       0       0       0
  3801 ;;      Temps:          1       0       0       0       0
  3802 ;;      Totals:         6       0       0       0       0
  3803 ;;Total ram usage:        6 bytes
  3804 ;; Hardware stack levels used: 1
  3805 ;; Hardware stack levels required when called: 1
  3806 ;; This function calls:
  3807 ;;		Nothing
  3808 ;; This function is called by:
  3809 ;;		_Lcd_Write_Int
  3810 ;; This function uses a non-reentrant model
  3811 ;;
  3812                           
  3813     0D3A                     ___lwmod:	
  3814                           ;psect for function ___lwmod
  3815                           
  3816     0D3A                     l1612:	
  3817                           ;incstack = 0
  3818                           ; Regs used in ___lwmod: [wreg+status,2+status,0]
  3819                           
  3820     0D3A  0873               	movf	___lwmod@divisor,w
  3821     0D3B  0474               	iorwf	___lwmod@divisor+1,w
  3822     0D3C  1903               	btfsc	3,2
  3823     0D3D  2D3F               	goto	u1861
  3824     0D3E  2D40               	goto	u1860
  3825     0D3F                     u1861:
  3826     0D3F  2D6F               	goto	l1630
  3827     0D40                     u1860:
  3828     0D40                     l1614:
  3829     0D40  01F8               	clrf	___lwmod@counter
  3830     0D41  0AF8               	incf	___lwmod@counter,f
  3831     0D42  2D4E               	goto	l1620
  3832     0D43                     l1616:
  3833     0D43  3001               	movlw	1
  3834     0D44                     u1875:
  3835     0D44  1003               	clrc
  3836     0D45  0DF3               	rlf	___lwmod@divisor,f
  3837     0D46  0DF4               	rlf	___lwmod@divisor+1,f
  3838     0D47  3EFF               	addlw	-1
  3839     0D48  1D03               	skipz
  3840     0D49  2D44               	goto	u1875
  3841     0D4A                     l1618:
  3842     0D4A  3001               	movlw	1
  3843     0D4B  00F7               	movwf	??___lwmod
  3844     0D4C  0877               	movf	??___lwmod,w
  3845     0D4D  07F8               	addwf	___lwmod@counter,f
  3846     0D4E                     l1620:
  3847     0D4E  1FF4               	btfss	___lwmod@divisor+1,7
  3848     0D4F  2D51               	goto	u1881
  3849     0D50  2D52               	goto	u1880
  3850     0D51                     u1881:
  3851     0D51  2D43               	goto	l1616
  3852     0D52                     u1880:
  3853     0D52                     l1622:
  3854     0D52  0874               	movf	___lwmod@divisor+1,w
  3855     0D53  0276               	subwf	___lwmod@dividend+1,w
  3856     0D54  1D03               	skipz
  3857     0D55  2D58               	goto	u1895
  3858     0D56  0873               	movf	___lwmod@divisor,w
  3859     0D57  0275               	subwf	___lwmod@dividend,w
  3860     0D58                     u1895:
  3861     0D58  1C03               	skipc
  3862     0D59  2D5B               	goto	u1891
  3863     0D5A  2D5C               	goto	u1890
  3864     0D5B                     u1891:
  3865     0D5B  2D62               	goto	l1626
  3866     0D5C                     u1890:
  3867     0D5C                     l1624:
  3868     0D5C  0873               	movf	___lwmod@divisor,w
  3869     0D5D  02F5               	subwf	___lwmod@dividend,f
  3870     0D5E  0874               	movf	___lwmod@divisor+1,w
  3871     0D5F  1C03               	skipc
  3872     0D60  03F6               	decf	___lwmod@dividend+1,f
  3873     0D61  02F6               	subwf	___lwmod@dividend+1,f
  3874     0D62                     l1626:
  3875     0D62  3001               	movlw	1
  3876     0D63                     u1905:
  3877     0D63  1003               	clrc
  3878     0D64  0CF4               	rrf	___lwmod@divisor+1,f
  3879     0D65  0CF3               	rrf	___lwmod@divisor,f
  3880     0D66  3EFF               	addlw	-1
  3881     0D67  1D03               	skipz
  3882     0D68  2D63               	goto	u1905
  3883     0D69                     l1628:
  3884     0D69  3001               	movlw	1
  3885     0D6A  02F8               	subwf	___lwmod@counter,f
  3886     0D6B  1D03               	btfss	3,2
  3887     0D6C  2D6E               	goto	u1911
  3888     0D6D  2D6F               	goto	u1910
  3889     0D6E                     u1911:
  3890     0D6E  2D52               	goto	l1622
  3891     0D6F                     u1910:
  3892     0D6F                     l1630:
  3893     0D6F  0876               	movf	___lwmod@dividend+1,w
  3894     0D70  00F4               	movwf	?___lwmod+1
  3895     0D71  0875               	movf	___lwmod@dividend,w
  3896     0D72  00F3               	movwf	?___lwmod
  3897     0D73                     l506:
  3898     0D73  0008               	return
  3899     0D74                     __end_of___lwmod:
  3900                           
  3901                           	psect	text9
  3902     0DBA                     __ptext9:	
  3903 ;; *************** function ___lwdiv *****************
  3904 ;; Defined at:
  3905 ;;		line 5 in file "C:\Program Files\Microchip\xc8\v2.40\pic\sources\c90\common\lwdiv.c"
  3906 ;; Parameters:    Size  Location     Type
  3907 ;;  divisor         2    3[COMMON] unsigned int 
  3908 ;;  dividend        2    5[COMMON] unsigned int 
  3909 ;; Auto vars:     Size  Location     Type
  3910 ;;  quotient        2    1[BANK0 ] unsigned int 
  3911 ;;  counter         1    0[BANK0 ] unsigned char 
  3912 ;; Return value:  Size  Location     Type
  3913 ;;                  2    3[COMMON] unsigned int 
  3914 ;; Registers used:
  3915 ;;		wreg, status,2, status,0
  3916 ;; Tracked objects:
  3917 ;;		On entry : 0/0
  3918 ;;		On exit  : 0/0
  3919 ;;		Unchanged: 0/0
  3920 ;; Data sizes:     COMMON   BANK0   BANK1   BANK3   BANK2
  3921 ;;      Params:         4       0       0       0       0
  3922 ;;      Locals:         0       3       0       0       0
  3923 ;;      Temps:          1       0       0       0       0
  3924 ;;      Totals:         5       3       0       0       0
  3925 ;;Total ram usage:        8 bytes
  3926 ;; Hardware stack levels used: 1
  3927 ;; Hardware stack levels required when called: 1
  3928 ;; This function calls:
  3929 ;;		Nothing
  3930 ;; This function is called by:
  3931 ;;		_Lcd_Write_Int
  3932 ;; This function uses a non-reentrant model
  3933 ;;
  3934                           
  3935     0DBA                     ___lwdiv:	
  3936                           ;psect for function ___lwdiv
  3937                           
  3938     0DBA                     l2234:	
  3939                           ;incstack = 0
  3940                           ; Regs used in ___lwdiv: [wreg+status,2+status,0]
  3941                           
  3942     0DBA  1283               	bcf	3,5	;RP0=0, select bank0
  3943     0DBB  1303               	bcf	3,6	;RP1=0, select bank0
  3944     0DBC  01A1               	clrf	___lwdiv@quotient
  3945     0DBD  01A2               	clrf	___lwdiv@quotient+1
  3946     0DBE                     l2236:
  3947     0DBE  0873               	movf	___lwdiv@divisor,w
  3948     0DBF  0474               	iorwf	___lwdiv@divisor+1,w
  3949     0DC0  1903               	btfsc	3,2
  3950     0DC1  2DC3               	goto	u3211
  3951     0DC2  2DC4               	goto	u3210
  3952     0DC3                     u3211:
  3953     0DC3  2DFB               	goto	l2256
  3954     0DC4                     u3210:
  3955     0DC4                     l2238:
  3956     0DC4  01A0               	clrf	___lwdiv@counter
  3957     0DC5  0AA0               	incf	___lwdiv@counter,f
  3958     0DC6  2DD2               	goto	l2244
  3959     0DC7                     l2240:
  3960     0DC7  3001               	movlw	1
  3961     0DC8                     u3225:
  3962     0DC8  1003               	clrc
  3963     0DC9  0DF3               	rlf	___lwdiv@divisor,f
  3964     0DCA  0DF4               	rlf	___lwdiv@divisor+1,f
  3965     0DCB  3EFF               	addlw	-1
  3966     0DCC  1D03               	skipz
  3967     0DCD  2DC8               	goto	u3225
  3968     0DCE                     l2242:
  3969     0DCE  3001               	movlw	1
  3970     0DCF  00F7               	movwf	??___lwdiv
  3971     0DD0  0877               	movf	??___lwdiv,w
  3972     0DD1  07A0               	addwf	___lwdiv@counter,f
  3973     0DD2                     l2244:
  3974     0DD2  1FF4               	btfss	___lwdiv@divisor+1,7
  3975     0DD3  2DD5               	goto	u3231
  3976     0DD4  2DD6               	goto	u3230
  3977     0DD5                     u3231:
  3978     0DD5  2DC7               	goto	l2240
  3979     0DD6                     u3230:
  3980     0DD6                     l2246:
  3981     0DD6  3001               	movlw	1
  3982     0DD7                     u3245:
  3983     0DD7  1003               	clrc
  3984     0DD8  0DA1               	rlf	___lwdiv@quotient,f
  3985     0DD9  0DA2               	rlf	___lwdiv@quotient+1,f
  3986     0DDA  3EFF               	addlw	-1
  3987     0DDB  1D03               	skipz
  3988     0DDC  2DD7               	goto	u3245
  3989     0DDD  0874               	movf	___lwdiv@divisor+1,w
  3990     0DDE  0276               	subwf	___lwdiv@dividend+1,w
  3991     0DDF  1D03               	skipz
  3992     0DE0  2DE3               	goto	u3255
  3993     0DE1  0873               	movf	___lwdiv@divisor,w
  3994     0DE2  0275               	subwf	___lwdiv@dividend,w
  3995     0DE3                     u3255:
  3996     0DE3  1C03               	skipc
  3997     0DE4  2DE6               	goto	u3251
  3998     0DE5  2DE7               	goto	u3250
  3999     0DE6                     u3251:
  4000     0DE6  2DEE               	goto	l2252
  4001     0DE7                     u3250:
  4002     0DE7                     l2248:
  4003     0DE7  0873               	movf	___lwdiv@divisor,w
  4004     0DE8  02F5               	subwf	___lwdiv@dividend,f
  4005     0DE9  0874               	movf	___lwdiv@divisor+1,w
  4006     0DEA  1C03               	skipc
  4007     0DEB  03F6               	decf	___lwdiv@dividend+1,f
  4008     0DEC  02F6               	subwf	___lwdiv@dividend+1,f
  4009     0DED                     l2250:
  4010     0DED  1421               	bsf	___lwdiv@quotient,0
  4011     0DEE                     l2252:
  4012     0DEE  3001               	movlw	1
  4013     0DEF                     u3265:
  4014     0DEF  1003               	clrc
  4015     0DF0  0CF4               	rrf	___lwdiv@divisor+1,f
  4016     0DF1  0CF3               	rrf	___lwdiv@divisor,f
  4017     0DF2  3EFF               	addlw	-1
  4018     0DF3  1D03               	skipz
  4019     0DF4  2DEF               	goto	u3265
  4020     0DF5                     l2254:
  4021     0DF5  3001               	movlw	1
  4022     0DF6  02A0               	subwf	___lwdiv@counter,f
  4023     0DF7  1D03               	btfss	3,2
  4024     0DF8  2DFA               	goto	u3271
  4025     0DF9  2DFB               	goto	u3270
  4026     0DFA                     u3271:
  4027     0DFA  2DD6               	goto	l2246
  4028     0DFB                     u3270:
  4029     0DFB                     l2256:
  4030     0DFB  0822               	movf	___lwdiv@quotient+1,w
  4031     0DFC  00F4               	movwf	?___lwdiv+1
  4032     0DFD  0821               	movf	___lwdiv@quotient,w
  4033     0DFE  00F3               	movwf	?___lwdiv
  4034     0DFF                     l496:
  4035     0DFF  0008               	return
  4036     0E00                     __end_of___lwdiv:
  4037                           
  4038                           	psect	text10
  4039     0E65                     __ptext10:	
  4040 ;; *************** function ___awdiv *****************
  4041 ;; Defined at:
  4042 ;;		line 5 in file "C:\Program Files\Microchip\xc8\v2.40\pic\sources\c90\common\awdiv.c"
  4043 ;; Parameters:    Size  Location     Type
  4044 ;;  divisor         2    3[COMMON] int 
  4045 ;;  dividend        2    5[COMMON] int 
  4046 ;; Auto vars:     Size  Location     Type
  4047 ;;  quotient        2    2[BANK0 ] int 
  4048 ;;  sign            1    1[BANK0 ] unsigned char 
  4049 ;;  counter         1    0[BANK0 ] unsigned char 
  4050 ;; Return value:  Size  Location     Type
  4051 ;;                  2    3[COMMON] int 
  4052 ;; Registers used:
  4053 ;;		wreg, status,2, status,0
  4054 ;; Tracked objects:
  4055 ;;		On entry : 0/0
  4056 ;;		On exit  : 0/0
  4057 ;;		Unchanged: 0/0
  4058 ;; Data sizes:     COMMON   BANK0   BANK1   BANK3   BANK2
  4059 ;;      Params:         4       0       0       0       0
  4060 ;;      Locals:         0       4       0       0       0
  4061 ;;      Temps:          1       0       0       0       0
  4062 ;;      Totals:         5       4       0       0       0
  4063 ;;Total ram usage:        9 bytes
  4064 ;; Hardware stack levels used: 1
  4065 ;; Hardware stack levels required when called: 1
  4066 ;; This function calls:
  4067 ;;		Nothing
  4068 ;; This function is called by:
  4069 ;;		_Lcd_Write_Int
  4070 ;; This function uses a non-reentrant model
  4071 ;;
  4072                           
  4073     0E65                     ___awdiv:	
  4074                           ;psect for function ___awdiv
  4075                           
  4076     0E65                     l1542:	
  4077                           ;incstack = 0
  4078                           ; Regs used in ___awdiv: [wreg+status,2+status,0]
  4079                           
  4080     0E65  1283               	bcf	3,5	;RP0=0, select bank0
  4081     0E66  1303               	bcf	3,6	;RP1=0, select bank0
  4082     0E67  01A1               	clrf	___awdiv@sign
  4083     0E68                     l1544:
  4084     0E68  1FF4               	btfss	___awdiv@divisor+1,7
  4085     0E69  2E6B               	goto	u1691
  4086     0E6A  2E6C               	goto	u1690
  4087     0E6B                     u1691:
  4088     0E6B  2E73               	goto	l1550
  4089     0E6C                     u1690:
  4090     0E6C                     l1546:
  4091     0E6C  09F3               	comf	___awdiv@divisor,f
  4092     0E6D  09F4               	comf	___awdiv@divisor+1,f
  4093     0E6E  0AF3               	incf	___awdiv@divisor,f
  4094     0E6F  1903               	skipnz
  4095     0E70  0AF4               	incf	___awdiv@divisor+1,f
  4096     0E71                     l1548:
  4097     0E71  01A1               	clrf	___awdiv@sign
  4098     0E72  0AA1               	incf	___awdiv@sign,f
  4099     0E73                     l1550:
  4100     0E73  1FF6               	btfss	___awdiv@dividend+1,7
  4101     0E74  2E76               	goto	u1701
  4102     0E75  2E77               	goto	u1700
  4103     0E76                     u1701:
  4104     0E76  2E80               	goto	l1556
  4105     0E77                     u1700:
  4106     0E77                     l1552:
  4107     0E77  09F5               	comf	___awdiv@dividend,f
  4108     0E78  09F6               	comf	___awdiv@dividend+1,f
  4109     0E79  0AF5               	incf	___awdiv@dividend,f
  4110     0E7A  1903               	skipnz
  4111     0E7B  0AF6               	incf	___awdiv@dividend+1,f
  4112     0E7C                     l1554:
  4113     0E7C  3001               	movlw	1
  4114     0E7D  00F7               	movwf	??___awdiv
  4115     0E7E  0877               	movf	??___awdiv,w
  4116     0E7F  06A1               	xorwf	___awdiv@sign,f
  4117     0E80                     l1556:
  4118     0E80  01A2               	clrf	___awdiv@quotient
  4119     0E81  01A3               	clrf	___awdiv@quotient+1
  4120     0E82                     l1558:
  4121     0E82  0873               	movf	___awdiv@divisor,w
  4122     0E83  0474               	iorwf	___awdiv@divisor+1,w
  4123     0E84  1903               	btfsc	3,2
  4124     0E85  2E87               	goto	u1711
  4125     0E86  2E88               	goto	u1710
  4126     0E87                     u1711:
  4127     0E87  2EBF               	goto	l1578
  4128     0E88                     u1710:
  4129     0E88                     l1560:
  4130     0E88  01A0               	clrf	___awdiv@counter
  4131     0E89  0AA0               	incf	___awdiv@counter,f
  4132     0E8A  2E96               	goto	l1566
  4133     0E8B                     l1562:
  4134     0E8B  3001               	movlw	1
  4135     0E8C                     u1725:
  4136     0E8C  1003               	clrc
  4137     0E8D  0DF3               	rlf	___awdiv@divisor,f
  4138     0E8E  0DF4               	rlf	___awdiv@divisor+1,f
  4139     0E8F  3EFF               	addlw	-1
  4140     0E90  1D03               	skipz
  4141     0E91  2E8C               	goto	u1725
  4142     0E92                     l1564:
  4143     0E92  3001               	movlw	1
  4144     0E93  00F7               	movwf	??___awdiv
  4145     0E94  0877               	movf	??___awdiv,w
  4146     0E95  07A0               	addwf	___awdiv@counter,f
  4147     0E96                     l1566:
  4148     0E96  1FF4               	btfss	___awdiv@divisor+1,7
  4149     0E97  2E99               	goto	u1731
  4150     0E98  2E9A               	goto	u1730
  4151     0E99                     u1731:
  4152     0E99  2E8B               	goto	l1562
  4153     0E9A                     u1730:
  4154     0E9A                     l1568:
  4155     0E9A  3001               	movlw	1
  4156     0E9B                     u1745:
  4157     0E9B  1003               	clrc
  4158     0E9C  0DA2               	rlf	___awdiv@quotient,f
  4159     0E9D  0DA3               	rlf	___awdiv@quotient+1,f
  4160     0E9E  3EFF               	addlw	-1
  4161     0E9F  1D03               	skipz
  4162     0EA0  2E9B               	goto	u1745
  4163     0EA1  0874               	movf	___awdiv@divisor+1,w
  4164     0EA2  0276               	subwf	___awdiv@dividend+1,w
  4165     0EA3  1D03               	skipz
  4166     0EA4  2EA7               	goto	u1755
  4167     0EA5  0873               	movf	___awdiv@divisor,w
  4168     0EA6  0275               	subwf	___awdiv@dividend,w
  4169     0EA7                     u1755:
  4170     0EA7  1C03               	skipc
  4171     0EA8  2EAA               	goto	u1751
  4172     0EA9  2EAB               	goto	u1750
  4173     0EAA                     u1751:
  4174     0EAA  2EB2               	goto	l1574
  4175     0EAB                     u1750:
  4176     0EAB                     l1570:
  4177     0EAB  0873               	movf	___awdiv@divisor,w
  4178     0EAC  02F5               	subwf	___awdiv@dividend,f
  4179     0EAD  0874               	movf	___awdiv@divisor+1,w
  4180     0EAE  1C03               	skipc
  4181     0EAF  03F6               	decf	___awdiv@dividend+1,f
  4182     0EB0  02F6               	subwf	___awdiv@dividend+1,f
  4183     0EB1                     l1572:
  4184     0EB1  1422               	bsf	___awdiv@quotient,0
  4185     0EB2                     l1574:
  4186     0EB2  3001               	movlw	1
  4187     0EB3                     u1765:
  4188     0EB3  1003               	clrc
  4189     0EB4  0CF4               	rrf	___awdiv@divisor+1,f
  4190     0EB5  0CF3               	rrf	___awdiv@divisor,f
  4191     0EB6  3EFF               	addlw	-1
  4192     0EB7  1D03               	skipz
  4193     0EB8  2EB3               	goto	u1765
  4194     0EB9                     l1576:
  4195     0EB9  3001               	movlw	1
  4196     0EBA  02A0               	subwf	___awdiv@counter,f
  4197     0EBB  1D03               	btfss	3,2
  4198     0EBC  2EBE               	goto	u1771
  4199     0EBD  2EBF               	goto	u1770
  4200     0EBE                     u1771:
  4201     0EBE  2E9A               	goto	l1568
  4202     0EBF                     u1770:
  4203     0EBF                     l1578:
  4204     0EBF  0821               	movf	___awdiv@sign,w
  4205     0EC0  1903               	btfsc	3,2
  4206     0EC1  2EC3               	goto	u1781
  4207     0EC2  2EC4               	goto	u1780
  4208     0EC3                     u1781:
  4209     0EC3  2EC9               	goto	l1582
  4210     0EC4                     u1780:
  4211     0EC4                     l1580:
  4212     0EC4  09A2               	comf	___awdiv@quotient,f
  4213     0EC5  09A3               	comf	___awdiv@quotient+1,f
  4214     0EC6  0AA2               	incf	___awdiv@quotient,f
  4215     0EC7  1903               	skipnz
  4216     0EC8  0AA3               	incf	___awdiv@quotient+1,f
  4217     0EC9                     l1582:
  4218     0EC9  0823               	movf	___awdiv@quotient+1,w
  4219     0ECA  00F4               	movwf	?___awdiv+1
  4220     0ECB  0822               	movf	___awdiv@quotient,w
  4221     0ECC  00F3               	movwf	?___awdiv
  4222     0ECD                     l377:
  4223     0ECD  0008               	return
  4224     0ECE                     __end_of___awdiv:
  4225                           
  4226                           	psect	text11
  4227     0D74                     __ptext11:	
  4228 ;; *************** function _Lcd_Write_String *****************
  4229 ;; Defined at:
  4230 ;;		line 108 in file "./lcd.h"
  4231 ;; Parameters:    Size  Location     Type
  4232 ;;  a               2    8[COMMON] PTR unsigned char 
  4233 ;;		 -> STR_1(3), Lcd_Write_Int@buffer(50), 
  4234 ;; Auto vars:     Size  Location     Type
  4235 ;;  i               2    3[BANK0 ] int 
  4236 ;; Return value:  Size  Location     Type
  4237 ;;                  1    wreg      void 
  4238 ;; Registers used:
  4239 ;;		wreg, fsr0l, fsr0h, status,2, status,0, btemp+1, pclath, cstack
  4240 ;; Tracked objects:
  4241 ;;		On entry : 0/0
  4242 ;;		On exit  : 0/0
  4243 ;;		Unchanged: 0/0
  4244 ;; Data sizes:     COMMON   BANK0   BANK1   BANK3   BANK2
  4245 ;;      Params:         2       0       0       0       0
  4246 ;;      Locals:         0       2       0       0       0
  4247 ;;      Temps:          0       3       0       0       0
  4248 ;;      Totals:         2       5       0       0       0
  4249 ;;Total ram usage:        7 bytes
  4250 ;; Hardware stack levels used: 1
  4251 ;; Hardware stack levels required when called: 3
  4252 ;; This function calls:
  4253 ;;		_Lcd_Write_Char
  4254 ;; This function is called by:
  4255 ;;		_Lcd_Write_Int
  4256 ;;		_main
  4257 ;; This function uses a non-reentrant model
  4258 ;;
  4259                           
  4260     0D74                     _Lcd_Write_String:	
  4261                           ;psect for function _Lcd_Write_String
  4262                           
  4263     0D74                     l1534:	
  4264                           ;incstack = 0
  4265                           ; Regs used in _Lcd_Write_String: [wreg-fsr0h+status,2+status,0+btemp+1+pclath+cstack]
  4266                           
  4267                           
  4268                           ;./lcd.h: 109:     int i;;./lcd.h: 110:     for (i = 0; a[i] != '\0'; i++)
  4269     0D74  1283               	bcf	3,5	;RP0=0, select bank0
  4270     0D75  1303               	bcf	3,6	;RP1=0, select bank0
  4271     0D76  01A3               	clrf	Lcd_Write_String@i
  4272     0D77  01A4               	clrf	Lcd_Write_String@i+1
  4273     0D78  2D9D               	goto	l1540
  4274     0D79                     l1536:
  4275                           
  4276                           ;./lcd.h: 111:         Lcd_Write_Char(a[i]);
  4277     0D79  0823               	movf	Lcd_Write_String@i,w
  4278     0D7A  0778               	addwf	Lcd_Write_String@a,w
  4279     0D7B  00A1               	movwf	??_Lcd_Write_String+1
  4280     0D7C  0879               	movf	Lcd_Write_String@a+1,w
  4281     0D7D  00A0               	movwf	??_Lcd_Write_String
  4282     0D7E  1803               	skipnc
  4283     0D7F  0AA0               	incf	??_Lcd_Write_String,f
  4284     0D80  1FA3               	btfss	Lcd_Write_String@i,7
  4285     0D81  2D83               	goto	u1660
  4286     0D82  03A0               	decf	??_Lcd_Write_String,f
  4287     0D83                     u1660:
  4288     0D83  1283               	bcf	3,5	;RP0=0, select bank0
  4289     0D84  1303               	bcf	3,6	;RP1=0, select bank0
  4290     0D85  0820               	movf	??_Lcd_Write_String,w
  4291     0D86  00A2               	movwf	??_Lcd_Write_String+2
  4292     0D87  0822               	movf	??_Lcd_Write_String+2,w
  4293     0D88  00FF               	movwf	btemp+1
  4294     0D89  0821               	movf	??_Lcd_Write_String+1,w
  4295     0D8A  0084               	movwf	4
  4296     0D8B  120A  118A  27ED  120A  158A  	fcall	stringtab
  4297     0D90  120A  158A  24CB  120A  158A  	fcall	_Lcd_Write_Char
  4298     0D95                     l1538:
  4299     0D95  3001               	movlw	1
  4300     0D96  1283               	bcf	3,5	;RP0=0, select bank0
  4301     0D97  1303               	bcf	3,6	;RP1=0, select bank0
  4302     0D98  07A3               	addwf	Lcd_Write_String@i,f
  4303     0D99  1803               	skipnc
  4304     0D9A  0AA4               	incf	Lcd_Write_String@i+1,f
  4305     0D9B  3000               	movlw	0
  4306     0D9C  07A4               	addwf	Lcd_Write_String@i+1,f
  4307     0D9D                     l1540:
  4308     0D9D  0823               	movf	Lcd_Write_String@i,w
  4309     0D9E  0778               	addwf	Lcd_Write_String@a,w
  4310     0D9F  00A1               	movwf	??_Lcd_Write_String+1
  4311     0DA0  0879               	movf	Lcd_Write_String@a+1,w
  4312     0DA1  00A0               	movwf	??_Lcd_Write_String
  4313     0DA2  1803               	skipnc
  4314     0DA3  0AA0               	incf	??_Lcd_Write_String,f
  4315     0DA4  1FA3               	btfss	Lcd_Write_String@i,7
  4316     0DA5  2DA7               	goto	u1670
  4317     0DA6  03A0               	decf	??_Lcd_Write_String,f
  4318     0DA7                     u1670:
  4319     0DA7  1283               	bcf	3,5	;RP0=0, select bank0
  4320     0DA8  1303               	bcf	3,6	;RP1=0, select bank0
  4321     0DA9  0820               	movf	??_Lcd_Write_String,w
  4322     0DAA  00A2               	movwf	??_Lcd_Write_String+2
  4323     0DAB  0822               	movf	??_Lcd_Write_String+2,w
  4324     0DAC  00FF               	movwf	btemp+1
  4325     0DAD  0821               	movf	??_Lcd_Write_String+1,w
  4326     0DAE  0084               	movwf	4
  4327     0DAF  120A  118A  27ED  120A  158A  	fcall	stringtab
  4328     0DB4  3A00               	xorlw	0
  4329     0DB5  1D03               	skipz
  4330     0DB6  2DB8               	goto	u1681
  4331     0DB7  2DB9               	goto	u1680
  4332     0DB8                     u1681:
  4333     0DB8  2D79               	goto	l1536
  4334     0DB9                     u1680:
  4335     0DB9                     l88:
  4336     0DB9  0008               	return
  4337     0DBA                     __end_of_Lcd_Write_String:
  4338                           
  4339                           	psect	text12
  4340     0CCB                     __ptext12:	
  4341 ;; *************** function _Lcd_Write_Char *****************
  4342 ;; Defined at:
  4343 ;;		line 91 in file "./lcd.h"
  4344 ;; Parameters:    Size  Location     Type
  4345 ;;  a               1    wreg     unsigned char 
  4346 ;; Auto vars:     Size  Location     Type
  4347 ;;  a               1    7[COMMON] unsigned char 
  4348 ;;  y               1    6[COMMON] unsigned char 
  4349 ;;  temp            1    5[COMMON] unsigned char 
  4350 ;; Return value:  Size  Location     Type
  4351 ;;                  1    wreg      void 
  4352 ;; Registers used:
  4353 ;;		wreg, status,2, status,0, pclath, cstack
  4354 ;; Tracked objects:
  4355 ;;		On entry : 0/0
  4356 ;;		On exit  : 0/0
  4357 ;;		Unchanged: 0/0
  4358 ;; Data sizes:     COMMON   BANK0   BANK1   BANK3   BANK2
  4359 ;;      Params:         0       0       0       0       0
  4360 ;;      Locals:         3       0       0       0       0
  4361 ;;      Temps:          1       0       0       0       0
  4362 ;;      Totals:         4       0       0       0       0
  4363 ;;Total ram usage:        4 bytes
  4364 ;; Hardware stack levels used: 1
  4365 ;; Hardware stack levels required when called: 2
  4366 ;; This function calls:
  4367 ;;		_Lcd_Port
  4368 ;; This function is called by:
  4369 ;;		_Lcd_Write_String
  4370 ;; This function uses a non-reentrant model
  4371 ;;
  4372                           
  4373     0CCB                     _Lcd_Write_Char:	
  4374                           ;psect for function _Lcd_Write_Char
  4375                           
  4376                           
  4377                           ;incstack = 0
  4378                           ; Regs used in _Lcd_Write_Char: [wreg+status,2+status,0+pclath+cstack]
  4379                           ;Lcd_Write_Char@a stored from wreg
  4380     0CCB  00F7               	movwf	Lcd_Write_Char@a
  4381     0CCC                     l1500:
  4382                           
  4383                           ;./lcd.h: 92:     char temp, y;;./lcd.h: 93:     temp = a & 0x0F;
  4384     0CCC  0877               	movf	Lcd_Write_Char@a,w
  4385     0CCD  390F               	andlw	15
  4386     0CCE  00F5               	movwf	Lcd_Write_Char@temp
  4387                           
  4388                           ;./lcd.h: 94:     y = a & 0xF0;
  4389     0CCF  0877               	movf	Lcd_Write_Char@a,w
  4390     0CD0  39F0               	andlw	240
  4391     0CD1  00F6               	movwf	Lcd_Write_Char@y
  4392     0CD2                     l1502:
  4393                           
  4394                           ;./lcd.h: 96:     PORTEbits.RE2 = 1;
  4395     0CD2  1283               	bcf	3,5	;RP0=0, select bank0
  4396     0CD3  1303               	bcf	3,6	;RP1=0, select bank0
  4397     0CD4  1509               	bsf	9,2	;volatile
  4398     0CD5                     l1504:
  4399                           
  4400                           ;./lcd.h: 98:     Lcd_Port(y >> 4);
  4401     0CD5  0876               	movf	Lcd_Write_Char@y,w
  4402     0CD6  00F4               	movwf	??_Lcd_Write_Char
  4403     0CD7  3004               	movlw	4
  4404     0CD8                     u1655:
  4405     0CD8  1003               	clrc
  4406     0CD9  0CF4               	rrf	??_Lcd_Write_Char,f
  4407     0CDA  3EFF               	addlw	-1
  4408     0CDB  1D03               	skipz
  4409     0CDC  2CD8               	goto	u1655
  4410     0CDD  0874               	movf	??_Lcd_Write_Char,w
  4411     0CDE  120A  158A  2432  120A  158A  	fcall	_Lcd_Port
  4412     0CE3                     l1506:
  4413                           
  4414                           ;./lcd.h: 99:     PORTEbits.RE1 = 1;
  4415     0CE3  1283               	bcf	3,5	;RP0=0, select bank0
  4416     0CE4  1303               	bcf	3,6	;RP1=0, select bank0
  4417     0CE5  1489               	bsf	9,1	;volatile
  4418     0CE6                     l1508:
  4419                           
  4420                           ;./lcd.h: 100:     _delay((unsigned long)((4)*(20*1000000/4000000.0)));
  4421     0CE6  3006               	movlw	6
  4422     0CE7  00F4               	movwf	??_Lcd_Write_Char
  4423     0CE8                     u4077:
  4424     0CE8  0BF4               	decfsz	??_Lcd_Write_Char,f
  4425     0CE9  2CE8               	goto	u4077
  4426     0CEA  0000               	nop
  4427     0CEB                     l1510:
  4428                           
  4429                           ;./lcd.h: 101:     PORTEbits.RE1 = 0;
  4430     0CEB  1283               	bcf	3,5	;RP0=0, select bank0
  4431     0CEC  1303               	bcf	3,6	;RP1=0, select bank0
  4432     0CED  1089               	bcf	9,1	;volatile
  4433     0CEE                     l1512:
  4434                           
  4435                           ;./lcd.h: 102:     Lcd_Port(temp);
  4436     0CEE  0875               	movf	Lcd_Write_Char@temp,w
  4437     0CEF  120A  158A  2432  120A  158A  	fcall	_Lcd_Port
  4438     0CF4                     l1514:
  4439                           
  4440                           ;./lcd.h: 103:     PORTEbits.RE1 = 1;
  4441     0CF4  1283               	bcf	3,5	;RP0=0, select bank0
  4442     0CF5  1303               	bcf	3,6	;RP1=0, select bank0
  4443     0CF6  1489               	bsf	9,1	;volatile
  4444     0CF7                     l1516:
  4445                           
  4446                           ;./lcd.h: 104:     _delay((unsigned long)((4)*(20*1000000/4000000.0)));
  4447     0CF7  3006               	movlw	6
  4448     0CF8  00F4               	movwf	??_Lcd_Write_Char
  4449     0CF9                     u4087:
  4450     0CF9  0BF4               	decfsz	??_Lcd_Write_Char,f
  4451     0CFA  2CF9               	goto	u4087
  4452     0CFB  0000               	nop
  4453     0CFC                     l1518:
  4454                           
  4455                           ;./lcd.h: 105:     PORTEbits.RE1 = 0;
  4456     0CFC  1283               	bcf	3,5	;RP0=0, select bank0
  4457     0CFD  1303               	bcf	3,6	;RP1=0, select bank0
  4458     0CFE  1089               	bcf	9,1	;volatile
  4459     0CFF                     l82:
  4460     0CFF  0008               	return
  4461     0D00                     __end_of_Lcd_Write_Char:
  4462                           
  4463                           	psect	text13
  4464     07A2                     __ptext13:	
  4465 ;; *************** function _Lcd_Set_Cursor *****************
  4466 ;; Defined at:
  4467 ;;		line 73 in file "./lcd.h"
  4468 ;; Parameters:    Size  Location     Type
  4469 ;;  riga            1    wreg     unsigned char 
  4470 ;;  colonna         1    7[COMMON] unsigned char 
  4471 ;; Auto vars:     Size  Location     Type
  4472 ;;  riga            1    0[BANK0 ] unsigned char 
  4473 ;;  temp            1    3[BANK0 ] unsigned char 
  4474 ;;  y               1    2[BANK0 ] unsigned char 
  4475 ;;  z               1    1[BANK0 ] unsigned char 
  4476 ;; Return value:  Size  Location     Type
  4477 ;;                  1    wreg      void 
  4478 ;; Registers used:
  4479 ;;		wreg, status,2, status,0, pclath, cstack
  4480 ;; Tracked objects:
  4481 ;;		On entry : 0/0
  4482 ;;		On exit  : 0/0
  4483 ;;		Unchanged: 0/0
  4484 ;; Data sizes:     COMMON   BANK0   BANK1   BANK3   BANK2
  4485 ;;      Params:         1       0       0       0       0
  4486 ;;      Locals:         0       4       0       0       0
  4487 ;;      Temps:          1       0       0       0       0
  4488 ;;      Totals:         2       4       0       0       0
  4489 ;;Total ram usage:        6 bytes
  4490 ;; Hardware stack levels used: 1
  4491 ;; Hardware stack levels required when called: 3
  4492 ;; This function calls:
  4493 ;;		_Lcd_Cmd
  4494 ;; This function is called by:
  4495 ;;		_main
  4496 ;; This function uses a non-reentrant model
  4497 ;;
  4498                           
  4499     07A2                     _Lcd_Set_Cursor:	
  4500                           ;psect for function _Lcd_Set_Cursor
  4501                           
  4502                           
  4503                           ;incstack = 0
  4504                           ; Regs used in _Lcd_Set_Cursor: [wreg+status,2+status,0+pclath+cstack]
  4505                           ;Lcd_Set_Cursor@riga stored from wreg
  4506     07A2  1283               	bcf	3,5	;RP0=0, select bank0
  4507     07A3  1303               	bcf	3,6	;RP1=0, select bank0
  4508     07A4  00A0               	movwf	Lcd_Set_Cursor@riga
  4509     07A5                     l1888:
  4510                           
  4511                           ;./lcd.h: 73: void Lcd_Set_Cursor(char riga, char colonna);./lcd.h: 74: {;./lcd.h: 75:  
      +                             char temp, z, y;;./lcd.h: 76:     if (riga == 0) {
  4512     07A5  0820               	movf	Lcd_Set_Cursor@riga,w
  4513     07A6  1D03               	btfss	3,2
  4514     07A7  2FA9               	goto	u2441
  4515     07A8  2FAA               	goto	u2440
  4516     07A9                     u2441:
  4517     07A9  2FC9               	goto	l1898
  4518     07AA                     u2440:
  4519     07AA                     l1890:
  4520                           
  4521                           ;./lcd.h: 77:         temp = 0x80 + colonna;
  4522     07AA  0877               	movf	Lcd_Set_Cursor@colonna,w
  4523     07AB  3E80               	addlw	128
  4524     07AC  00A3               	movwf	Lcd_Set_Cursor@temp
  4525                           
  4526                           ;./lcd.h: 78:         z = temp >> 4;
  4527     07AD  0823               	movf	Lcd_Set_Cursor@temp,w
  4528     07AE  00F8               	movwf	??_Lcd_Set_Cursor
  4529     07AF  3004               	movlw	4
  4530     07B0                     u2455:
  4531     07B0  1003               	clrc
  4532     07B1  0CF8               	rrf	??_Lcd_Set_Cursor,f
  4533     07B2  3EFF               	addlw	-1
  4534     07B3  1D03               	skipz
  4535     07B4  2FB0               	goto	u2455
  4536     07B5  0878               	movf	??_Lcd_Set_Cursor,w
  4537     07B6  00A1               	movwf	Lcd_Set_Cursor@z
  4538     07B7                     l1892:
  4539                           
  4540                           ;./lcd.h: 79:         y = temp & 0x0F;
  4541     07B7  0823               	movf	Lcd_Set_Cursor@temp,w
  4542     07B8  390F               	andlw	15
  4543     07B9  00A2               	movwf	Lcd_Set_Cursor@y
  4544     07BA                     l1894:
  4545                           
  4546                           ;./lcd.h: 80:         Lcd_Cmd(z);
  4547     07BA  0821               	movf	Lcd_Set_Cursor@z,w
  4548     07BB  120A  158A  2411  120A  118A  	fcall	_Lcd_Cmd
  4549     07C0                     l1896:
  4550                           
  4551                           ;./lcd.h: 81:         Lcd_Cmd(y);
  4552     07C0  1283               	bcf	3,5	;RP0=0, select bank0
  4553     07C1  1303               	bcf	3,6	;RP1=0, select bank0
  4554     07C2  0822               	movf	Lcd_Set_Cursor@y,w
  4555     07C3  120A  158A  2411  120A  118A  	fcall	_Lcd_Cmd
  4556                           
  4557                           ;./lcd.h: 82:     } else if (riga >= 1) {
  4558     07C8  2FEC               	goto	l79
  4559     07C9                     l1898:
  4560     07C9  0820               	movf	Lcd_Set_Cursor@riga,w
  4561     07CA  1903               	btfsc	3,2
  4562     07CB  2FCD               	goto	u2461
  4563     07CC  2FCE               	goto	u2460
  4564     07CD                     u2461:
  4565     07CD  2FEC               	goto	l79
  4566     07CE                     u2460:
  4567     07CE                     l1900:
  4568                           
  4569                           ;./lcd.h: 83:         temp = 0xC0 + colonna;
  4570     07CE  0877               	movf	Lcd_Set_Cursor@colonna,w
  4571     07CF  3EC0               	addlw	192
  4572     07D0  00A3               	movwf	Lcd_Set_Cursor@temp
  4573                           
  4574                           ;./lcd.h: 84:         z = temp >> 4;
  4575     07D1  0823               	movf	Lcd_Set_Cursor@temp,w
  4576     07D2  00F8               	movwf	??_Lcd_Set_Cursor
  4577     07D3  3004               	movlw	4
  4578     07D4                     u2475:
  4579     07D4  1003               	clrc
  4580     07D5  0CF8               	rrf	??_Lcd_Set_Cursor,f
  4581     07D6  3EFF               	addlw	-1
  4582     07D7  1D03               	skipz
  4583     07D8  2FD4               	goto	u2475
  4584     07D9  0878               	movf	??_Lcd_Set_Cursor,w
  4585     07DA  00A1               	movwf	Lcd_Set_Cursor@z
  4586     07DB                     l1902:
  4587                           
  4588                           ;./lcd.h: 85:         y = temp & 0x0F;
  4589     07DB  0823               	movf	Lcd_Set_Cursor@temp,w
  4590     07DC  390F               	andlw	15
  4591     07DD  00A2               	movwf	Lcd_Set_Cursor@y
  4592     07DE                     l1904:
  4593                           
  4594                           ;./lcd.h: 86:         Lcd_Cmd(z);
  4595     07DE  0821               	movf	Lcd_Set_Cursor@z,w
  4596     07DF  120A  158A  2411  120A  118A  	fcall	_Lcd_Cmd
  4597     07E4                     l1906:
  4598                           
  4599                           ;./lcd.h: 87:         Lcd_Cmd(y);
  4600     07E4  1283               	bcf	3,5	;RP0=0, select bank0
  4601     07E5  1303               	bcf	3,6	;RP1=0, select bank0
  4602     07E6  0822               	movf	Lcd_Set_Cursor@y,w
  4603     07E7  120A  158A  2411  120A  118A  	fcall	_Lcd_Cmd
  4604     07EC                     l79:
  4605     07EC  0008               	return
  4606     07ED                     __end_of_Lcd_Set_Cursor:
  4607                           
  4608                           	psect	text14
  4609     0E00                     __ptext14:	
  4610 ;; *************** function _Lcd_Init *****************
  4611 ;; Defined at:
  4612 ;;		line 44 in file "./lcd.h"
  4613 ;; Parameters:    Size  Location     Type
  4614 ;;		None
  4615 ;; Auto vars:     Size  Location     Type
  4616 ;;		None
  4617 ;; Return value:  Size  Location     Type
  4618 ;;                  1    wreg      void 
  4619 ;; Registers used:
  4620 ;;		wreg, status,2, status,0, pclath, cstack
  4621 ;; Tracked objects:
  4622 ;;		On entry : 0/0
  4623 ;;		On exit  : 0/0
  4624 ;;		Unchanged: 0/0
  4625 ;; Data sizes:     COMMON   BANK0   BANK1   BANK3   BANK2
  4626 ;;      Params:         0       0       0       0       0
  4627 ;;      Locals:         0       0       0       0       0
  4628 ;;      Temps:          2       0       0       0       0
  4629 ;;      Totals:         2       0       0       0       0
  4630 ;;Total ram usage:        2 bytes
  4631 ;; Hardware stack levels used: 1
  4632 ;; Hardware stack levels required when called: 3
  4633 ;; This function calls:
  4634 ;;		_Lcd_Cmd
  4635 ;;		_Lcd_Port
  4636 ;; This function is called by:
  4637 ;;		_main
  4638 ;; This function uses a non-reentrant model
  4639 ;;
  4640                           
  4641     0E00                     _Lcd_Init:	
  4642                           ;psect for function _Lcd_Init
  4643                           
  4644     0E00                     l1854:	
  4645                           ;incstack = 0
  4646                           ; Regs used in _Lcd_Init: [wreg+status,2+status,0+pclath+cstack]
  4647                           
  4648                           
  4649                           ;./lcd.h: 45:     TRISD &= ~0xff;
  4650     0E00  1683               	bsf	3,5	;RP0=1, select bank1
  4651     0E01  1303               	bcf	3,6	;RP1=0, select bank1
  4652     0E02  0188               	clrf	8	;volatile
  4653     0E03                     l1856:
  4654                           
  4655                           ;./lcd.h: 46:     TRISE &= ~0x06;
  4656     0E03  30F9               	movlw	249
  4657     0E04  00F7               	movwf	??_Lcd_Init
  4658     0E05  0877               	movf	??_Lcd_Init,w
  4659     0E06  0589               	andwf	9,f	;volatile
  4660     0E07                     l1858:
  4661                           
  4662                           ;./lcd.h: 47:     Lcd_Port(0x00);
  4663     0E07  3000               	movlw	0
  4664     0E08  120A  158A  2432  120A  158A  	fcall	_Lcd_Port
  4665     0E0D                     l1860:
  4666                           
  4667                           ;./lcd.h: 48:     _delay((unsigned long)((20)*(20*1000000/4000.0)));
  4668     0E0D  3082               	movlw	130
  4669     0E0E  00F8               	movwf	??_Lcd_Init+1
  4670     0E0F  30DD               	movlw	221
  4671     0E10  00F7               	movwf	??_Lcd_Init
  4672     0E11                     u4097:
  4673     0E11  0BF7               	decfsz	??_Lcd_Init,f
  4674     0E12  2E11               	goto	u4097
  4675     0E13  0BF8               	decfsz	??_Lcd_Init+1,f
  4676     0E14  2E11               	goto	u4097
  4677     0E15  2E16               	nop2
  4678     0E16                     l1862:
  4679                           
  4680                           ;./lcd.h: 49:     Lcd_Cmd(0x03);
  4681     0E16  3003               	movlw	3
  4682     0E17  120A  158A  2411  120A  158A  	fcall	_Lcd_Cmd
  4683     0E1C                     l1864:
  4684                           
  4685                           ;./lcd.h: 50:     _delay((unsigned long)((5)*(20*1000000/4000.0)));
  4686     0E1C  3021               	movlw	33
  4687     0E1D  00F8               	movwf	??_Lcd_Init+1
  4688     0E1E  3076               	movlw	118
  4689     0E1F  00F7               	movwf	??_Lcd_Init
  4690     0E20                     u4107:
  4691     0E20  0BF7               	decfsz	??_Lcd_Init,f
  4692     0E21  2E20               	goto	u4107
  4693     0E22  0BF8               	decfsz	??_Lcd_Init+1,f
  4694     0E23  2E20               	goto	u4107
  4695     0E24  0000               	nop
  4696     0E25                     l1866:
  4697                           
  4698                           ;./lcd.h: 51:     Lcd_Cmd(0x03);
  4699     0E25  3003               	movlw	3
  4700     0E26  120A  158A  2411  120A  158A  	fcall	_Lcd_Cmd
  4701     0E2B                     l1868:
  4702                           
  4703                           ;./lcd.h: 52:     _delay((unsigned long)((10)*(20*1000000/4000.0)));
  4704     0E2B  3041               	movlw	65
  4705     0E2C  00F8               	movwf	??_Lcd_Init+1
  4706     0E2D  30EE               	movlw	238
  4707     0E2E  00F7               	movwf	??_Lcd_Init
  4708     0E2F                     u4117:
  4709     0E2F  0BF7               	decfsz	??_Lcd_Init,f
  4710     0E30  2E2F               	goto	u4117
  4711     0E31  0BF8               	decfsz	??_Lcd_Init+1,f
  4712     0E32  2E2F               	goto	u4117
  4713     0E33  0000               	nop
  4714     0E34                     l1870:
  4715                           
  4716                           ;./lcd.h: 53:     Lcd_Cmd(0x03);
  4717     0E34  3003               	movlw	3
  4718     0E35  120A  158A  2411  120A  158A  	fcall	_Lcd_Cmd
  4719     0E3A                     l1872:
  4720                           
  4721                           ;./lcd.h: 55:     Lcd_Cmd(0x02);
  4722     0E3A  3002               	movlw	2
  4723     0E3B  120A  158A  2411  120A  158A  	fcall	_Lcd_Cmd
  4724     0E40                     l1874:
  4725                           
  4726                           ;./lcd.h: 57:     Lcd_Cmd(0x02);
  4727     0E40  3002               	movlw	2
  4728     0E41  120A  158A  2411  120A  158A  	fcall	_Lcd_Cmd
  4729     0E46                     l1876:
  4730                           
  4731                           ;./lcd.h: 58:     Lcd_Cmd(0x08);
  4732     0E46  3008               	movlw	8
  4733     0E47  120A  158A  2411  120A  158A  	fcall	_Lcd_Cmd
  4734     0E4C                     l1878:
  4735                           
  4736                           ;./lcd.h: 60:     Lcd_Cmd(0x00);
  4737     0E4C  3000               	movlw	0
  4738     0E4D  120A  158A  2411  120A  158A  	fcall	_Lcd_Cmd
  4739     0E52                     l1880:
  4740                           
  4741                           ;./lcd.h: 61:     Lcd_Cmd(0x0C);
  4742     0E52  300C               	movlw	12
  4743     0E53  120A  158A  2411  120A  158A  	fcall	_Lcd_Cmd
  4744     0E58                     l1882:
  4745                           
  4746                           ;./lcd.h: 63:     Lcd_Cmd(0x00);
  4747     0E58  3000               	movlw	0
  4748     0E59  120A  158A  2411  120A  158A  	fcall	_Lcd_Cmd
  4749     0E5E                     l1884:
  4750                           
  4751                           ;./lcd.h: 64:     Lcd_Cmd(0x06);
  4752     0E5E  3006               	movlw	6
  4753     0E5F  120A  158A  2411  120A  158A  	fcall	_Lcd_Cmd
  4754     0E64                     l70:
  4755     0E64  0008               	return
  4756     0E65                     __end_of_Lcd_Init:
  4757                           
  4758                           	psect	text15
  4759     0C04                     __ptext15:	
  4760 ;; *************** function _Lcd_Clear *****************
  4761 ;; Defined at:
  4762 ;;		line 67 in file "./lcd.h"
  4763 ;; Parameters:    Size  Location     Type
  4764 ;;		None
  4765 ;; Auto vars:     Size  Location     Type
  4766 ;;		None
  4767 ;; Return value:  Size  Location     Type
  4768 ;;                  1    wreg      void 
  4769 ;; Registers used:
  4770 ;;		wreg, status,2, status,0, pclath, cstack
  4771 ;; Tracked objects:
  4772 ;;		On entry : 0/0
  4773 ;;		On exit  : 0/0
  4774 ;;		Unchanged: 0/0
  4775 ;; Data sizes:     COMMON   BANK0   BANK1   BANK3   BANK2
  4776 ;;      Params:         0       0       0       0       0
  4777 ;;      Locals:         0       0       0       0       0
  4778 ;;      Temps:          0       0       0       0       0
  4779 ;;      Totals:         0       0       0       0       0
  4780 ;;Total ram usage:        0 bytes
  4781 ;; Hardware stack levels used: 1
  4782 ;; Hardware stack levels required when called: 3
  4783 ;; This function calls:
  4784 ;;		_Lcd_Cmd
  4785 ;; This function is called by:
  4786 ;;		_main
  4787 ;; This function uses a non-reentrant model
  4788 ;;
  4789                           
  4790     0C04                     _Lcd_Clear:	
  4791                           ;psect for function _Lcd_Clear
  4792                           
  4793     0C04                     l1886:	
  4794                           ;incstack = 0
  4795                           ; Regs used in _Lcd_Clear: [wreg+status,2+status,0+pclath+cstack]
  4796                           
  4797                           
  4798                           ;./lcd.h: 69:     Lcd_Cmd(0);
  4799     0C04  3000               	movlw	0
  4800     0C05  120A  158A  2411  120A  158A  	fcall	_Lcd_Cmd
  4801                           
  4802                           ;./lcd.h: 70:     Lcd_Cmd(1);
  4803     0C0A  3001               	movlw	1
  4804     0C0B  120A  158A  2411  120A  158A  	fcall	_Lcd_Cmd
  4805     0C10                     l73:
  4806     0C10  0008               	return
  4807     0C11                     __end_of_Lcd_Clear:
  4808                           
  4809                           	psect	text16
  4810     0C11                     __ptext16:	
  4811 ;; *************** function _Lcd_Cmd *****************
  4812 ;; Defined at:
  4813 ;;		line 32 in file "./lcd.h"
  4814 ;; Parameters:    Size  Location     Type
  4815 ;;  a               1    wreg     unsigned char 
  4816 ;; Auto vars:     Size  Location     Type
  4817 ;;  a               1    6[COMMON] unsigned char 
  4818 ;; Return value:  Size  Location     Type
  4819 ;;                  1    wreg      void 
  4820 ;; Registers used:
  4821 ;;		wreg, status,2, status,0, pclath, cstack
  4822 ;; Tracked objects:
  4823 ;;		On entry : 0/0
  4824 ;;		On exit  : 0/0
  4825 ;;		Unchanged: 0/0
  4826 ;; Data sizes:     COMMON   BANK0   BANK1   BANK3   BANK2
  4827 ;;      Params:         0       0       0       0       0
  4828 ;;      Locals:         1       0       0       0       0
  4829 ;;      Temps:          2       0       0       0       0
  4830 ;;      Totals:         3       0       0       0       0
  4831 ;;Total ram usage:        3 bytes
  4832 ;; Hardware stack levels used: 1
  4833 ;; Hardware stack levels required when called: 2
  4834 ;; This function calls:
  4835 ;;		_Lcd_Port
  4836 ;; This function is called by:
  4837 ;;		_Lcd_Init
  4838 ;;		_Lcd_Clear
  4839 ;;		_Lcd_Set_Cursor
  4840 ;;		_Lcd_Shift_Right
  4841 ;;		_Lcd_Shift_Left
  4842 ;; This function uses a non-reentrant model
  4843 ;;
  4844                           
  4845     0C11                     _Lcd_Cmd:	
  4846                           ;psect for function _Lcd_Cmd
  4847                           
  4848                           
  4849                           ;incstack = 0
  4850                           ; Regs used in _Lcd_Cmd: [wreg+status,2+status,0+pclath+cstack]
  4851                           ;Lcd_Cmd@a stored from wreg
  4852     0C11  00F6               	movwf	Lcd_Cmd@a
  4853     0C12                     l1520:
  4854                           
  4855                           ;./lcd.h: 33:     TRISD &= ~0xff;
  4856     0C12  1683               	bsf	3,5	;RP0=1, select bank1
  4857     0C13  1303               	bcf	3,6	;RP1=0, select bank1
  4858     0C14  0188               	clrf	8	;volatile
  4859     0C15                     l1522:
  4860                           
  4861                           ;./lcd.h: 34:     TRISE &= ~0x06;
  4862     0C15  30F9               	movlw	249
  4863     0C16  00F4               	movwf	??_Lcd_Cmd
  4864     0C17  0874               	movf	??_Lcd_Cmd,w
  4865     0C18  0589               	andwf	9,f	;volatile
  4866     0C19                     l1524:
  4867                           
  4868                           ;./lcd.h: 37:     PORTEbits.RE2 = 0;
  4869     0C19  1283               	bcf	3,5	;RP0=0, select bank0
  4870     0C1A  1303               	bcf	3,6	;RP1=0, select bank0
  4871     0C1B  1109               	bcf	9,2	;volatile
  4872     0C1C                     l1526:
  4873                           
  4874                           ;./lcd.h: 38:     Lcd_Port(a);
  4875     0C1C  0876               	movf	Lcd_Cmd@a,w
  4876     0C1D  120A  158A  2432  120A  158A  	fcall	_Lcd_Port
  4877     0C22                     l1528:
  4878                           
  4879                           ;./lcd.h: 39:     PORTEbits.RE1 = 1;
  4880     0C22  1283               	bcf	3,5	;RP0=0, select bank0
  4881     0C23  1303               	bcf	3,6	;RP1=0, select bank0
  4882     0C24  1489               	bsf	9,1	;volatile
  4883     0C25                     l1530:
  4884                           
  4885                           ;./lcd.h: 40:     _delay((unsigned long)((4)*(20*1000000/4000.0)));
  4886     0C25  301A               	movlw	26
  4887     0C26  00F5               	movwf	??_Lcd_Cmd+1
  4888     0C27  30F8               	movlw	248
  4889     0C28  00F4               	movwf	??_Lcd_Cmd
  4890     0C29                     u4127:
  4891     0C29  0BF4               	decfsz	??_Lcd_Cmd,f
  4892     0C2A  2C29               	goto	u4127
  4893     0C2B  0BF5               	decfsz	??_Lcd_Cmd+1,f
  4894     0C2C  2C29               	goto	u4127
  4895     0C2D  0000               	nop
  4896     0C2E                     l1532:
  4897                           
  4898                           ;./lcd.h: 41:     PORTEbits.RE1 = 0;
  4899     0C2E  1283               	bcf	3,5	;RP0=0, select bank0
  4900     0C2F  1303               	bcf	3,6	;RP1=0, select bank0
  4901     0C30  1089               	bcf	9,1	;volatile
  4902     0C31                     l67:
  4903     0C31  0008               	return
  4904     0C32                     __end_of_Lcd_Cmd:
  4905                           
  4906                           	psect	text17
  4907     0C32                     __ptext17:	
  4908 ;; *************** function _Lcd_Port *****************
  4909 ;; Defined at:
  4910 ;;		line 17 in file "./lcd.h"
  4911 ;; Parameters:    Size  Location     Type
  4912 ;;  a               1    wreg     unsigned char 
  4913 ;; Auto vars:     Size  Location     Type
  4914 ;;  a               1    3[COMMON] unsigned char 
  4915 ;; Return value:  Size  Location     Type
  4916 ;;                  1    wreg      void 
  4917 ;; Registers used:
  4918 ;;		wreg
  4919 ;; Tracked objects:
  4920 ;;		On entry : 0/0
  4921 ;;		On exit  : 0/0
  4922 ;;		Unchanged: 0/0
  4923 ;; Data sizes:     COMMON   BANK0   BANK1   BANK3   BANK2
  4924 ;;      Params:         0       0       0       0       0
  4925 ;;      Locals:         1       0       0       0       0
  4926 ;;      Temps:          0       0       0       0       0
  4927 ;;      Totals:         1       0       0       0       0
  4928 ;;Total ram usage:        1 bytes
  4929 ;; Hardware stack levels used: 1
  4930 ;; Hardware stack levels required when called: 1
  4931 ;; This function calls:
  4932 ;;		Nothing
  4933 ;; This function is called by:
  4934 ;;		_Lcd_Cmd
  4935 ;;		_Lcd_Init
  4936 ;;		_Lcd_Write_Char
  4937 ;; This function uses a non-reentrant model
  4938 ;;
  4939                           
  4940     0C32                     _Lcd_Port:	
  4941                           ;psect for function _Lcd_Port
  4942                           
  4943                           
  4944                           ;incstack = 0
  4945                           ; Regs used in _Lcd_Port: [wreg]
  4946                           ;Lcd_Port@a stored from wreg
  4947     0C32  00F3               	movwf	Lcd_Port@a
  4948     0C33                     l1490:
  4949                           
  4950                           ;./lcd.h: 19:     if (a & 1) PORTDbits.RD4 = 1;
  4951     0C33  1C73               	btfss	Lcd_Port@a,0
  4952     0C34  2C36               	goto	u1611
  4953     0C35  2C37               	goto	u1610
  4954     0C36                     u1611:
  4955     0C36  2C3B               	goto	l56
  4956     0C37                     u1610:
  4957     0C37                     l1492:
  4958     0C37  1283               	bcf	3,5	;RP0=0, select bank0
  4959     0C38  1303               	bcf	3,6	;RP1=0, select bank0
  4960     0C39  1608               	bsf	8,4	;volatile
  4961     0C3A  2C3E               	goto	l57
  4962     0C3B                     l56:	
  4963                           ;./lcd.h: 20:     else PORTDbits.RD4 = 0;
  4964                           
  4965     0C3B  1283               	bcf	3,5	;RP0=0, select bank0
  4966     0C3C  1303               	bcf	3,6	;RP1=0, select bank0
  4967     0C3D  1208               	bcf	8,4	;volatile
  4968     0C3E                     l57:
  4969                           
  4970                           ;./lcd.h: 22:     if (a & 2) PORTDbits.RD5 = 1;
  4971     0C3E  1CF3               	btfss	Lcd_Port@a,1
  4972     0C3F  2C41               	goto	u1621
  4973     0C40  2C42               	goto	u1620
  4974     0C41                     u1621:
  4975     0C41  2C44               	goto	l58
  4976     0C42                     u1620:
  4977     0C42                     l1494:
  4978     0C42  1688               	bsf	8,5	;volatile
  4979     0C43  2C45               	goto	l59
  4980     0C44                     l58:	
  4981                           ;./lcd.h: 23:     else PORTDbits.RD5 = 0;
  4982                           
  4983     0C44  1288               	bcf	8,5	;volatile
  4984     0C45                     l59:
  4985                           
  4986                           ;./lcd.h: 25:     if (a & 4) PORTDbits.RD6 = 1;
  4987     0C45  1D73               	btfss	Lcd_Port@a,2
  4988     0C46  2C48               	goto	u1631
  4989     0C47  2C49               	goto	u1630
  4990     0C48                     u1631:
  4991     0C48  2C4B               	goto	l60
  4992     0C49                     u1630:
  4993     0C49                     l1496:
  4994     0C49  1708               	bsf	8,6	;volatile
  4995     0C4A  2C4C               	goto	l61
  4996     0C4B                     l60:	
  4997                           ;./lcd.h: 26:     else PORTDbits.RD6 = 0;
  4998                           
  4999     0C4B  1308               	bcf	8,6	;volatile
  5000     0C4C                     l61:
  5001                           
  5002                           ;./lcd.h: 28:     if (a & 8) PORTDbits.RD7 = 1;
  5003     0C4C  1DF3               	btfss	Lcd_Port@a,3
  5004     0C4D  2C4F               	goto	u1641
  5005     0C4E  2C50               	goto	u1640
  5006     0C4F                     u1641:
  5007     0C4F  2C52               	goto	l62
  5008     0C50                     u1640:
  5009     0C50                     l1498:
  5010     0C50  1788               	bsf	8,7	;volatile
  5011     0C51  2C53               	goto	l64
  5012     0C52                     l62:	
  5013                           ;./lcd.h: 29:     else PORTDbits.RD7 = 0;
  5014                           
  5015     0C52  1388               	bcf	8,7	;volatile
  5016     0C53                     l64:
  5017     0C53  0008               	return
  5018     0C54                     __end_of_Lcd_Port:
  5019                           
  5020                           	psect	text18
  5021     0D00                     __ptext18:	
  5022 ;; *************** function _Adc_Read *****************
  5023 ;; Defined at:
  5024 ;;		line 9 in file "./Adc.h"
  5025 ;; Parameters:    Size  Location     Type
  5026 ;;  channel         1    wreg     unsigned char 
  5027 ;; Auto vars:     Size  Location     Type
  5028 ;;  channel         1    7[COMMON] unsigned char 
  5029 ;; Return value:  Size  Location     Type
  5030 ;;                  2    3[COMMON] int 
  5031 ;; Registers used:
  5032 ;;		wreg, status,2, status,0
  5033 ;; Tracked objects:
  5034 ;;		On entry : 0/0
  5035 ;;		On exit  : 0/0
  5036 ;;		Unchanged: 0/0
  5037 ;; Data sizes:     COMMON   BANK0   BANK1   BANK3   BANK2
  5038 ;;      Params:         2       0       0       0       0
  5039 ;;      Locals:         1       0       0       0       0
  5040 ;;      Temps:          2       0       0       0       0
  5041 ;;      Totals:         5       0       0       0       0
  5042 ;;Total ram usage:        5 bytes
  5043 ;; Hardware stack levels used: 1
  5044 ;; Hardware stack levels required when called: 1
  5045 ;; This function calls:
  5046 ;;		Nothing
  5047 ;; This function is called by:
  5048 ;;		_main
  5049 ;; This function uses a non-reentrant model
  5050 ;;
  5051                           
  5052     0D00                     _Adc_Read:	
  5053                           ;psect for function _Adc_Read
  5054                           
  5055                           
  5056                           ;incstack = 0
  5057                           ; Regs used in _Adc_Read: [wreg+status,2+status,0]
  5058                           ;Adc_Read@channel stored from wreg
  5059     0D00  00F7               	movwf	Adc_Read@channel
  5060     0D01                     l1844:
  5061                           
  5062                           ;./Adc.h: 10:     TRISA |= 1<<channel;
  5063     0D01  3001               	movlw	1
  5064     0D02  00F5               	movwf	??_Adc_Read
  5065     0D03  0A77               	incf	Adc_Read@channel,w
  5066     0D04  2D07               	goto	u2414
  5067     0D05                     u2415:
  5068     0D05  1003               	clrc
  5069     0D06  0DF5               	rlf	??_Adc_Read,f
  5070     0D07                     u2414:
  5071     0D07  3EFF               	addlw	-1
  5072     0D08  1D03               	skipz
  5073     0D09  2D05               	goto	u2415
  5074     0D0A  0875               	movf	??_Adc_Read,w
  5075     0D0B  00F6               	movwf	??_Adc_Read+1
  5076     0D0C  0876               	movf	??_Adc_Read+1,w
  5077     0D0D  1683               	bsf	3,5	;RP0=1, select bank1
  5078     0D0E  1303               	bcf	3,6	;RP1=0, select bank1
  5079     0D0F  0485               	iorwf	5,f	;volatile
  5080                           
  5081                           ;./Adc.h: 12:     ADCON0 &= ~0x38;
  5082     0D10  30C7               	movlw	199
  5083     0D11  00F5               	movwf	??_Adc_Read
  5084     0D12  0875               	movf	??_Adc_Read,w
  5085     0D13  1283               	bcf	3,5	;RP0=0, select bank0
  5086     0D14  1303               	bcf	3,6	;RP1=0, select bank0
  5087     0D15  059F               	andwf	31,f	;volatile
  5088                           
  5089                           ;./Adc.h: 14:     ADCON0 |= channel << 3;
  5090     0D16  0877               	movf	Adc_Read@channel,w	;volatile
  5091     0D17  00F5               	movwf	??_Adc_Read
  5092     0D18  3002               	movlw	2
  5093     0D19                     u2425:
  5094     0D19  1003               	clrc
  5095     0D1A  0DF5               	rlf	??_Adc_Read,f
  5096     0D1B  3EFF               	addlw	-1
  5097     0D1C  1D03               	skipz
  5098     0D1D  2D19               	goto	u2425
  5099     0D1E  1003               	clrc
  5100     0D1F  0D75               	rlf	??_Adc_Read,w
  5101     0D20  00F6               	movwf	??_Adc_Read+1
  5102     0D21  0876               	movf	??_Adc_Read+1,w
  5103     0D22  049F               	iorwf	31,f	;volatile
  5104     0D23                     l1846:
  5105                           
  5106                           ;./Adc.h: 16:     _delay((unsigned long)((1)*(20*1000000/4000.0)));
  5107     0D23  3007               	movlw	7
  5108     0D24  00F6               	movwf	??_Adc_Read+1
  5109     0D25  307D               	movlw	125
  5110     0D26  00F5               	movwf	??_Adc_Read
  5111     0D27                     u4137:
  5112     0D27  0BF5               	decfsz	??_Adc_Read,f
  5113     0D28  2D27               	goto	u4137
  5114     0D29  0BF6               	decfsz	??_Adc_Read+1,f
  5115     0D2A  2D27               	goto	u4137
  5116     0D2B                     l1848:
  5117                           
  5118                           ;./Adc.h: 18:     ADCON0 |= 1 << 2;
  5119     0D2B  1283               	bcf	3,5	;RP0=0, select bank0
  5120     0D2C  1303               	bcf	3,6	;RP1=0, select bank0
  5121     0D2D  151F               	bsf	31,2	;volatile
  5122     0D2E                     l50:	
  5123                           ;./Adc.h: 20:     while(ADCON0 & 0x04) { }
  5124                           
  5125     0D2E  191F               	btfsc	31,2	;volatile
  5126     0D2F  2D31               	goto	u2431
  5127     0D30  2D32               	goto	u2430
  5128     0D31                     u2431:
  5129     0D31  2D2E               	goto	l50
  5130     0D32                     u2430:
  5131     0D32                     l52:
  5132                           
  5133                           ;./Adc.h: 22:     ADCON0 |= 0x04;
  5134     0D32  151F               	bsf	31,2	;volatile
  5135     0D33                     l1850:
  5136                           
  5137                           ;./Adc.h: 24:     return ADRESL + (ADRESH << 8);
  5138     0D33  081E               	movf	30,w	;volatile
  5139     0D34  00F4               	movwf	?_Adc_Read+1
  5140     0D35  1683               	bsf	3,5	;RP0=1, select bank1
  5141     0D36  1303               	bcf	3,6	;RP1=0, select bank1
  5142     0D37  081E               	movf	30,w	;volatile
  5143     0D38  00F3               	movwf	?_Adc_Read
  5144     0D39                     l53:
  5145     0D39  0008               	return
  5146     0D3A                     __end_of_Adc_Read:
  5147                           
  5148                           	psect	text19
  5149     0BFB                     __ptext19:	
  5150 ;; *************** function _Adc_Init *****************
  5151 ;; Defined at:
  5152 ;;		line 4 in file "./Adc.h"
  5153 ;; Parameters:    Size  Location     Type
  5154 ;;		None
  5155 ;; Auto vars:     Size  Location     Type
  5156 ;;		None
  5157 ;; Return value:  Size  Location     Type
  5158 ;;                  1    wreg      void 
  5159 ;; Registers used:
  5160 ;;		wreg
  5161 ;; Tracked objects:
  5162 ;;		On entry : 0/0
  5163 ;;		On exit  : 0/0
  5164 ;;		Unchanged: 0/0
  5165 ;; Data sizes:     COMMON   BANK0   BANK1   BANK3   BANK2
  5166 ;;      Params:         0       0       0       0       0
  5167 ;;      Locals:         0       0       0       0       0
  5168 ;;      Temps:          0       0       0       0       0
  5169 ;;      Totals:         0       0       0       0       0
  5170 ;;Total ram usage:        0 bytes
  5171 ;; Hardware stack levels used: 1
  5172 ;; Hardware stack levels required when called: 1
  5173 ;; This function calls:
  5174 ;;		Nothing
  5175 ;; This function is called by:
  5176 ;;		_main
  5177 ;; This function uses a non-reentrant model
  5178 ;;
  5179                           
  5180     0BFB                     _Adc_Init:	
  5181                           ;psect for function _Adc_Init
  5182                           
  5183     0BFB                     l1842:	
  5184                           ;incstack = 0
  5185                           ; Regs used in _Adc_Init: [wreg]
  5186                           
  5187                           
  5188                           ;./Adc.h: 5:     ADCON0 = 0x81;
  5189     0BFB  3081               	movlw	129
  5190     0BFC  1283               	bcf	3,5	;RP0=0, select bank0
  5191     0BFD  1303               	bcf	3,6	;RP1=0, select bank0
  5192     0BFE  009F               	movwf	31	;volatile
  5193                           
  5194                           ;./Adc.h: 6:     ADCON1 = 0x80;
  5195     0BFF  3080               	movlw	128
  5196     0C00  1683               	bsf	3,5	;RP0=1, select bank1
  5197     0C01  1303               	bcf	3,6	;RP1=0, select bank1
  5198     0C02  009F               	movwf	31	;volatile
  5199     0C03                     l47:
  5200     0C03  0008               	return
  5201     0C04                     __end_of_Adc_Init:
  5202                           
  5203                           	psect	text20
  5204     0CA1                     __ptext20:	
  5205 ;; *************** function _ISR *****************
  5206 ;; Defined at:
  5207 ;;		line 59 in file "main.c"
  5208 ;; Parameters:    Size  Location     Type
  5209 ;;		None
  5210 ;; Auto vars:     Size  Location     Type
  5211 ;;		None
  5212 ;; Return value:  Size  Location     Type
  5213 ;;                  1    wreg      void 
  5214 ;; Registers used:
  5215 ;;		wreg, status,2, status,0
  5216 ;; Tracked objects:
  5217 ;;		On entry : 0/0
  5218 ;;		On exit  : 0/0
  5219 ;;		Unchanged: 0/0
  5220 ;; Data sizes:     COMMON   BANK0   BANK1   BANK3   BANK2
  5221 ;;      Params:         0       0       0       0       0
  5222 ;;      Locals:         0       0       0       0       0
  5223 ;;      Temps:          3       0       0       0       0
  5224 ;;      Totals:         3       0       0       0       0
  5225 ;;Total ram usage:        3 bytes
  5226 ;; Hardware stack levels used: 1
  5227 ;; This function calls:
  5228 ;;		Nothing
  5229 ;; This function is called by:
  5230 ;;		Interrupt level 1
  5231 ;; This function uses a non-reentrant model
  5232 ;;
  5233                           
  5234     0CA1                     _ISR:	
  5235                           ;psect for function _ISR
  5236                           
  5237     0CA1                     i1l2218:
  5238                           
  5239                           ;main.c: 61:     if (INTCON & 0x04) {
  5240     0CA1  1D0B               	btfss	11,2	;volatile
  5241     0CA2  2CA4               	goto	u318_21
  5242     0CA3  2CA5               	goto	u318_20
  5243     0CA4                     u318_21:
  5244     0CA4  2CC4               	goto	i1l138
  5245     0CA5                     u318_20:
  5246     0CA5                     i1l2220:
  5247                           
  5248                           ;main.c: 62:         INTCON &= ~0x04;
  5249     0CA5  30FB               	movlw	251
  5250     0CA6  00F0               	movwf	??_ISR
  5251     0CA7  0870               	movf	??_ISR,w
  5252     0CA8  058B               	andwf	11,f	;volatile
  5253     0CA9                     i1l2222:
  5254                           
  5255                           ;main.c: 63:         TMR0 = 125;
  5256     0CA9  307D               	movlw	125
  5257     0CAA  1283               	bcf	3,5	;RP0=0, select bank0
  5258     0CAB  1303               	bcf	3,6	;RP1=0, select bank0
  5259     0CAC  0081               	movwf	1	;volatile
  5260     0CAD                     i1l2224:
  5261                           
  5262                           ;main.c: 64:         static char counter;;main.c: 65:         counter++;
  5263     0CAD  3001               	movlw	1
  5264     0CAE  00F0               	movwf	??_ISR
  5265     0CAF  0870               	movf	??_ISR,w
  5266     0CB0  07FA               	addwf	ISR@counter,f
  5267                           
  5268                           ;main.c: 67:         if (counter <= Duty_cycle) {
  5269     0CB1  087A               	movf	ISR@counter,w
  5270     0CB2  026E               	subwf	_Duty_cycle,w
  5271     0CB3  1C03               	skipc
  5272     0CB4  2CB6               	goto	u319_21
  5273     0CB5  2CB7               	goto	u319_20
  5274     0CB6                     u319_21:
  5275     0CB6  2CB9               	goto	i1l2228
  5276     0CB7                     u319_20:
  5277     0CB7                     i1l2226:
  5278                           
  5279                           ;main.c: 69:             PORTC |= 0x20;
  5280     0CB7  1687               	bsf	7,5	;volatile
  5281                           
  5282                           ;main.c: 71:         } else {
  5283     0CB8  2CBD               	goto	i1l2230
  5284     0CB9                     i1l2228:
  5285                           
  5286                           ;main.c: 72:             PORTC &= ~0x20;
  5287     0CB9  30DF               	movlw	223
  5288     0CBA  00F0               	movwf	??_ISR
  5289     0CBB  0870               	movf	??_ISR,w
  5290     0CBC  0587               	andwf	7,f	;volatile
  5291     0CBD                     i1l2230:
  5292                           
  5293                           ;main.c: 74:         if (counter >= 10) {
  5294     0CBD  300A               	movlw	10
  5295     0CBE  027A               	subwf	ISR@counter,w
  5296     0CBF  1C03               	skipc
  5297     0CC0  2CC2               	goto	u320_21
  5298     0CC1  2CC3               	goto	u320_20
  5299     0CC2                     u320_21:
  5300     0CC2  2CC4               	goto	i1l138
  5301     0CC3                     u320_20:
  5302     0CC3                     i1l2232:
  5303                           
  5304                           ;main.c: 76:             counter = 0;
  5305     0CC3  01FA               	clrf	ISR@counter
  5306     0CC4                     i1l138:
  5307     0CC4  0872               	movf	??_ISR+2,w
  5308     0CC5  008A               	movwf	10
  5309     0CC6  0E71               	swapf	??_ISR+1,w
  5310     0CC7  0083               	movwf	3
  5311     0CC8  0EFE               	swapf	btemp,f
  5312     0CC9  0E7E               	swapf	btemp,w
  5313     0CCA  0009               	retfie
  5314     0CCB                     __end_of_ISR:
  5315     007E                     btemp	set	126	;btemp
  5316     007E                     wtemp0	set	126
  5317                           
  5318                           	psect	intentry
  5319     0004                     __pintentry:	
  5320                           ;incstack = 0
  5321                           ; Regs used in _ISR: [wreg+status,2+status,0]
  5322                           
  5323     0004                     interrupt_function:
  5324     007E                     saved_w	set	btemp
  5325     0004  00FE               	movwf	btemp
  5326     0005  0E03               	swapf	3,w
  5327     0006  00F1               	movwf	??_ISR+1
  5328     0007  080A               	movf	10,w
  5329     0008  00F2               	movwf	??_ISR+2
  5330     0009  120A  158A  2CA1   	ljmp	_ISR
  5331                           
  5332                           	psect	idloc
  5333                           
  5334                           ;Config register IDLOC0 @ 0x2000
  5335                           ;	unspecified, using default values
  5336     2000                     	org	8192
  5337     2000  3FFF               	dw	16383
  5338                           
  5339                           ;Config register IDLOC1 @ 0x2001
  5340                           ;	unspecified, using default values
  5341     2001                     	org	8193
  5342     2001  3FFF               	dw	16383
  5343                           
  5344                           ;Config register IDLOC2 @ 0x2002
  5345                           ;	unspecified, using default values
  5346     2002                     	org	8194
  5347     2002  3FFF               	dw	16383
  5348                           
  5349                           ;Config register IDLOC3 @ 0x2003
  5350                           ;	unspecified, using default values
  5351     2003                     	org	8195
  5352     2003  3FFF               	dw	16383
  5353                           
  5354                           	psect	config
  5355                           
  5356                           ;Config register CONFIG @ 0x2007
  5357                           ;	Oscillator Selection bits
  5358                           ;	FOSC = HS, HS oscillator
  5359                           ;	Watchdog Timer Enable bit
  5360                           ;	WDTE = OFF, WDT disabled
  5361                           ;	Power-up Timer Enable bit
  5362                           ;	PWRTE = ON, PWRT enabled
  5363                           ;	Brown-out Reset Enable bit
  5364                           ;	BOREN = ON, BOR enabled
  5365                           ;	Low-Voltage (Single-Supply) In-Circuit Serial Programming Enable bit
  5366                           ;	LVP = ON, RB3/PGM pin has PGM function; low-voltage programming enabled
  5367                           ;	Data EEPROM Memory Code Protection bit
  5368                           ;	CPD = OFF, Data EEPROM code protection off
  5369                           ;	Flash Program Memory Write Enable bits
  5370                           ;	WRT = OFF, Write protection off; all program memory may be written to by EECON control
  5371                           ;	In-Circuit Debugger Mode bit
  5372                           ;	DEBUG = 0x1, unprogrammed default
  5373                           ;	Flash Program Memory Code Protection bit
  5374                           ;	CP = OFF, Code protection off
  5375     2007                     	org	8199
  5376     2007  3FF2               	dw	16370

Data Sizes:
    Strings     3
    Constant    0
    Data        0
    BSS         2
    Persistent  0
    Stack       0

Auto Spaces:
    Space          Size  Autos    Used
    COMMON           14     10      11
    BANK0            80     78      79
    BANK1            80      0       0
    BANK3            96      0       0
    BANK2            96      0       0

Pointer List with Targets:

    Lcd_Write_String@a	PTR unsigned char  size(2) Largest target is 50
		 -> STR_1(CODE[3]), Lcd_Write_Int@buffer(BANK0[50]), 


Critical Paths under _main in COMMON

    _main->_Lcd_Write_String
    ___fltol->___xxtofl
    ___flsub->___fladd
    ___flsub->___xxtofl
    ___flmul->__Umul8_16
    ___flmul->___xxtofl
    _Lcd_Write_Int->_Lcd_Write_String
    _Lcd_Write_String->_Lcd_Write_Char
    _Lcd_Write_Char->_Lcd_Port
    _Lcd_Set_Cursor->_Lcd_Cmd
    _Lcd_Init->_Lcd_Cmd
    _Lcd_Clear->_Lcd_Cmd
    _Lcd_Cmd->_Lcd_Port

Critical Paths under _ISR in COMMON

    None.

Critical Paths under _main in BANK0

    _main->_Lcd_Write_Int
    ___fltol->___flmul
    ___flsub->___fladd
    ___flmul->___flsub
    _Lcd_Write_Int->_Lcd_Write_String

Critical Paths under _ISR in BANK0

    None.

Critical Paths under _main in BANK1

    None.

Critical Paths under _ISR in BANK1

    None.

Critical Paths under _main in BANK3

    None.

Critical Paths under _ISR in BANK3

    None.

Critical Paths under _main in BANK2

    None.

Critical Paths under _ISR in BANK2

    None.

Call Graph Tables:

 ---------------------------------------------------------------------------------
 (Depth) Function   	        Calls       Base Space   Used Autos Params    Refs
 ---------------------------------------------------------------------------------
 (0) _main                                                 9     9      0   11590
                                             69 BANK0      9     9      0
                           _Adc_Init
                           _Adc_Read
                          _Lcd_Clear
                           _Lcd_Init
                     _Lcd_Set_Cursor
                      _Lcd_Write_Int
                   _Lcd_Write_String
                            ___flmul
                            ___flsub
                            ___fltol
                           ___xxtofl
 ---------------------------------------------------------------------------------
 (1) ___xxtofl                                            14    10      4     656
                                              3 COMMON     4     0      4
                                              0 BANK0     10    10      0
 ---------------------------------------------------------------------------------
 (1) ___fltol                                             10     6      4     517
                                              7 COMMON     2     2      0
                                             50 BANK0      8     4      4
                            ___flmul (ARG)
                            ___flsub (ARG)
                           ___xxtofl (ARG)
 ---------------------------------------------------------------------------------
 (1) ___flsub                                              8     0      8    3367
                                             16 BANK0      8     0      8
                            ___fladd
                           ___xxtofl (ARG)
 ---------------------------------------------------------------------------------
 (2) ___fladd                                             20    12      8    3122
                                              3 COMMON     4     4      0
                                              0 BANK0     16     8      8
 ---------------------------------------------------------------------------------
 (1) ___flmul                                             26    18      8    2569
                                             24 BANK0     26    18      8
                          __Umul8_16
                            ___flsub (ARG)
                           ___xxtofl (ARG)
 ---------------------------------------------------------------------------------
 (2) __Umul8_16                                            9     7      2     799
                                              3 COMMON     4     2      2
                                              0 BANK0      5     5      0
 ---------------------------------------------------------------------------------
 (1) _Lcd_Write_Int                                       64    62      2    2959
                                              5 BANK0     64    62      2
                   _Lcd_Write_String
                            ___awdiv
                            ___lwdiv
                            ___lwmod
 ---------------------------------------------------------------------------------
 (2) ___lwmod                                              6     2      4     311
                                              3 COMMON     6     2      4
 ---------------------------------------------------------------------------------
 (2) ___lwdiv                                              8     4      4     421
                                              3 COMMON     5     1      4
                                              0 BANK0      3     3      0
 ---------------------------------------------------------------------------------
 (2) ___awdiv                                              9     5      4     452
                                              3 COMMON     5     1      4
                                              0 BANK0      4     4      0
 ---------------------------------------------------------------------------------
 (1) _Lcd_Write_String                                     7     5      2     420
                                              8 COMMON     2     0      2
                                              0 BANK0      5     5      0
                     _Lcd_Write_Char
 ---------------------------------------------------------------------------------
 (2) _Lcd_Write_Char                                       4     4      0     178
                                              4 COMMON     4     4      0
                           _Lcd_Port
 ---------------------------------------------------------------------------------
 (1) _Lcd_Set_Cursor                                       6     5      1     456
                                              7 COMMON     2     1      1
                                              0 BANK0      4     4      0
                            _Lcd_Cmd
 ---------------------------------------------------------------------------------
 (1) _Lcd_Init                                             2     2      0     198
                                              7 COMMON     2     2      0
                            _Lcd_Cmd
                           _Lcd_Port
 ---------------------------------------------------------------------------------
 (1) _Lcd_Clear                                            0     0      0     110
                            _Lcd_Cmd
 ---------------------------------------------------------------------------------
 (2) _Lcd_Cmd                                              3     3      0     110
                                              4 COMMON     3     3      0
                           _Lcd_Port
 ---------------------------------------------------------------------------------
 (3) _Lcd_Port                                             1     1      0      88
                                              3 COMMON     1     1      0
 ---------------------------------------------------------------------------------
 (1) _Adc_Read                                             5     3      2      44
                                              3 COMMON     5     3      2
 ---------------------------------------------------------------------------------
 (1) _Adc_Init                                             0     0      0       0
 ---------------------------------------------------------------------------------
 Estimated maximum stack depth 3
 ---------------------------------------------------------------------------------
 (Depth) Function   	        Calls       Base Space   Used Autos Params    Refs
 ---------------------------------------------------------------------------------
 (5) _ISR                                                  3     3      0       0
                                              0 COMMON     3     3      0
 ---------------------------------------------------------------------------------
 Estimated maximum stack depth 5
 ---------------------------------------------------------------------------------

 Call Graph Graphs:

 _main (ROOT)
   _Adc_Init
   _Adc_Read
   _Lcd_Clear
     _Lcd_Cmd
       _Lcd_Port
   _Lcd_Init
     _Lcd_Cmd
     _Lcd_Port
   _Lcd_Set_Cursor
     _Lcd_Cmd
   _Lcd_Write_Int
     _Lcd_Write_String
       _Lcd_Write_Char
         _Lcd_Port
     ___awdiv
     ___lwdiv
     ___lwmod
   _Lcd_Write_String
   ___flmul
     __Umul8_16
     ___flsub (ARG)
       ___fladd
       ___xxtofl (ARG)
     ___xxtofl (ARG)
   ___flsub
   ___fltol
     ___flmul (ARG)
     ___flsub (ARG)
     ___xxtofl (ARG)
   ___xxtofl

 _ISR (ROOT)

 Address spaces:
Name               Size   Autos  Total    Cost      Usage
BITCOMMON            E      0       0       0        0.0%
EEDATA             100      0       0       0        0.0%
NULL                 0      0       0       0        0.0%
CODE                 0      0       0       0        0.0%
COMMON               E      A       B       1       78.6%
BITSFR0              0      0       0       1        0.0%
SFR0                 0      0       0       1        0.0%
BITSFR1              0      0       0       2        0.0%
SFR1                 0      0       0       2        0.0%
STACK                0      0       0       2        0.0%
ABS                  0      0      5A       3        0.0%
BITBANK0            50      0       0       4        0.0%
BITSFR3              0      0       0       4        0.0%
SFR3                 0      0       0       4        0.0%
BANK0               50     4E      4F       5       98.8%
BITSFR2              0      0       0       5        0.0%
SFR2                 0      0       0       5        0.0%
BITBANK1            50      0       0       6        0.0%
BANK1               50      0       0       7        0.0%
BITBANK3            60      0       0       8        0.0%
BANK3               60      0       0       9        0.0%
BITBANK2            60      0       0      10        0.0%
BANK2               60      0       0      11        0.0%
DATA                 0      0      5A      12        0.0%


Microchip Technology PIC Macro Assembler V2.40 build 20220703182018 
Symbol Table                                                                                   Tue Jan 03 15:21:55 2023

                       pc 0002                        l50 0D2E                        l52 0D32  
                      l60 0C4B                        l53 0D39                        l61 0C4C  
                      l62 0C52                        l70 0E64                        l47 0C03  
                      l64 0C53                        l56 0C3B                        l57 0C3E  
                      l73 0C10                        l58 0C44                        l82 0CFF  
                      l59 0C45                        l67 0C31                        l79 07EC  
                      l88 0DB9              ___awdiv@sign 0021                        fsr 0004  
     __Umul8_16@word_mpld 0022                       l109 07A1                       l410 0F45  
                     l420 0F45                       l521 043C                       l417 0F30  
                     l506 0D73                       l530 05BB                       l523 0413  
                     l613 035B                       l517 03B7                       l542 052F  
                     l551 058F                       l632 0C8E                       l560 05BB  
                     l377 0ECD                       l625 034F                       l634 0CA0  
                     l538 050B                       l619 02CB                       l563 0C77  
                     l548 0551                       l670 0FC9                       l559 05B1  
                     l671 0FD5                       l663 0FAD                       l496 0DFF  
                     l657 0F6A                       l659 0FFF                       _ISR 0CA1  
                     fsr0 0004                       indf 0000              ___flmul@aexp 004A  
            ___flmul@bexp 004B              ___flmul@sign 0045              ___flmul@temp 0050  
            ___flmul@prod 004C                      ?_ISR 0070              ___fltol@exp1 0078  
                    l2000 0024                      l2010 0039                      l2002 0025  
                    l2020 004F                      l2012 0041                      l2004 002A  
                    l2110 0300                      l2102 02D0                      l2030 006B  
                    l2022 0054                      l2014 0046                      l2006 002F  
                    l2120 0337                      l2104 02D5                      l2112 0306  
                    l2040 008C                      l2032 0070                      l2024 0059  
                    l2016 004A                      l2008 0037                      l2130 0353  
                    l2122 0339                      l2114 0313                      l2106 02E3  
                    l2050 0116                      l2042 0099                      l2034 0075  
                    l2026 0061                      l2018 004E                      l1500 0CCC  
                    l2124 0345                      l2116 031E                      l2108 02E7  
                    l2060 0174                      l2052 0132                      l2044 00B4  
                    l2028 0063                      l2300 03AD                      l1510 0CEB  
                    l1502 0CD2                      l2126 0349                      l2118 032D  
                    l2070 01FE                      l2062 0191                      l2054 013B  
                    l2046 00D0                      l2038 007E                      l2310 03C7  
                    l2302 03AF                      l1520 0C12                      l1512 0CEE  
                    l1504 0CD5                      l2240 0DC7                      l2128 034A  
                    l2080 028E                      l2072 0229                      l2064 01A8  
                    l2056 0149                      l2048 00FA                      l2400 0521  
                    l2320 03D1                      l2312 03C9                      l2304 03BD  
                    l1530 0C25                      l1522 0C15                      l1514 0CF4  
                    l1506 0CE3                      l2250 0DED                      l2242 0DCE  
                    l2234 0DBA                      l2082 0297                      l2090 02AB  
                    l2074 024F                      l2066 01C5                      l2058 0166  
                    l2410 0538                      l2402 052A                      l2330 03DB  
                    l2322 03D3                      l2314 03CB                      l2306 03C1  
                    l1532 0C2E                      l1524 0C19                      l1516 0CF7  
                    l1508 0CE6                      l1540 0D9D                      l2252 0DEE  
                    l2244 0DD2                      l2236 0DBE                      l1620 0D4E  
                    l1612 0D3A                      l2092 02AF                      l2084 029B  
                    l2076 0277                      l2068 01F0                      l2420 0548  
                    l2412 053D                      l2404 052E                      l2340 03E4  
                    l2332 03DD                      l2324 03D5                      l2316 03CD  
                    l2308 03C5                      l2260 035C                      l2500 0ED9  
                    l1526 0C1C                      l1518 0CFC                      l1534 0D74  
                    l1550 0E73                      l1542 0E65                      l2254 0DF5  
                    l2246 0DD6                      l2238 0DC4                      l1622 0D52  
                    l1614 0D40                      l1630 0D6F                      l2094 02B0  
                    l2086 029C                      l2078 0280                      l2430 0569  
                    l2422 054E                      l2406 0533                      l2414 053F  
                    l2350 0428                      l2342 03FB                      l2334 03DF  
                    l2326 03D7                      l2318 03CF                      l2270 036F  
                    l2262 0361                      l2510 0EFE                      l1528 0C22  
                    l1536 0D79                      l1560 0E88                      l1552 0E77  
                    l1544 0E68                      l2248 0DE7                      l2256 0DFB  
                    l1624 0D5C                      l1616 0D43                      l2096 02B4  
                    l2088 02A5                      l2440 05A1                      l2432 056D  
                    l2408 0536                      l2416 0543                      l2360 0445  
                    l2352 0429                      l2344 0417                      l2336 03E1  
                    l2328 03D9                      l2280 0387                      l2272 0374  
                    l2264 0365                      l2520 0F0C                      l2512 0F00  
                    l2504 0EE2                      l2600 0634                      l1490 0C33  
                    l1538 0D95                      l1570 0EAB                      l1562 0E8B  
                    l1554 0E7C                      l1546 0E6C                      l1626 0D62  
                    l1618 0D4A                      l2098 02C8                      l2450 05B6  
                    l2442 05A6                      l2434 058B                      l2426 0556  
                    l2418 0544                      l2370 0471                      l2354 0432  
                    l2346 0420                      l2338 03E3                      l2290 0399  
                    l2282 038A                      l2274 037C                      l2266 0369  
                    l2530 0F35                      l2514 0F04                      l2522 0F1E  
                    l2506 0EF5                      l2610 0681                      l1492 0C37  
                    l1900 07CE                      l1580 0EC4                      l1572 0EB1  
                    l1564 0E92                      l1556 0E80                      l1548 0E71  
                    l1628 0D69                      l2460 06D0                      l2452 05BA  
                    l2444 05A7                      l2436 0594                      l2428 055B  
                    l2380 0488                      l2372 0478                      l2364 0450  
                    l2348 0422                      l2356 0436                      l2292 039A  
                    l2284 0390                      l2276 037D                      l2268 036A  
                    l2532 0F3A                      l2508 0EF6                      l2540 0F49  
                    l2612 068F                      l2604 063F                      l1494 0C42  
                    l1902 07DB                      l1582 0EC9                      l1574 0EB2  
                    l1566 0E96                      l1558 0E82                      l2470 0702  
                    l2462 06D5                      l2454 06C1                      l1830 0C7D  
                    l2446 05AB                      l2438 0599                      l2390 04EE  
                    l2374 047A                      l2366 0469                      l2358 0440  
                    l2382 048D                      l2294 039F                      l2286 0391  
                    l2278 037F                      l2534 0C54                      l2542 0F4E  
                    l2614 0695                      l2606 0643                      l1496 0C49  
                    l1904 07DE                      l1576 0EB9                      l1568 0E9A  
                    l2480 072C                      l2472 0715                      l2464 06DA  
                    l2456 06C7                      l1832 0C84                      l2448 05AD  
                    l2384 04A5                      l2392 04FD                      l2376 047E  
                    l2368 046D                      l2296 03A4                      l2288 0395  
                    l2536 0C58                      l2528 0F25                      l2560 0F96  
                    l2552 0F7B                      l2544 0F52                      l2616 069E  
                    l2608 067C                      l1842 0BFB                      l1850 0D33  
                    l1498 0C50                      l1906 07E4                      l1578 0EBF  
                    l2490 078D                      l2482 0731                      l2474 071B  
                    l2466 06E6                      l2458 06C9                      l1834 0C88  
                    l2394 0513                      l2386 04E3                      l2378 047F  
                    l2298 03AC                      l2570 0FCD                      l2562 0FA4  
                    l2554 0F7E                      l2546 0F62                      l2618 06A5  
                    l1844 0D01                      l1860 0E0D                      l2492 0795  
                    l2484 0734                      l2476 0720                      l2468 06FA  
                    l1836 0C97                      l1828 0C7B                      l2396 0518  
                    l2388 04E9                      l2580 0FF7                      l2572 0FD7  
                    l2564 0FB4                      l2556 0F8B                      l2548 0F72  
                    l1846 0D23                      l1870 0E34                      l1862 0E16  
                    l1854 0E00                      l2494 0797                      l2486 076A  
                    l2478 0726                      l1838 0C9C                      l2574 0FED  
                    l2566 0FBF                      l2558 0F92                      l2590 05CC  
                    l1848 0D2B                      l1880 0E52                      l1872 0E3A  
                    l1864 0E1C                      l1856 0E03                      l2496 0798  
                    l2488 0770                      l2576 0FF2                      l2568 0FC3  
                    l2592 05CD                      l2584 05BC                      l1882 0E58  
                    l1874 0E40                      l1866 0E25                      l1858 0E07  
                    l1890 07AA                      l2498 0ECE                      l2578 0FF6  
                    l2594 05D0                      l2586 05C6                      l1884 0E5E  
                    l1876 0E46                      l1868 0E2B                      l1892 07B7  
                    l2596 05E0                      l2588 05C8                      l1886 0C04  
                    l1878 0E4C                      l1894 07BA                      l2598 0632  
                    l1896 07C0                      l1888 07A5                      l1898 07C9  
                    l1994 0017                      l1996 001C                      l1998 0020  
                    STR_1 07FD                      u3000 032D                      u3001 032C  
                    u3010 0349                      u3011 0348                      u3005 0329  
                    u2400 0C9C                      u4000 0FC9                      u2401 0C9B  
                    u4001 0FC8                      u1610 0C37                      u3210 0DC4  
                    u4010 0FCD                      u1611 0C36                      u3211 0DC3  
                    u4011 0FCC                      u1620 0C42                      u1700 0E77  
                    u3300 0374                      u4020 0FE2                      u1621 0C41  
                    u1701 0E76                      u3301 0373                      u2430 0D32  
                    u2414 0D07                      u1630 0C49                      u1710 0E88  
                    u3230 0DD6                      u3310 0390                      u4030 0FF2  
                    u2431 0D31                      u2415 0D05                      u1631 0C48  
                    u1711 0E87                      u3231 0DD5                      u3311 038F  
                    u4031 0FF1                      u1640 0C50                      u2440 07AA  
                    u3400 0417                      u3320 0399                      u4040 0FF6  
                    u2425 0D19                      u1641 0C4F                      u2441 07A9  
                    u3225 0DC8                      u3401 0416                      u3321 0398  
                    u4041 0FF5                      u4025 0FDD                      u1730 0E9A  
                    u3250 0DE7                      u3410 0428                      u3330 039F  
                    u4050 063E                      u4107 0E20                      u1731 0E99  
                    u3251 0DE6                      u3411 0427                      u3331 039E  
                    u4051 063D                      u2460 07CE                      u1660 0D83  
                    u2380 0C88                      u2700 0059                      u3340 03A4  
                    u4060 0695                      u4117 0E2F                      u2461 07CD  
                    u1725 0E8C                      u3245 0DD7                      u2381 0C87  
                    u2701 0058                      u3341 03A3                      u4061 0694  
                    u1670 0DA7                      u1750 0EAB                      u3270 0DFB  
                    u1910 0D6F                      u2710 0070                      u3510 04A5  
                    u3430 043C                      u3350 03BD                      u4127 0C29  
                    u2455 07B0                      u1655 0CD8                      u1751 0EAA  
                    u3271 0DFA                      u3255 0DE3                      u1911 0D6E  
                    u2711 006F                      u3511 04A4                      u3431 043B  
                    u3351 03BC                      u4055 063A                      _PIE1 008C  
                    u1680 0DB9                      u2720 0075                      u3600 053D  
                    u3440 0440                      u3360 03C1                      u3280 0369  
                    _PIE2 008D                      u4137 0D27                      u1681 0DB8  
                    u1745 0E9B                      u3265 0DEF                      u1905 0D63  
                    u2721 0074                      u3601 053C                      u3521 04BC  
                    u3513 04A1                      u3505 0481                      u3441 043F  
                    u3425 042B                      u3361 03C0                      u3281 0368  
                    u1770 0EBF                      u1690 0E6C                      u2650 0024  
                    u3610 0543                      u3530 04D0                      u3522 04BD  
                    u3450 0445                      u3370 03FB                      u3290 036F  
                    u2475 07D4                      u1771 0EBE                      u1755 0EA7  
                    u1691 0E6B                      u2395 0C8F                      u2811 01B7  
                    u2731 00C2                      u2651 0023                      u3611 0542  
                    u3531 04D1                      u3523 04C2                      u3451 0444  
                    u3371 03FA                      u3291 036E                      u1780 0EC4  
                    u1860 0D40                      u2900 029B                      u2812 01BE  
                    u2732 00C9                      u2660 002A                      u3700 0599  
                    u3620 0548                      u3540 04EE                      u3532 04D6  
                    u3524 04C3                      u3380 0406                      u4077 0CE8  
                    u1781 0EC3                      u1765 0EB3                      u1861 0D3F  
                    u2901 029A                      u2821 01E2                      u2813 01C5  
                    u2805 0193                      u2741 00DE                      u2733 00D0  
                    u2661 0029                      u3701 0598                      u3621 0547  
                    u3541 04ED                      u3533 04D7                      u3525 04C8  
                    u3461 045B                      u3381 0404                      u2822 01E9  
                    u2742 00E5                      u2670 002F                      u3710 05A6  
                    u3630 054E                      u3550 0513                      u3526 04C9  
                    u3470 046D                      u3462 0462                      u3390 0407  
                    u4087 0CF9                      u2831 020D                      u2823 01F0  
                    u2751 0108                      u2743 00EC                      u2671 002E  
                    u3711 05A5                      u3631 054D                      u3551 0512  
                    u3471 046C                      u3463 0469                      u3375 03F7  
                    u1880 0D52                      u3800 0795                      u2920 02AF  
                    u2840 0235                      u2832 0214                      u2752 010F  
                    u2680 004E                      u3720 05AB                      u3640 0555  
                    u3560 0518                      u3480 0471                      u4097 0E11  
                    u1881 0D51                      u3801 0794                      u2921 02AE  
                    u2833 021B                      u2761 0124                      u2753 0116  
                    u2681 004D                      u3721 05AA                      u3641 0554  
                    u3561 0517                      u3481 0470                      u1890 0D5C  
                    u2930 02B4                      u2762 012B                      u2690 0054  
                    u3730 05BA                      u3650 055B                      u3490 047E  
                    u3810 0ED9                      u1891 0D5B                      u1875 0D44  
                    u2931 02B3                      u2915 029E                      u2851 0241  
                    u2763 0132                      u2691 0053                      u3731 05B9  
                    u3651 055A                      u3491 047D                      u3811 0ED8  
                    u3740 06CE                      u2940 02C8                      u2860 025D  
                    u2852 0248                      u3660 056D                      u3580 052E  
                    u3900 0F3A                      u3820 0EF0                      u3741 06CC  
                    u2941 02C7                      u2853 024F                      u2845 0230  
                    u2781 0158                      u3661 056C                      u3581 052D  
                    u3901 0F39                      u3750 06CF                      u2950 02CF  
                    u2782 015F                      u3670 057C                      u3590 0533  
                    u3830 0F04                      u3910 0F4E                      u1895 0D58  
                    u2951 02CE                      u2871 0269                      u2791 0183  
                    u2783 0166                      u2775 0134                      u3591 0532  
                    u3575 0523                      u3831 0F03                      u3911 0F4D  
                    u3760 06D5                      u2960 02D5                      u2872 0270  
                    u2792 018A                      u3680 058B                      u3840 0F0B  
                    u3920 0F52                      u3761 06D4                      u2961 02D4  
                    u2873 0277                      u2865 0258                      u2793 0191  
                    u3681 058A                      u3841 0F0A                      u3825 0EEB  
                    u3921 0F51                      u3770 071B                      u2970 02E7  
                    u3690 0594                      u3930 0F72                      u3771 071A  
                    u2971 02E6                      u3691 0593                      u3675 0577  
                    u3931 0F71                      u3780 0720                      u2980 02F6  
                    u3860 0F1D                      u3781 071F                      u2885 0279  
                    u3861 0F1C                      u3790 078D                      u2990 0313  
                    u3870 0F24                      u3950 0F91                      u3791 078C  
                    u2991 0312                      u2895 0290                      u3871 0F23  
                    u3855 0F0D                      u3951 0F90                      u2985 02F1  
                    u3945 0F83                      _PIR1 000C                      u3890 0F35  
                    u3970 0FB3                      _PIR2 000D                      u3795 0789  
                    u2995 030F                      u3891 0F34                      u3971 0FB2  
                    u3885 0F27                      u3965 0FA5                      u3990 0FC3  
                    u3991 0FC2                      u3985 0FB8                      _TMR0 0001  
             main@old_val 0067         ?_Lcd_Write_String 0078                      _main 05BC  
                    btemp 007E                      start 000C        ??_Lcd_Write_String 0020  
         __end_of_Lcd_Cmd 0C32                     ??_ISR 0070             ___fltol@sign1 0077  
         __end_of___fladd 05BC                     ?_main 0070           __end_of___awdiv 0ECE  
         __end_of___flmul 035C           __end_of___flsub 0C78           __end_of___fltol 0F46  
         ___awdiv@divisor 0073                     _T2CON 0012           __end_of___lwdiv 0E00  
                   i1l138 0CC4           __end_of___lwmod 0D74           ___awdiv@counter 0020  
                   _PORTC 0007                     _TRISA 0085                     _TRISC 0087  
                   _TRISD 0088                     _TRISE 0089          __end_of_Adc_Init 0C04  
        __end_of_Adc_Read 0D3A                     pclath 000A                     status 0003  
                   wtemp0 007E          __end_of_Lcd_Init 0E65          __end_of_Lcd_Port 0C54  
         __initialization 000F              __end_of_main 06C1                    ??_main 0065  
              _Duty_cycle 006E                    _ADCON0 001F                    _ADCON1 009F  
                  _ADRESH 001E                    _ADRESL 009E                    _CCPR1L 0015  
        ___awdiv@dividend 0075                    i1l2220 0CA5                    i1l2230 0CBD  
                  i1l2222 0CA9                    i1l2232 0CC3                    i1l2224 0CAD  
                  i1l2226 0CB7                    i1l2218 0CA1                    i1l2228 0CB9  
                  u320_20 0CC3                    u320_21 0CC2                    _INTCON 000B  
                  u318_20 0CA5                    u318_21 0CA4                    u319_20 0CB7  
                  u319_21 0CB6                 ??_Lcd_Cmd 0074          __end_of___xxtofl 1000  
               ??___fladd 0028                 ??___awdiv 0077                 ??___flmul 0040  
               ??___flsub 0077                 ??___fltol 0056                 ??___lwdiv 0077  
               ??___lwmod 0077           Adc_Read@channel 0077          ___awdiv@quotient 0022  
   __end_of_Lcd_Write_Int 07A2                    saved_w 007E          Lcd_Write_Int@val 0025  
         Lcd_Set_Cursor@y 0022           Lcd_Set_Cursor@z 0021              ___xxtofl@arg 0026  
            ___xxtofl@exp 0025              ___xxtofl@val 0073   __end_of__initialization 0013  
       __end_of_Lcd_Clear 0C11                ___fltol@f1 0052            __pcstackCOMMON 0070  
               ?_Adc_Init 0070                 ?_Adc_Read 0073            _Lcd_Set_Cursor 07A2  
               ?_Lcd_Init 0070                 ?_Lcd_Port 0070            Lcd_Write_Int@i 0063  
          Lcd_Write_Int@n 005F            Lcd_Write_Int@t 0061                __pbssBANK0 006E  
       __end_of__Umul8_16 0CA1                __pmaintext 05BC                __pintentry 0004  
                 _CCP1CON 0017                ??_Adc_Init 0073                ??_Adc_Read 0075  
  __end_of_Lcd_Set_Cursor 07ED                 ?___xxtofl 0073                ??_Lcd_Init 0077  
              ??_Lcd_Port 0073                __stringtab 07ED            _Lcd_Write_Char 0CCB  
                 _Lcd_Cmd 0C11                   ___fladd 035C                   ___awdiv 0E65  
                 ___flmul 0017                   ___flsub 0C54                   ___fltol 0ECE  
                 ___lwdiv 0DBA                   ___lwmod 0D3A           ?_Lcd_Set_Cursor 0077  
                 __ptext1 0F46                   __ptext2 0ECE                   __ptext3 0C54  
                 __ptext4 035C                   __ptext5 0017                   __ptext6 0C78  
                 __ptext7 06C1                   __ptext8 0D3A                   __ptext9 0DBA  
              ??___xxtofl 0020                   main@err 006A                   main@val 006C  
  __end_of_Lcd_Write_Char 0D00      end_of_initialization 0013                 Lcd_Port@a 0073  
               _PORTDbits 0008                 _PORTEbits 0009               ___fladd@grs 0076  
           ___xxtofl@sign 0024           ?_Lcd_Write_Char 0070         Lcd_Write_String@a 0078  
       Lcd_Write_String@i 0023               ___flmul@grs 0046                 _Lcd_Clear 0C04  
        _Lcd_Write_String 0D74       start_initialization 000F               __end_of_ISR 0CCB  
   Lcd_Set_Cursor@colonna 0077                ?_Lcd_Clear 0070                 __Umul8_16 0C78  
         Lcd_Write_Char@a 0077           Lcd_Write_Char@y 0076           Lcd_Write_Int@n1 005D  
               ___fladd@a 0024                 ___fladd@b 0020                 ___flmul@a 003C  
               ___flmul@b 0038               __pbssCOMMON 007A                 ___flsub@a 0030  
               ___flsub@b 0034                 ___latbits 0002             __pcstackBANK0 0020  
              ISR@counter 007A                  ?_Lcd_Cmd 0070          ___lwdiv@dividend 0075  
        ??_Lcd_Set_Cursor 0078                  ?___fladd 0020                  ?___awdiv 0073  
                ?___flmul 0038                  ?___flsub 0030                  ?___fltol 0052  
              ?__Umul8_16 0073                  ?___lwdiv 0073                  ?___lwmod 0073  
               __pstrings 07ED             _Lcd_Write_Int 06C1          ___lwdiv@quotient 0021  
       interrupt_function 0004                  Lcd_Cmd@a 0076               ??_Lcd_Clear 0077  
                _Adc_Init 0BFB                  _Adc_Read 0D00               __stringbase 07FC  
          ?_Lcd_Write_Int 0025          ??_Lcd_Write_Char 0074                  _Lcd_Init 0E00  
                _Lcd_Port 0C32  __end_of_Lcd_Write_String 0DBA               ??__Umul8_16 0075  
      __end_of__stringtab 07FD                  ___xxtofl 0F46           ___lwdiv@divisor 0073  
         ___lwdiv@counter 0020                  __ptext10 0E65                  __ptext11 0D74  
                __ptext20 0CA1                  __ptext12 0CCB                  __ptext13 07A2  
                __ptext14 0E00                  __ptext15 0C04                  __ptext16 0C11  
                __ptext17 0C32                  __ptext18 0D00                  __ptext19 0BFB  
         ??_Lcd_Write_Int 0027           main@temperatura 0069       Lcd_Write_Int@buffer 002A  
      Lcd_Write_Char@temp 0075                  intlevel1 0000          ___lwmod@dividend 0075  
               stringcode 07F7        Lcd_Set_Cursor@riga 0020        Lcd_Set_Cursor@temp 0023  
      Lcd_Write_Int@isNeg 005C    __Umul8_16@multiplicand 0073                _OPTION_REG 0081  
         ___lwmod@divisor 0073           ___lwmod@counter 0078                  stringdir 07F7  
                stringtab 07ED             ___fladd@signs 0073              ___fladd@aexp 0074  
            ___fladd@bexp 0075      __Umul8_16@multiplier 0024         __Umul8_16@product 0020  
