

Microchip MPLAB XC8 Assembler V2.40 build 20220703182018 
                                                                                               Thu Jan 19 09:28:11 2023

Microchip MPLAB XC8 C Compiler v2.40 (Free license) build 20220703182018 Og1 
     1                           	processor	16F877A
     2                           	pagewidth 120
     3                           	opt	flic
     4                           	psect	strings,global,class=STRING,delta=2,noexec
     5                           	psect	cinit,global,class=CODE,merge=1,delta=2
     6                           	psect	bssCOMMON,global,class=COMMON,space=1,delta=1,noexec
     7                           	psect	bssBANK1,global,class=BANK1,space=1,delta=1,noexec
     8                           	psect	cstackBANK1,global,class=BANK1,space=1,delta=1,noexec
     9                           	psect	cstackCOMMON,global,class=COMMON,space=1,delta=1,noexec
    10                           	psect	cstackBANK0,global,class=BANK0,space=1,delta=1,noexec
    11                           	psect	maintext,global,class=CODE,split=1,delta=2
    12                           	psect	text1,local,class=CODE,merge=1,delta=2,group=1
    13                           	psect	text2,local,class=CODE,merge=1,delta=2,group=2
    14                           	psect	text3,local,class=CODE,merge=1,delta=2,group=2
    15                           	psect	text4,local,class=CODE,merge=1,delta=2,group=2
    16                           	psect	text5,local,class=CODE,merge=1,delta=2,group=2
    17                           	psect	text6,local,class=CODE,merge=1,delta=2,group=2
    18                           	psect	text7,local,class=CODE,merge=1,delta=2,group=2
    19                           	psect	text8,local,class=CODE,merge=1,delta=2,group=2
    20                           	psect	text9,local,class=CODE,merge=1,delta=2
    21                           	psect	text10,local,class=CODE,merge=1,delta=2,group=2
    22                           	psect	text11,local,class=CODE,merge=1,delta=2,group=2
    23                           	psect	text12,local,class=CODE,merge=1,delta=2,group=2
    24                           	psect	text13,local,class=CODE,merge=1,delta=2
    25                           	psect	text14,local,class=CODE,merge=1,delta=2
    26                           	psect	text15,local,class=CODE,merge=1,delta=2
    27                           	psect	text16,local,class=CODE,merge=1,delta=2
    28                           	psect	text17,local,class=CODE,merge=1,delta=2
    29                           	psect	text18,local,class=CODE,merge=1,delta=2
    30                           	psect	text19,local,class=CODE,merge=1,delta=2
    31                           	psect	text20,local,class=CODE,merge=1,delta=2
    32                           	psect	text21,local,class=CODE,merge=1,delta=2
    33                           	psect	intentry,global,class=CODE,delta=2
    34                           	psect	idloc,global,abs,ovrld,class=IDLOC,space=5,delta=2,noexec
    35                           	psect	config,global,abs,ovrld,class=CONFIG,space=4,delta=2,noexec
    36                           	dabs	1,0x7E,2
    37     0000                     
    38                           ; Version 2.40
    39                           ; Generated 17/11/2021 GMT
    40                           ; 
    41                           ; Copyright © 2021, Microchip Technology Inc. and its subsidiaries ("Microchip")
    42                           ; All rights reserved.
    43                           ; 
    44                           ; This software is developed by Microchip Technology Inc. and its subsidiaries ("Microch
      +                          ip").
    45                           ; 
    46                           ; Redistribution and use in source and binary forms, with or without modification, are
    47                           ; permitted provided that the following conditions are met:
    48                           ; 
    49                           ;     1. Redistributions of source code must retain the above copyright notice, this lis
      +                          t of
    50                           ;        conditions and the following disclaimer.
    51                           ; 
    52                           ;     2. Redistributions in binary form must reproduce the above copyright notice, this 
      +                          list
    53                           ;        of conditions and the following disclaimer in the documentation and/or other
    54                           ;        materials provided with the distribution. Publication is not required when
    55                           ;        this file is used in an embedded application.
    56                           ; 
    57                           ;     3. Microchip's name may not be used to endorse or promote products derived from th
      +                          is
    58                           ;        software without specific prior written permission.
    59                           ; 
    60                           ; THIS SOFTWARE IS PROVIDED BY MICROCHIP "AS IS" AND ANY EXPRESS OR IMPLIED WARRANTIES,
    61                           ; INCLUDING, BUT NOT LIMITED TO, THE IMPLIED WARRANTIES OF MERCHANTABILITY AND FITNESS F
      +                          OR
    62                           ; PURPOSE ARE DISCLAIMED.  IN NO EVENT SHALL MICROCHIP BE LIABLE FOR ANY DIRECT, INDIREC
      +                          T,
    63                           ; INCIDENTAL, SPECIAL, EXEMPLARY, OR CONSEQUENTIAL DAMAGES (INCLUDING BUT NOT LIMITED TO
    64                           ; PROCUREMENT OF SUBSTITUTE GOODS OR SERVICES; LOSS OF USE, DATA OR PROFITS; OR BUSINESS
    65                           ; INTERRUPTION) HOWSOEVER CAUSED AND ON ANY THEORY OF LIABILITY, WHETHER IN CONTRACT, ST
      +                          RICT
    66                           ; LIABILITY, OR TORT (INCLUDING NEGLIGENCE OR OTHERWISE) ARISING IN ANY WAY OUT OF THE U
      +                          SE OF
    67                           ; THIS SOFTWARE, EVEN IF ADVISED OF THE POSSIBILITY OF SUCH DAMAGE.
    68                           ; 
    69                           ; 
    70                           ; Code-generator required, PIC16F877A Definitions
    71                           ; 
    72                           ; SFR Addresses
    73     0000                     	;# 
    74     0001                     	;# 
    75     0002                     	;# 
    76     0003                     	;# 
    77     0004                     	;# 
    78     0005                     	;# 
    79     0006                     	;# 
    80     0007                     	;# 
    81     0008                     	;# 
    82     0009                     	;# 
    83     000A                     	;# 
    84     000B                     	;# 
    85     000C                     	;# 
    86     000D                     	;# 
    87     000E                     	;# 
    88     000E                     	;# 
    89     000F                     	;# 
    90     0010                     	;# 
    91     0011                     	;# 
    92     0012                     	;# 
    93     0013                     	;# 
    94     0014                     	;# 
    95     0015                     	;# 
    96     0015                     	;# 
    97     0016                     	;# 
    98     0017                     	;# 
    99     0018                     	;# 
   100     0019                     	;# 
   101     001A                     	;# 
   102     001B                     	;# 
   103     001B                     	;# 
   104     001C                     	;# 
   105     001D                     	;# 
   106     001E                     	;# 
   107     001F                     	;# 
   108     0081                     	;# 
   109     0085                     	;# 
   110     0086                     	;# 
   111     0087                     	;# 
   112     0088                     	;# 
   113     0089                     	;# 
   114     008C                     	;# 
   115     008D                     	;# 
   116     008E                     	;# 
   117     0091                     	;# 
   118     0092                     	;# 
   119     0093                     	;# 
   120     0094                     	;# 
   121     0098                     	;# 
   122     0099                     	;# 
   123     009C                     	;# 
   124     009D                     	;# 
   125     009E                     	;# 
   126     009F                     	;# 
   127     010C                     	;# 
   128     010D                     	;# 
   129     010E                     	;# 
   130     010F                     	;# 
   131     018C                     	;# 
   132     018D                     	;# 
   133     0000                     	;# 
   134     0001                     	;# 
   135     0002                     	;# 
   136     0003                     	;# 
   137     0004                     	;# 
   138     0005                     	;# 
   139     0006                     	;# 
   140     0007                     	;# 
   141     0008                     	;# 
   142     0009                     	;# 
   143     000A                     	;# 
   144     000B                     	;# 
   145     000C                     	;# 
   146     000D                     	;# 
   147     000E                     	;# 
   148     000E                     	;# 
   149     000F                     	;# 
   150     0010                     	;# 
   151     0011                     	;# 
   152     0012                     	;# 
   153     0013                     	;# 
   154     0014                     	;# 
   155     0015                     	;# 
   156     0015                     	;# 
   157     0016                     	;# 
   158     0017                     	;# 
   159     0018                     	;# 
   160     0019                     	;# 
   161     001A                     	;# 
   162     001B                     	;# 
   163     001B                     	;# 
   164     001C                     	;# 
   165     001D                     	;# 
   166     001E                     	;# 
   167     001F                     	;# 
   168     0081                     	;# 
   169     0085                     	;# 
   170     0086                     	;# 
   171     0087                     	;# 
   172     0088                     	;# 
   173     0089                     	;# 
   174     008C                     	;# 
   175     008D                     	;# 
   176     008E                     	;# 
   177     0091                     	;# 
   178     0092                     	;# 
   179     0093                     	;# 
   180     0094                     	;# 
   181     0098                     	;# 
   182     0099                     	;# 
   183     009C                     	;# 
   184     009D                     	;# 
   185     009E                     	;# 
   186     009F                     	;# 
   187     010C                     	;# 
   188     010D                     	;# 
   189     010E                     	;# 
   190     010F                     	;# 
   191     018C                     	;# 
   192     018D                     	;# 
   193     0000                     	;# 
   194     0001                     	;# 
   195     0002                     	;# 
   196     0003                     	;# 
   197     0004                     	;# 
   198     0005                     	;# 
   199     0006                     	;# 
   200     0007                     	;# 
   201     0008                     	;# 
   202     0009                     	;# 
   203     000A                     	;# 
   204     000B                     	;# 
   205     000C                     	;# 
   206     000D                     	;# 
   207     000E                     	;# 
   208     000E                     	;# 
   209     000F                     	;# 
   210     0010                     	;# 
   211     0011                     	;# 
   212     0012                     	;# 
   213     0013                     	;# 
   214     0014                     	;# 
   215     0015                     	;# 
   216     0015                     	;# 
   217     0016                     	;# 
   218     0017                     	;# 
   219     0018                     	;# 
   220     0019                     	;# 
   221     001A                     	;# 
   222     001B                     	;# 
   223     001B                     	;# 
   224     001C                     	;# 
   225     001D                     	;# 
   226     001E                     	;# 
   227     001F                     	;# 
   228     0081                     	;# 
   229     0085                     	;# 
   230     0086                     	;# 
   231     0087                     	;# 
   232     0088                     	;# 
   233     0089                     	;# 
   234     008C                     	;# 
   235     008D                     	;# 
   236     008E                     	;# 
   237     0091                     	;# 
   238     0092                     	;# 
   239     0093                     	;# 
   240     0094                     	;# 
   241     0098                     	;# 
   242     0099                     	;# 
   243     009C                     	;# 
   244     009D                     	;# 
   245     009E                     	;# 
   246     009F                     	;# 
   247     010C                     	;# 
   248     010D                     	;# 
   249     010E                     	;# 
   250     010F                     	;# 
   251     018C                     	;# 
   252     018D                     	;# 
   253     0000                     	;# 
   254     0001                     	;# 
   255     0002                     	;# 
   256     0003                     	;# 
   257     0004                     	;# 
   258     0005                     	;# 
   259     0006                     	;# 
   260     0007                     	;# 
   261     0008                     	;# 
   262     0009                     	;# 
   263     000A                     	;# 
   264     000B                     	;# 
   265     000C                     	;# 
   266     000D                     	;# 
   267     000E                     	;# 
   268     000E                     	;# 
   269     000F                     	;# 
   270     0010                     	;# 
   271     0011                     	;# 
   272     0012                     	;# 
   273     0013                     	;# 
   274     0014                     	;# 
   275     0015                     	;# 
   276     0015                     	;# 
   277     0016                     	;# 
   278     0017                     	;# 
   279     0018                     	;# 
   280     0019                     	;# 
   281     001A                     	;# 
   282     001B                     	;# 
   283     001B                     	;# 
   284     001C                     	;# 
   285     001D                     	;# 
   286     001E                     	;# 
   287     001F                     	;# 
   288     0081                     	;# 
   289     0085                     	;# 
   290     0086                     	;# 
   291     0087                     	;# 
   292     0088                     	;# 
   293     0089                     	;# 
   294     008C                     	;# 
   295     008D                     	;# 
   296     008E                     	;# 
   297     0091                     	;# 
   298     0092                     	;# 
   299     0093                     	;# 
   300     0094                     	;# 
   301     0098                     	;# 
   302     0099                     	;# 
   303     009C                     	;# 
   304     009D                     	;# 
   305     009E                     	;# 
   306     009F                     	;# 
   307     010C                     	;# 
   308     010D                     	;# 
   309     010E                     	;# 
   310     010F                     	;# 
   311     018C                     	;# 
   312     018D                     	;# 
   313     0000                     	;# 
   314     0001                     	;# 
   315     0002                     	;# 
   316     0003                     	;# 
   317     0004                     	;# 
   318     0005                     	;# 
   319     0006                     	;# 
   320     0007                     	;# 
   321     0008                     	;# 
   322     0009                     	;# 
   323     000A                     	;# 
   324     000B                     	;# 
   325     000C                     	;# 
   326     000D                     	;# 
   327     000E                     	;# 
   328     000E                     	;# 
   329     000F                     	;# 
   330     0010                     	;# 
   331     0011                     	;# 
   332     0012                     	;# 
   333     0013                     	;# 
   334     0014                     	;# 
   335     0015                     	;# 
   336     0015                     	;# 
   337     0016                     	;# 
   338     0017                     	;# 
   339     0018                     	;# 
   340     0019                     	;# 
   341     001A                     	;# 
   342     001B                     	;# 
   343     001B                     	;# 
   344     001C                     	;# 
   345     001D                     	;# 
   346     001E                     	;# 
   347     001F                     	;# 
   348     0081                     	;# 
   349     0085                     	;# 
   350     0086                     	;# 
   351     0087                     	;# 
   352     0088                     	;# 
   353     0089                     	;# 
   354     008C                     	;# 
   355     008D                     	;# 
   356     008E                     	;# 
   357     0091                     	;# 
   358     0092                     	;# 
   359     0093                     	;# 
   360     0094                     	;# 
   361     0098                     	;# 
   362     0099                     	;# 
   363     009C                     	;# 
   364     009D                     	;# 
   365     009E                     	;# 
   366     009F                     	;# 
   367     010C                     	;# 
   368     010D                     	;# 
   369     010E                     	;# 
   370     010F                     	;# 
   371     018C                     	;# 
   372     018D                     	;# 
   373     0000                     	;# 
   374     0001                     	;# 
   375     0002                     	;# 
   376     0003                     	;# 
   377     0004                     	;# 
   378     0005                     	;# 
   379     0006                     	;# 
   380     0007                     	;# 
   381     0008                     	;# 
   382     0009                     	;# 
   383     000A                     	;# 
   384     000B                     	;# 
   385     000C                     	;# 
   386     000D                     	;# 
   387     000E                     	;# 
   388     000E                     	;# 
   389     000F                     	;# 
   390     0010                     	;# 
   391     0011                     	;# 
   392     0012                     	;# 
   393     0013                     	;# 
   394     0014                     	;# 
   395     0015                     	;# 
   396     0015                     	;# 
   397     0016                     	;# 
   398     0017                     	;# 
   399     0018                     	;# 
   400     0019                     	;# 
   401     001A                     	;# 
   402     001B                     	;# 
   403     001B                     	;# 
   404     001C                     	;# 
   405     001D                     	;# 
   406     001E                     	;# 
   407     001F                     	;# 
   408     0081                     	;# 
   409     0085                     	;# 
   410     0086                     	;# 
   411     0087                     	;# 
   412     0088                     	;# 
   413     0089                     	;# 
   414     008C                     	;# 
   415     008D                     	;# 
   416     008E                     	;# 
   417     0091                     	;# 
   418     0092                     	;# 
   419     0093                     	;# 
   420     0094                     	;# 
   421     0098                     	;# 
   422     0099                     	;# 
   423     009C                     	;# 
   424     009D                     	;# 
   425     009E                     	;# 
   426     009F                     	;# 
   427     010C                     	;# 
   428     010D                     	;# 
   429     010E                     	;# 
   430     010F                     	;# 
   431     018C                     	;# 
   432     018D                     	;# 
   433                           
   434                           	psect	strings
   435     0800                     __pstrings:
   436     0800                     stringtab:
   437     0800                     __stringtab:
   438     0800                     stringcode:	
   439                           ;	String table - string pointers are 1 byte each
   440                           
   441     0800                     stringdir:
   442     0800  3008               	movlw	high stringdir
   443     0801  008A               	movwf	10
   444     0802  0804               	movf	4,w
   445     0803  0A84               	incf	4,f
   446     0804  0782               	addwf	2,f
   447     0805                     __stringbase:
   448     0805  3400               	retlw	0
   449     0806                     __end_of__stringtab:
   450     0806                     _keypad:
   451     0806  342A               	retlw	42
   452     0807  3407               	retlw	7
   453     0808  3404               	retlw	4
   454     0809  3401               	retlw	1
   455     080A  3400               	retlw	0
   456     080B  3408               	retlw	8
   457     080C  3405               	retlw	5
   458     080D  3402               	retlw	2
   459     080E  3423               	retlw	35
   460     080F  3409               	retlw	9
   461     0810  3406               	retlw	6
   462     0811  3403               	retlw	3
   463     0812                     __end_of_keypad:
   464     0812                     SevenSeg_Write@displayPattern:
   465     0812  34EE               	retlw	238
   466     0813  3428               	retlw	40
   467     0814  34CD               	retlw	205
   468     0815  346D               	retlw	109
   469     0816  342B               	retlw	43
   470     0817  3467               	retlw	103
   471     0818  34E7               	retlw	231
   472     0819  342C               	retlw	44
   473     081A  34EF               	retlw	239
   474     081B  346F               	retlw	111
   475     081C                     __end_ofSevenSeg_Write@displayPattern:
   476     0007                     _PORTCbits	set	7
   477     0001                     _TMR0	set	1
   478     000B                     _INTCON	set	11
   479     0007                     _PORTC	set	7
   480     0008                     _PORTD	set	8
   481     0009                     _PORTEbits	set	9
   482     0008                     _PORTDbits	set	8
   483     001E                     _ADRESH	set	30
   484     001F                     _ADCON0	set	31
   485     0006                     _PORTB	set	6
   486     005A                     _T0IF	set	90
   487     0081                     _OPTION_REG	set	129
   488     0087                     _TRISC	set	135
   489     0086                     _TRISB	set	134
   490     0089                     _TRISE	set	137
   491     0088                     _TRISD	set	136
   492     009E                     _ADRESL	set	158
   493     0085                     _TRISA	set	133
   494     009F                     _ADCON1	set	159
   495                           
   496                           	psect	cinit
   497     000F                     start_initialization:	
   498                           ; #config settings
   499                           
   500     000F                     __initialization:
   501                           
   502                           ; Clear objects allocated to COMMON
   503     000F  01FB               	clrf	__pbssCOMMON& (0+127)
   504                           
   505                           ; Clear objects allocated to BANK1
   506     0010  1683               	bsf	3,5	;RP0=1, select bank1
   507     0011  1303               	bcf	3,6	;RP1=0, select bank1
   508     0012  01C2               	clrf	__pbssBANK1& (0+127)
   509     0013  01C3               	clrf	(__pbssBANK1+1)& (0+127)
   510     0014  01C4               	clrf	(__pbssBANK1+2)& (0+127)
   511     0015  01C5               	clrf	(__pbssBANK1+3)& (0+127)
   512     0016  01C6               	clrf	(__pbssBANK1+4)& (0+127)
   513     0017  01C7               	clrf	(__pbssBANK1+5)& (0+127)
   514     0018  01C8               	clrf	(__pbssBANK1+6)& (0+127)
   515     0019  01C9               	clrf	(__pbssBANK1+7)& (0+127)
   516     001A  01CA               	clrf	(__pbssBANK1+8)& (0+127)
   517     001B  01CB               	clrf	(__pbssBANK1+9)& (0+127)
   518     001C  01CC               	clrf	(__pbssBANK1+10)& (0+127)
   519     001D                     end_of_initialization:	
   520                           ;End of C runtime variable initialization code
   521                           
   522     001D                     __end_of__initialization:
   523     001D  0183               	clrf	3
   524     001E  120A  118A  2EC4   	ljmp	_main	;jump to C main() function
   525                           
   526                           	psect	bssCOMMON
   527     007B                     __pbssCOMMON:
   528     007B                     Numpad_Read@oldKeyVal:
   529     007B                     	ds	1
   530                           
   531                           	psect	bssBANK1
   532     00C2                     __pbssBANK1:
   533     00C2                     pid_controller@integral:
   534     00C2                     	ds	4
   535     00C6                     pid_controller@previous_error:
   536     00C6                     	ds	4
   537     00CA                     _low_time:
   538     00CA                     	ds	1
   539     00CB                     _high_time:
   540     00CB                     	ds	1
   541     00CC                     _duty:
   542     00CC                     	ds	1
   543                           
   544                           	psect	cstackBANK1
   545     00A0                     __pcstackBANK1:
   546     00A0                     ?_pid_controller:
   547     00A0                     pid_controller@setpoint:	
   548                           ; 4 bytes @ 0x0
   549                           
   550                           
   551                           ; 4 bytes @ 0x0
   552     00A0                     	ds	4
   553     00A4                     pid_controller@process_variable:
   554                           
   555                           ; 4 bytes @ 0x4
   556     00A4                     	ds	4
   557     00A8                     pid_controller@kp:
   558                           
   559                           ; 4 bytes @ 0x8
   560     00A8                     	ds	4
   561     00AC                     pid_controller@ki:
   562                           
   563                           ; 4 bytes @ 0xC
   564     00AC                     	ds	4
   565     00B0                     pid_controller@kd:
   566                           
   567                           ; 4 bytes @ 0x10
   568     00B0                     	ds	4
   569     00B4                     pid_controller@control_min:
   570                           
   571                           ; 4 bytes @ 0x14
   572     00B4                     	ds	4
   573     00B8                     pid_controller@control_max:
   574                           
   575                           ; 4 bytes @ 0x18
   576     00B8                     	ds	4
   577     00BC                     ??_main:
   578                           
   579                           ; 1 bytes @ 0x1C
   580     00BC                     	ds	2
   581     00BE                     main@old_val:
   582                           
   583                           ; 2 bytes @ 0x1E
   584     00BE                     	ds	2
   585     00C0                     main@val:
   586                           
   587                           ; 2 bytes @ 0x20
   588     00C0                     	ds	2
   589                           
   590                           	psect	cstackCOMMON
   591     0070                     __pcstackCOMMON:
   592     0070                     ?_Adc_Init:
   593     0070                     ?_Lcd_Port:	
   594                           ; 1 bytes @ 0x0
   595                           
   596     0070                     ?_Lcd_Cmd:	
   597                           ; 1 bytes @ 0x0
   598                           
   599     0070                     ?_Lcd_Init:	
   600                           ; 1 bytes @ 0x0
   601                           
   602     0070                     ?_Lcd_Clear:	
   603                           ; 1 bytes @ 0x0
   604                           
   605     0070                     ?_Lcd_Write_Char:	
   606                           ; 1 bytes @ 0x0
   607                           
   608     0070                     ?_Lcd_Write_String:	
   609                           ; 1 bytes @ 0x0
   610                           
   611     0070                     ?_main:	
   612                           ; 1 bytes @ 0x0
   613                           
   614     0070                     ?_ISR:	
   615                           ; 1 bytes @ 0x0
   616                           
   617     0070                     ??_ISR:	
   618                           ; 1 bytes @ 0x0
   619                           
   620                           
   621                           ; 1 bytes @ 0x0
   622     0070                     	ds	2
   623     0072                     ?___flge:
   624     0072                     ??_Adc_Init:	
   625                           ; 1 bit 
   626                           
   627     0072                     ??_Lcd_Port:	
   628                           ; 1 bytes @ 0x2
   629                           
   630     0072                     ?__Umul8_16:	
   631                           ; 1 bytes @ 0x2
   632                           
   633     0072                     ?_Adc_Read:	
   634                           ; 2 bytes @ 0x2
   635                           
   636     0072                     ?___awdiv:	
   637                           ; 2 bytes @ 0x2
   638                           
   639     0072                     ?___lwdiv:	
   640                           ; 2 bytes @ 0x2
   641                           
   642     0072                     ?___lwmod:	
   643                           ; 2 bytes @ 0x2
   644                           
   645     0072                     ?___xxtofl:	
   646                           ; 2 bytes @ 0x2
   647                           
   648     0072                     Lcd_Port@a:	
   649                           ; 4 bytes @ 0x2
   650                           
   651     0072                     __Umul8_16@multiplicand:	
   652                           ; 1 bytes @ 0x2
   653                           
   654     0072                     ___awdiv@divisor:	
   655                           ; 1 bytes @ 0x2
   656                           
   657     0072                     ___lwdiv@divisor:	
   658                           ; 2 bytes @ 0x2
   659                           
   660     0072                     ___lwmod@divisor:	
   661                           ; 2 bytes @ 0x2
   662                           
   663     0072                     ___flge@ff1:	
   664                           ; 2 bytes @ 0x2
   665                           
   666     0072                     ___xxtofl@val:	
   667                           ; 4 bytes @ 0x2
   668                           
   669                           
   670                           ; 4 bytes @ 0x2
   671     0072                     	ds	1
   672     0073                     ??_Lcd_Cmd:
   673     0073                     ??_Lcd_Write_Char:	
   674                           ; 1 bytes @ 0x3
   675                           
   676                           
   677                           ; 1 bytes @ 0x3
   678     0073                     	ds	1
   679     0074                     ??__Umul8_16:
   680     0074                     ??_Adc_Read:	
   681                           ; 1 bytes @ 0x4
   682                           
   683     0074                     Lcd_Write_Char@temp:	
   684                           ; 1 bytes @ 0x4
   685                           
   686     0074                     ___awdiv@dividend:	
   687                           ; 1 bytes @ 0x4
   688                           
   689     0074                     ___lwdiv@dividend:	
   690                           ; 2 bytes @ 0x4
   691                           
   692     0074                     ___lwmod@dividend:	
   693                           ; 2 bytes @ 0x4
   694                           
   695                           
   696                           ; 2 bytes @ 0x4
   697     0074                     	ds	1
   698     0075                     Lcd_Cmd@a:
   699     0075                     Lcd_Write_Char@y:	
   700                           ; 1 bytes @ 0x5
   701                           
   702                           
   703                           ; 1 bytes @ 0x5
   704     0075                     	ds	1
   705     0076                     ??_Lcd_Init:
   706     0076                     ??_Lcd_Clear:	
   707                           ; 1 bytes @ 0x6
   708                           
   709     0076                     ??___awdiv:	
   710                           ; 1 bytes @ 0x6
   711                           
   712     0076                     ??___lwdiv:	
   713                           ; 1 bytes @ 0x6
   714                           
   715     0076                     ??___lwmod:	
   716                           ; 1 bytes @ 0x6
   717                           
   718     0076                     ??___xxtofl:	
   719                           ; 1 bytes @ 0x6
   720                           
   721     0076                     Adc_Read@channel:	
   722                           ; 1 bytes @ 0x6
   723                           
   724     0076                     Lcd_Write_Char@a:	
   725                           ; 1 bytes @ 0x6
   726                           
   727     0076                     __Umul8_16@product:	
   728                           ; 1 bytes @ 0x6
   729                           
   730     0076                     ___flge@ff2:	
   731                           ; 2 bytes @ 0x6
   732                           
   733                           
   734                           ; 4 bytes @ 0x6
   735     0076                     	ds	1
   736     0077                     ??_Lcd_Write_String:
   737     0077                     ___awdiv@counter:	
   738                           ; 1 bytes @ 0x7
   739                           
   740     0077                     ___lwmod@counter:	
   741                           ; 1 bytes @ 0x7
   742                           
   743     0077                     ___lwdiv@quotient:	
   744                           ; 1 bytes @ 0x7
   745                           
   746                           
   747                           ; 2 bytes @ 0x7
   748     0077                     	ds	1
   749     0078                     ___awdiv@sign:
   750     0078                     Lcd_Write_String@i:	
   751                           ; 1 bytes @ 0x8
   752                           
   753     0078                     __Umul8_16@word_mpld:	
   754                           ; 2 bytes @ 0x8
   755                           
   756                           
   757                           ; 2 bytes @ 0x8
   758     0078                     	ds	1
   759     0079                     ___lwdiv@counter:
   760     0079                     ___awdiv@quotient:	
   761                           ; 1 bytes @ 0x9
   762                           
   763                           
   764                           ; 2 bytes @ 0x9
   765     0079                     	ds	1
   766     007A                     Lcd_Write_String@a:
   767     007A                     __Umul8_16@multiplier:	
   768                           ; 1 bytes @ 0xA
   769                           
   770                           
   771                           ; 1 bytes @ 0xA
   772     007A                     	ds	1
   773     007B                     ??_pid_controller:
   774     007B                     ??___flsub:	
   775                           ; 1 bytes @ 0xB
   776                           
   777                           
   778                           	psect	cstackBANK0
   779     0020                     __pcstackBANK0:	
   780                           ; 1 bytes @ 0xB
   781                           
   782     0020                     ??___flge:
   783     0020                     ?_Lcd_Write_Int:	
   784                           ; 1 bytes @ 0x0
   785                           
   786     0020                     ?___flmul:	
   787                           ; 2 bytes @ 0x0
   788                           
   789     0020                     ___xxtofl@sign:	
   790                           ; 4 bytes @ 0x0
   791                           
   792     0020                     Lcd_Write_Int@val:	
   793                           ; 1 bytes @ 0x0
   794                           
   795     0020                     ___flmul@b:	
   796                           ; 2 bytes @ 0x0
   797                           
   798                           
   799                           ; 4 bytes @ 0x0
   800     0020                     	ds	1
   801     0021                     ___xxtofl@exp:
   802                           
   803                           ; 1 bytes @ 0x1
   804     0021                     	ds	1
   805     0022                     ??_Lcd_Write_Int:
   806     0022                     ___xxtofl@arg:	
   807                           ; 1 bytes @ 0x2
   808                           
   809                           
   810                           ; 4 bytes @ 0x2
   811     0022                     	ds	2
   812     0024                     ___flmul@a:
   813                           
   814                           ; 4 bytes @ 0x4
   815     0024                     	ds	1
   816     0025                     Lcd_Write_Int@buffer:
   817                           
   818                           ; 50 bytes @ 0x5
   819     0025                     	ds	3
   820     0028                     ??___flmul:
   821                           
   822                           ; 1 bytes @ 0x8
   823     0028                     	ds	5
   824     002D                     ___flmul@sign:
   825                           
   826                           ; 1 bytes @ 0xD
   827     002D                     	ds	1
   828     002E                     ___flmul@grs:
   829                           
   830                           ; 4 bytes @ 0xE
   831     002E                     	ds	4
   832     0032                     ___flmul@aexp:
   833                           
   834                           ; 1 bytes @ 0x12
   835     0032                     	ds	1
   836     0033                     ___flmul@bexp:
   837                           
   838                           ; 1 bytes @ 0x13
   839     0033                     	ds	1
   840     0034                     ___flmul@prod:
   841                           
   842                           ; 4 bytes @ 0x14
   843     0034                     	ds	4
   844     0038                     ___flmul@temp:
   845                           
   846                           ; 2 bytes @ 0x18
   847     0038                     	ds	2
   848     003A                     ?___fladd:
   849     003A                     ___fladd@b:	
   850                           ; 4 bytes @ 0x1A
   851                           
   852                           
   853                           ; 4 bytes @ 0x1A
   854     003A                     	ds	4
   855     003E                     ___fladd@a:
   856                           
   857                           ; 4 bytes @ 0x1E
   858     003E                     	ds	4
   859     0042                     ??___fladd:
   860                           
   861                           ; 1 bytes @ 0x22
   862     0042                     	ds	8
   863     004A                     ___fladd@signs:
   864                           
   865                           ; 1 bytes @ 0x2A
   866     004A                     	ds	1
   867     004B                     ___fladd@aexp:
   868                           
   869                           ; 1 bytes @ 0x2B
   870     004B                     	ds	1
   871     004C                     ___fladd@bexp:
   872                           
   873                           ; 1 bytes @ 0x2C
   874     004C                     	ds	1
   875     004D                     ___fladd@grs:
   876                           
   877                           ; 1 bytes @ 0x2D
   878     004D                     	ds	1
   879     004E                     ?___flsub:
   880     004E                     ___flsub@a:	
   881                           ; 4 bytes @ 0x2E
   882                           
   883                           
   884                           ; 4 bytes @ 0x2E
   885     004E                     	ds	4
   886     0052                     ___flsub@b:
   887                           
   888                           ; 4 bytes @ 0x32
   889     0052                     	ds	4
   890     0056                     pid_controller@derivative:
   891                           
   892                           ; 4 bytes @ 0x36
   893     0056                     	ds	1
   894     0057                     Lcd_Write_Int@isNeg:
   895                           
   896                           ; 1 bytes @ 0x37
   897     0057                     	ds	1
   898     0058                     Lcd_Write_Int@n1:
   899                           
   900                           ; 2 bytes @ 0x38
   901     0058                     	ds	2
   902     005A                     Lcd_Write_Int@n:
   903     005A                     _pid_controller$855:	
   904                           ; 2 bytes @ 0x3A
   905                           
   906                           
   907                           ; 4 bytes @ 0x3A
   908     005A                     	ds	2
   909     005C                     Lcd_Write_Int@t:
   910                           
   911                           ; 2 bytes @ 0x3C
   912     005C                     	ds	2
   913     005E                     Lcd_Write_Int@i:
   914     005E                     pid_controller@control:	
   915                           ; 2 bytes @ 0x3E
   916                           
   917                           
   918                           ; 4 bytes @ 0x3E
   919     005E                     	ds	4
   920     0062                     pid_controller@error:
   921                           
   922                           ; 4 bytes @ 0x42
   923     0062                     	ds	4
   924     0066                     ?___fltol:
   925     0066                     ___fltol@f1:	
   926                           ; 4 bytes @ 0x46
   927                           
   928                           
   929                           ; 4 bytes @ 0x46
   930     0066                     	ds	4
   931     006A                     ??___fltol:
   932                           
   933                           ; 1 bytes @ 0x4A
   934     006A                     	ds	4
   935     006E                     ___fltol@sign1:
   936                           
   937                           ; 1 bytes @ 0x4E
   938     006E                     	ds	1
   939     006F                     ___fltol@exp1:
   940                           
   941                           ; 1 bytes @ 0x4F
   942     006F                     	ds	1
   943                           
   944                           	psect	maintext
   945     06C4                     __pmaintext:	
   946 ;;
   947 ;;Main: autosize = 0, tempsize = 2, incstack = 0, save=0
   948 ;;
   949 ;; *************** function _main *****************
   950 ;; Defined at:
   951 ;;		line 31 in file "main.c"
   952 ;; Parameters:    Size  Location     Type
   953 ;;		None
   954 ;; Auto vars:     Size  Location     Type
   955 ;;  val             2   32[BANK1 ] int 
   956 ;;  old_val         2   30[BANK1 ] int 
   957 ;;  err             2    0        int 
   958 ;; Return value:  Size  Location     Type
   959 ;;                  1    wreg      void 
   960 ;; Registers used:
   961 ;;		wreg, fsr0l, fsr0h, status,2, status,0, btemp+1, pclath, cstack
   962 ;; Tracked objects:
   963 ;;		On entry : B00/0
   964 ;;		On exit  : 0/0
   965 ;;		Unchanged: 0/0
   966 ;; Data sizes:     COMMON   BANK0   BANK1   BANK3   BANK2
   967 ;;      Params:         0       0       0       0       0
   968 ;;      Locals:         0       0       4       0       0
   969 ;;      Temps:          0       0       2       0       0
   970 ;;      Totals:         0       0       6       0       0
   971 ;;Total ram usage:        6 bytes
   972 ;; Hardware stack levels required when called: 5
   973 ;; This function calls:
   974 ;;		_Adc_Init
   975 ;;		_Adc_Read
   976 ;;		_Lcd_Clear
   977 ;;		_Lcd_Init
   978 ;;		_Lcd_Write_Int
   979 ;;		___fltol
   980 ;;		___xxtofl
   981 ;;		_pid_controller
   982 ;; This function is called by:
   983 ;;		Startup code after reset
   984 ;; This function uses a non-reentrant model
   985 ;;
   986                           
   987     06C4                     _main:	
   988                           ;psect for function _main
   989                           
   990     06C4                     l2342:	
   991                           ;incstack = 0
   992                           ; Regs used in _main: [wreg-fsr0h+status,2+status,0+btemp+1+pclath+cstack]
   993                           
   994                           
   995                           ;main.c: 33:     Adc_Init();
   996     06C4  120A  158A  219A  120A  118A  	fcall	_Adc_Init
   997                           
   998                           ;main.c: 34:     Lcd_Init();
   999     06C9  120A  158A  236D  120A  118A  	fcall	_Lcd_Init
  1000     06CE                     l2344:
  1001                           
  1002                           ;main.c: 36:     TRISC = 0x00;
  1003     06CE  1683               	bsf	3,5	;RP0=1, select bank1
  1004     06CF  1303               	bcf	3,6	;RP1=0, select bank1
  1005     06D0  0187               	clrf	7	;volatile
  1006     06D1                     l2346:
  1007                           
  1008                           ;main.c: 37:     PORTC |= 0x20;
  1009     06D1  1283               	bcf	3,5	;RP0=0, select bank0
  1010     06D2  1303               	bcf	3,6	;RP1=0, select bank0
  1011     06D3  1687               	bsf	7,5	;volatile
  1012     06D4                     l2348:
  1013                           
  1014                           ;main.c: 38:     INTCON = 0xA0;
  1015     06D4  30A0               	movlw	160
  1016     06D5  008B               	movwf	11	;volatile
  1017     06D6                     l2350:
  1018                           
  1019                           ;main.c: 39:     OPTION_REG = 0x84;
  1020     06D6  3084               	movlw	132
  1021     06D7  1683               	bsf	3,5	;RP0=1, select bank1
  1022     06D8  1303               	bcf	3,6	;RP1=0, select bank1
  1023     06D9  0081               	movwf	1	;volatile
  1024     06DA                     l2352:
  1025                           
  1026                           ;main.c: 41:     int old_val;;main.c: 42:     int err;;main.c: 44:     duty = 45;
  1027     06DA  302D               	movlw	45
  1028     06DB  00CC               	movwf	_duty^(0+128)
  1029     06DC                     l2354:
  1030                           
  1031                           ;main.c: 45:     TMR0 = high_time;
  1032     06DC  084B               	movf	_high_time^(0+128),w
  1033     06DD  1283               	bcf	3,5	;RP0=0, select bank0
  1034     06DE  1303               	bcf	3,6	;RP1=0, select bank0
  1035     06DF  0081               	movwf	1	;volatile
  1036     06E0                     l2356:
  1037                           
  1038                           ;main.c: 48:         int val = 0;
  1039     06E0  1683               	bsf	3,5	;RP0=1, select bank1
  1040     06E1  1303               	bcf	3,6	;RP1=0, select bank1
  1041     06E2  01C0               	clrf	main@val^(0+128)
  1042     06E3  01C1               	clrf	(main@val+1)^(0+128)
  1043                           
  1044                           ;main.c: 49:         val = Adc_Read(2);
  1045     06E4  3002               	movlw	2
  1046     06E5  120A  158A  228B  120A  118A  	fcall	_Adc_Read
  1047     06EA  0873               	movf	?_Adc_Read+1,w
  1048     06EB  1683               	bsf	3,5	;RP0=1, select bank1
  1049     06EC  1303               	bcf	3,6	;RP1=0, select bank1
  1050     06ED  00C1               	movwf	(main@val+1)^(0+128)
  1051     06EE  0872               	movf	?_Adc_Read,w
  1052     06EF  00C0               	movwf	main@val^(0+128)
  1053     06F0                     l2358:
  1054                           
  1055                           ;main.c: 50:         if (val == old_val) continue;
  1056     06F0  083F               	movf	(main@old_val+1)^(0+128),w
  1057     06F1  0641               	xorwf	(main@val+1)^(0+128),w
  1058     06F2  1D03               	skipz
  1059     06F3  2EF6               	goto	u3375
  1060     06F4  083E               	movf	main@old_val^(0+128),w
  1061     06F5  0640               	xorwf	main@val^(0+128),w
  1062     06F6                     u3375:
  1063     06F6  1D03               	skipz
  1064     06F7  2EF9               	goto	u3371
  1065     06F8  2EFA               	goto	u3370
  1066     06F9                     u3371:
  1067     06F9  2EFB               	goto	l2362
  1068     06FA                     u3370:
  1069     06FA  2EE0               	goto	l2356
  1070     06FB                     l2362:
  1071                           
  1072                           ;main.c: 51:         duty = pid_controller(40*0.488, val, 1, 0, 0, 0, 255);
  1073     06FB  3043               	movlw	67
  1074     06FC  00BB               	movwf	(pid_controller@control_max+3)^(0+128)
  1075     06FD  307F               	movlw	127
  1076     06FE  00BA               	movwf	(pid_controller@control_max+2)^(0+128)
  1077     06FF  3000               	movlw	0
  1078     0700  00B9               	movwf	(pid_controller@control_max+1)^(0+128)
  1079     0701  3000               	movlw	0
  1080     0702  00B8               	movwf	pid_controller@control_max^(0+128)
  1081     0703  3000               	movlw	0
  1082     0704  00B7               	movwf	(pid_controller@control_min+3)^(0+128)
  1083     0705  3000               	movlw	0
  1084     0706  00B6               	movwf	(pid_controller@control_min+2)^(0+128)
  1085     0707  3000               	movlw	0
  1086     0708  00B5               	movwf	(pid_controller@control_min+1)^(0+128)
  1087     0709  3000               	movlw	0
  1088     070A  00B4               	movwf	pid_controller@control_min^(0+128)
  1089     070B  3000               	movlw	0
  1090     070C  00B3               	movwf	(pid_controller@kd+3)^(0+128)
  1091     070D  3000               	movlw	0
  1092     070E  00B2               	movwf	(pid_controller@kd+2)^(0+128)
  1093     070F  3000               	movlw	0
  1094     0710  00B1               	movwf	(pid_controller@kd+1)^(0+128)
  1095     0711  3000               	movlw	0
  1096     0712  00B0               	movwf	pid_controller@kd^(0+128)
  1097     0713  3000               	movlw	0
  1098     0714  00AF               	movwf	(pid_controller@ki+3)^(0+128)
  1099     0715  3000               	movlw	0
  1100     0716  00AE               	movwf	(pid_controller@ki+2)^(0+128)
  1101     0717  3000               	movlw	0
  1102     0718  00AD               	movwf	(pid_controller@ki+1)^(0+128)
  1103     0719  3000               	movlw	0
  1104     071A  00AC               	movwf	pid_controller@ki^(0+128)
  1105     071B  303F               	movlw	63
  1106     071C  00AB               	movwf	(pid_controller@kp+3)^(0+128)
  1107     071D  3080               	movlw	128
  1108     071E  00AA               	movwf	(pid_controller@kp+2)^(0+128)
  1109     071F  3000               	movlw	0
  1110     0720  00A9               	movwf	(pid_controller@kp+1)^(0+128)
  1111     0721  3000               	movlw	0
  1112     0722  00A8               	movwf	pid_controller@kp^(0+128)
  1113     0723  0840               	movf	main@val^(0+128),w
  1114     0724  00F2               	movwf	___xxtofl@val
  1115     0725  0841               	movf	(main@val+1)^(0+128),w
  1116     0726  00F3               	movwf	___xxtofl@val+1
  1117     0727  3000               	movlw	0
  1118     0728  1BF3               	btfsc	___xxtofl@val+1,7
  1119     0729  30FF               	movlw	255
  1120     072A  00F4               	movwf	___xxtofl@val+2
  1121     072B  00F5               	movwf	___xxtofl@val+3
  1122     072C  3001               	movlw	1
  1123     072D  120A  158A  24EE  120A  118A  	fcall	___xxtofl
  1124     0732  0875               	movf	?___xxtofl+3,w
  1125     0733  1683               	bsf	3,5	;RP0=1, select bank1
  1126     0734  1303               	bcf	3,6	;RP1=0, select bank1
  1127     0735  00A7               	movwf	(pid_controller@process_variable+3)^(0+128)
  1128     0736  0874               	movf	?___xxtofl+2,w
  1129     0737  00A6               	movwf	(pid_controller@process_variable+2)^(0+128)
  1130     0738  0873               	movf	?___xxtofl+1,w
  1131     0739  00A5               	movwf	(pid_controller@process_variable+1)^(0+128)
  1132     073A  0872               	movf	?___xxtofl,w
  1133     073B  00A4               	movwf	pid_controller@process_variable^(0+128)
  1134     073C  3041               	movlw	65
  1135     073D  00A3               	movwf	(pid_controller@setpoint+3)^(0+128)
  1136     073E  309C               	movlw	156
  1137     073F  00A2               	movwf	(pid_controller@setpoint+2)^(0+128)
  1138     0740  3028               	movlw	40
  1139     0741  00A1               	movwf	(pid_controller@setpoint+1)^(0+128)
  1140     0742  30F6               	movlw	246
  1141     0743  00A0               	movwf	pid_controller@setpoint^(0+128)
  1142     0744  120A  118A  2366  120A  118A  	fcall	_pid_controller
  1143     0749  1683               	bsf	3,5	;RP0=1, select bank1
  1144     074A  1303               	bcf	3,6	;RP1=0, select bank1
  1145     074B  0823               	movf	(?_pid_controller+3)^(0+128),w
  1146     074C  1283               	bcf	3,5	;RP0=0, select bank0
  1147     074D  1303               	bcf	3,6	;RP1=0, select bank0
  1148     074E  00E9               	movwf	___fltol@f1+3
  1149     074F  1683               	bsf	3,5	;RP0=1, select bank1
  1150     0750  1303               	bcf	3,6	;RP1=0, select bank1
  1151     0751  0822               	movf	(?_pid_controller+2)^(0+128),w
  1152     0752  1283               	bcf	3,5	;RP0=0, select bank0
  1153     0753  1303               	bcf	3,6	;RP1=0, select bank0
  1154     0754  00E8               	movwf	___fltol@f1+2
  1155     0755  1683               	bsf	3,5	;RP0=1, select bank1
  1156     0756  1303               	bcf	3,6	;RP1=0, select bank1
  1157     0757  0821               	movf	(?_pid_controller+1)^(0+128),w
  1158     0758  1283               	bcf	3,5	;RP0=0, select bank0
  1159     0759  1303               	bcf	3,6	;RP1=0, select bank0
  1160     075A  00E7               	movwf	___fltol@f1+1
  1161     075B  1683               	bsf	3,5	;RP0=1, select bank1
  1162     075C  1303               	bcf	3,6	;RP1=0, select bank1
  1163     075D  0820               	movf	?_pid_controller^(0+128),w
  1164     075E  1283               	bcf	3,5	;RP0=0, select bank0
  1165     075F  1303               	bcf	3,6	;RP1=0, select bank0
  1166     0760  00E6               	movwf	___fltol@f1
  1167     0761  120A  158A  23D2  120A  118A  	fcall	___fltol
  1168     0766  1283               	bcf	3,5	;RP0=0, select bank0
  1169     0767  1303               	bcf	3,6	;RP1=0, select bank0
  1170     0768  0866               	movf	?___fltol,w
  1171     0769  1683               	bsf	3,5	;RP0=1, select bank1
  1172     076A  1303               	bcf	3,6	;RP1=0, select bank1
  1173     076B  00CC               	movwf	_duty^(0+128)
  1174     076C                     l2364:
  1175                           
  1176                           ;main.c: 52:         high_time = 255 - duty;
  1177     076C  094C               	comf	_duty^(0+128),w
  1178     076D  00CB               	movwf	_high_time^(0+128)
  1179     076E                     l2366:
  1180                           
  1181                           ;main.c: 53:         low_time = duty;
  1182     076E  084C               	movf	_duty^(0+128),w
  1183     076F  00CA               	movwf	_low_time^(0+128)
  1184     0770                     l2368:
  1185                           
  1186                           ;main.c: 54:         Lcd_Clear();
  1187     0770  120A  158A  21A3  120A  118A  	fcall	_Lcd_Clear
  1188     0775                     l2370:
  1189                           
  1190                           ;main.c: 55:         old_val = val;
  1191     0775  1683               	bsf	3,5	;RP0=1, select bank1
  1192     0776  1303               	bcf	3,6	;RP1=0, select bank1
  1193     0777  0841               	movf	(main@val+1)^(0+128),w
  1194     0778  00BF               	movwf	(main@old_val+1)^(0+128)
  1195     0779  0840               	movf	main@val^(0+128),w
  1196     077A  00BE               	movwf	main@old_val^(0+128)
  1197     077B                     l2372:
  1198                           
  1199                           ;main.c: 57:         Lcd_Write_Int(duty);
  1200     077B  084C               	movf	_duty^(0+128),w
  1201     077C  00BC               	movwf	??_main^(0+128)
  1202     077D  01BD               	clrf	(??_main^(0+128)+1)
  1203     077E  083C               	movf	??_main^(0+128),w
  1204     077F  1283               	bcf	3,5	;RP0=0, select bank0
  1205     0780  1303               	bcf	3,6	;RP1=0, select bank0
  1206     0781  00A0               	movwf	Lcd_Write_Int@val
  1207     0782  1683               	bsf	3,5	;RP0=1, select bank1
  1208     0783  1303               	bcf	3,6	;RP1=0, select bank1
  1209     0784  083D               	movf	(??_main+1)^(0+128),w
  1210     0785  1283               	bcf	3,5	;RP0=0, select bank0
  1211     0786  1303               	bcf	3,6	;RP1=0, select bank0
  1212     0787  00A1               	movwf	Lcd_Write_Int@val+1
  1213     0788  120A  118A  25E6  120A  118A  	fcall	_Lcd_Write_Int
  1214     078D  2EE0               	goto	l2356
  1215     078E  120A  118A  280C   	ljmp	start
  1216     0791                     __end_of_main:
  1217                           
  1218                           	psect	text1
  1219     0366                     __ptext1:	
  1220 ;; *************** function _pid_controller *****************
  1221 ;; Defined at:
  1222 ;;		line 4 in file "PID.c"
  1223 ;; Parameters:    Size  Location     Type
  1224 ;;  setpoint        4    0[BANK1 ] void 
  1225 ;;  process_vari    4    4[BANK1 ] void 
  1226 ;;  kp              4    8[BANK1 ] void 
  1227 ;;  ki              4   12[BANK1 ] void 
  1228 ;;  kd              4   16[BANK1 ] void 
  1229 ;;  control_min     4   20[BANK1 ] void 
  1230 ;;  control_max     4   24[BANK1 ] void 
  1231 ;; Auto vars:     Size  Location     Type
  1232 ;;  error           4   66[BANK0 ] void 
  1233 ;;  control         4   62[BANK0 ] void 
  1234 ;;  derivative      4   54[BANK0 ] void 
  1235 ;; Return value:  Size  Location     Type
  1236 ;;                  4    0[BANK1 ] void 
  1237 ;; Registers used:
  1238 ;;		wreg, status,2, status,0, btemp+1, pclath, cstack
  1239 ;; Tracked objects:
  1240 ;;		On entry : 0/0
  1241 ;;		On exit  : 0/0
  1242 ;;		Unchanged: 0/0
  1243 ;; Data sizes:     COMMON   BANK0   BANK1   BANK3   BANK2
  1244 ;;      Params:         0       0      28       0       0
  1245 ;;      Locals:         0      16       0       0       0
  1246 ;;      Temps:          0       0       0       0       0
  1247 ;;      Totals:         0      16      28       0       0
  1248 ;;Total ram usage:       44 bytes
  1249 ;; Hardware stack levels used: 1
  1250 ;; Hardware stack levels required when called: 3
  1251 ;; This function calls:
  1252 ;;		___fladd
  1253 ;;		___flge
  1254 ;;		___flmul
  1255 ;;		___flsub
  1256 ;; This function is called by:
  1257 ;;		_main
  1258 ;; This function uses a non-reentrant model
  1259 ;;
  1260                           
  1261     0366                     _pid_controller:	
  1262                           ;psect for function _pid_controller
  1263                           
  1264     0366                     l2218:	
  1265                           ;incstack = 0
  1266                           ; Regs used in _pid_controller: [wreg+status,2+status,0+btemp+1+pclath+cstack]
  1267                           
  1268                           
  1269                           ;PID.c: 5:     static double previous_error = 0;;PID.c: 6:     static double integral = 
      +                          0;;PID.c: 7:     double error = setpoint - process_variable;
  1270     0366  1683               	bsf	3,5	;RP0=1, select bank1
  1271     0367  1303               	bcf	3,6	;RP1=0, select bank1
  1272     0368  0827               	movf	(pid_controller@process_variable+3)^(0+128),w
  1273     0369  1283               	bcf	3,5	;RP0=0, select bank0
  1274     036A  1303               	bcf	3,6	;RP1=0, select bank0
  1275     036B  00D1               	movwf	___flsub@a+3
  1276     036C  1683               	bsf	3,5	;RP0=1, select bank1
  1277     036D  1303               	bcf	3,6	;RP1=0, select bank1
  1278     036E  0826               	movf	(pid_controller@process_variable+2)^(0+128),w
  1279     036F  1283               	bcf	3,5	;RP0=0, select bank0
  1280     0370  1303               	bcf	3,6	;RP1=0, select bank0
  1281     0371  00D0               	movwf	___flsub@a+2
  1282     0372  1683               	bsf	3,5	;RP0=1, select bank1
  1283     0373  1303               	bcf	3,6	;RP1=0, select bank1
  1284     0374  0825               	movf	(pid_controller@process_variable+1)^(0+128),w
  1285     0375  1283               	bcf	3,5	;RP0=0, select bank0
  1286     0376  1303               	bcf	3,6	;RP1=0, select bank0
  1287     0377  00CF               	movwf	___flsub@a+1
  1288     0378  1683               	bsf	3,5	;RP0=1, select bank1
  1289     0379  1303               	bcf	3,6	;RP1=0, select bank1
  1290     037A  0824               	movf	pid_controller@process_variable^(0+128),w
  1291     037B  1283               	bcf	3,5	;RP0=0, select bank0
  1292     037C  1303               	bcf	3,6	;RP1=0, select bank0
  1293     037D  00CE               	movwf	___flsub@a
  1294     037E  1683               	bsf	3,5	;RP0=1, select bank1
  1295     037F  1303               	bcf	3,6	;RP1=0, select bank1
  1296     0380  0823               	movf	(pid_controller@setpoint+3)^(0+128),w
  1297     0381  1283               	bcf	3,5	;RP0=0, select bank0
  1298     0382  1303               	bcf	3,6	;RP1=0, select bank0
  1299     0383  00D5               	movwf	___flsub@b+3
  1300     0384  1683               	bsf	3,5	;RP0=1, select bank1
  1301     0385  1303               	bcf	3,6	;RP1=0, select bank1
  1302     0386  0822               	movf	(pid_controller@setpoint+2)^(0+128),w
  1303     0387  1283               	bcf	3,5	;RP0=0, select bank0
  1304     0388  1303               	bcf	3,6	;RP1=0, select bank0
  1305     0389  00D4               	movwf	___flsub@b+2
  1306     038A  1683               	bsf	3,5	;RP0=1, select bank1
  1307     038B  1303               	bcf	3,6	;RP1=0, select bank1
  1308     038C  0821               	movf	(pid_controller@setpoint+1)^(0+128),w
  1309     038D  1283               	bcf	3,5	;RP0=0, select bank0
  1310     038E  1303               	bcf	3,6	;RP1=0, select bank0
  1311     038F  00D3               	movwf	___flsub@b+1
  1312     0390  1683               	bsf	3,5	;RP0=1, select bank1
  1313     0391  1303               	bcf	3,6	;RP1=0, select bank1
  1314     0392  0820               	movf	pid_controller@setpoint^(0+128),w
  1315     0393  1283               	bcf	3,5	;RP0=0, select bank0
  1316     0394  1303               	bcf	3,6	;RP1=0, select bank0
  1317     0395  00D2               	movwf	___flsub@b
  1318     0396  120A  158A  2214  120A  118A  	fcall	___flsub
  1319     039B  1283               	bcf	3,5	;RP0=0, select bank0
  1320     039C  1303               	bcf	3,6	;RP1=0, select bank0
  1321     039D  0851               	movf	?___flsub+3,w
  1322     039E  00E5               	movwf	pid_controller@error+3
  1323     039F  0850               	movf	?___flsub+2,w
  1324     03A0  00E4               	movwf	pid_controller@error+2
  1325     03A1  084F               	movf	?___flsub+1,w
  1326     03A2  00E3               	movwf	pid_controller@error+1
  1327     03A3  084E               	movf	?___flsub,w
  1328     03A4  00E2               	movwf	pid_controller@error
  1329                           
  1330                           ;PID.c: 8:     integral += error;
  1331     03A5  0865               	movf	pid_controller@error+3,w
  1332     03A6  00BD               	movwf	___fladd@b+3
  1333     03A7  0864               	movf	pid_controller@error+2,w
  1334     03A8  00BC               	movwf	___fladd@b+2
  1335     03A9  0863               	movf	pid_controller@error+1,w
  1336     03AA  00BB               	movwf	___fladd@b+1
  1337     03AB  0862               	movf	pid_controller@error,w
  1338     03AC  00BA               	movwf	___fladd@b
  1339     03AD  1683               	bsf	3,5	;RP0=1, select bank1
  1340     03AE  1303               	bcf	3,6	;RP1=0, select bank1
  1341     03AF  0845               	movf	(pid_controller@integral+3)^(0+128),w
  1342     03B0  1283               	bcf	3,5	;RP0=0, select bank0
  1343     03B1  1303               	bcf	3,6	;RP1=0, select bank0
  1344     03B2  00C1               	movwf	___fladd@a+3
  1345     03B3  1683               	bsf	3,5	;RP0=1, select bank1
  1346     03B4  1303               	bcf	3,6	;RP1=0, select bank1
  1347     03B5  0844               	movf	(pid_controller@integral+2)^(0+128),w
  1348     03B6  1283               	bcf	3,5	;RP0=0, select bank0
  1349     03B7  1303               	bcf	3,6	;RP1=0, select bank0
  1350     03B8  00C0               	movwf	___fladd@a+2
  1351     03B9  1683               	bsf	3,5	;RP0=1, select bank1
  1352     03BA  1303               	bcf	3,6	;RP1=0, select bank1
  1353     03BB  0843               	movf	(pid_controller@integral+1)^(0+128),w
  1354     03BC  1283               	bcf	3,5	;RP0=0, select bank0
  1355     03BD  1303               	bcf	3,6	;RP1=0, select bank0
  1356     03BE  00BF               	movwf	___fladd@a+1
  1357     03BF  1683               	bsf	3,5	;RP0=1, select bank1
  1358     03C0  1303               	bcf	3,6	;RP1=0, select bank1
  1359     03C1  0842               	movf	pid_controller@integral^(0+128),w
  1360     03C2  1283               	bcf	3,5	;RP0=0, select bank0
  1361     03C3  1303               	bcf	3,6	;RP1=0, select bank0
  1362     03C4  00BE               	movwf	___fladd@a
  1363     03C5  120A  158A  25A8  120A  118A  	fcall	___fladd
  1364     03CA  1283               	bcf	3,5	;RP0=0, select bank0
  1365     03CB  1303               	bcf	3,6	;RP1=0, select bank0
  1366     03CC  083D               	movf	?___fladd+3,w
  1367     03CD  1683               	bsf	3,5	;RP0=1, select bank1
  1368     03CE  1303               	bcf	3,6	;RP1=0, select bank1
  1369     03CF  00C5               	movwf	(pid_controller@integral+3)^(0+128)
  1370     03D0  1283               	bcf	3,5	;RP0=0, select bank0
  1371     03D1  1303               	bcf	3,6	;RP1=0, select bank0
  1372     03D2  083C               	movf	?___fladd+2,w
  1373     03D3  1683               	bsf	3,5	;RP0=1, select bank1
  1374     03D4  1303               	bcf	3,6	;RP1=0, select bank1
  1375     03D5  00C4               	movwf	(pid_controller@integral+2)^(0+128)
  1376     03D6  1283               	bcf	3,5	;RP0=0, select bank0
  1377     03D7  1303               	bcf	3,6	;RP1=0, select bank0
  1378     03D8  083B               	movf	?___fladd+1,w
  1379     03D9  1683               	bsf	3,5	;RP0=1, select bank1
  1380     03DA  1303               	bcf	3,6	;RP1=0, select bank1
  1381     03DB  00C3               	movwf	(pid_controller@integral+1)^(0+128)
  1382     03DC  1283               	bcf	3,5	;RP0=0, select bank0
  1383     03DD  1303               	bcf	3,6	;RP1=0, select bank0
  1384     03DE  083A               	movf	?___fladd,w
  1385     03DF  1683               	bsf	3,5	;RP0=1, select bank1
  1386     03E0  1303               	bcf	3,6	;RP1=0, select bank1
  1387     03E1  00C2               	movwf	pid_controller@integral^(0+128)
  1388                           
  1389                           ;PID.c: 9:     double derivative = error - previous_error;
  1390     03E2  0849               	movf	(pid_controller@previous_error+3)^(0+128),w
  1391     03E3  1283               	bcf	3,5	;RP0=0, select bank0
  1392     03E4  1303               	bcf	3,6	;RP1=0, select bank0
  1393     03E5  00D1               	movwf	___flsub@a+3
  1394     03E6  1683               	bsf	3,5	;RP0=1, select bank1
  1395     03E7  1303               	bcf	3,6	;RP1=0, select bank1
  1396     03E8  0848               	movf	(pid_controller@previous_error+2)^(0+128),w
  1397     03E9  1283               	bcf	3,5	;RP0=0, select bank0
  1398     03EA  1303               	bcf	3,6	;RP1=0, select bank0
  1399     03EB  00D0               	movwf	___flsub@a+2
  1400     03EC  1683               	bsf	3,5	;RP0=1, select bank1
  1401     03ED  1303               	bcf	3,6	;RP1=0, select bank1
  1402     03EE  0847               	movf	(pid_controller@previous_error+1)^(0+128),w
  1403     03EF  1283               	bcf	3,5	;RP0=0, select bank0
  1404     03F0  1303               	bcf	3,6	;RP1=0, select bank0
  1405     03F1  00CF               	movwf	___flsub@a+1
  1406     03F2  1683               	bsf	3,5	;RP0=1, select bank1
  1407     03F3  1303               	bcf	3,6	;RP1=0, select bank1
  1408     03F4  0846               	movf	pid_controller@previous_error^(0+128),w
  1409     03F5  1283               	bcf	3,5	;RP0=0, select bank0
  1410     03F6  1303               	bcf	3,6	;RP1=0, select bank0
  1411     03F7  00CE               	movwf	___flsub@a
  1412     03F8  0865               	movf	pid_controller@error+3,w
  1413     03F9  00D5               	movwf	___flsub@b+3
  1414     03FA  0864               	movf	pid_controller@error+2,w
  1415     03FB  00D4               	movwf	___flsub@b+2
  1416     03FC  0863               	movf	pid_controller@error+1,w
  1417     03FD  00D3               	movwf	___flsub@b+1
  1418     03FE  0862               	movf	pid_controller@error,w
  1419     03FF  00D2               	movwf	___flsub@b
  1420     0400  120A  158A  2214  120A  118A  	fcall	___flsub
  1421     0405  1283               	bcf	3,5	;RP0=0, select bank0
  1422     0406  1303               	bcf	3,6	;RP1=0, select bank0
  1423     0407  0851               	movf	?___flsub+3,w
  1424     0408  00D9               	movwf	pid_controller@derivative+3
  1425     0409  0850               	movf	?___flsub+2,w
  1426     040A  00D8               	movwf	pid_controller@derivative+2
  1427     040B  084F               	movf	?___flsub+1,w
  1428     040C  00D7               	movwf	pid_controller@derivative+1
  1429     040D  084E               	movf	?___flsub,w
  1430     040E  00D6               	movwf	pid_controller@derivative
  1431                           
  1432                           ;PID.c: 10:     double control = kp * error + ki * integral + kd * derivative;
  1433     040F  1683               	bsf	3,5	;RP0=1, select bank1
  1434     0410  1303               	bcf	3,6	;RP1=0, select bank1
  1435     0411  0845               	movf	(pid_controller@integral+3)^(0+128),w
  1436     0412  1283               	bcf	3,5	;RP0=0, select bank0
  1437     0413  1303               	bcf	3,6	;RP1=0, select bank0
  1438     0414  00A3               	movwf	___flmul@b+3
  1439     0415  1683               	bsf	3,5	;RP0=1, select bank1
  1440     0416  1303               	bcf	3,6	;RP1=0, select bank1
  1441     0417  0844               	movf	(pid_controller@integral+2)^(0+128),w
  1442     0418  1283               	bcf	3,5	;RP0=0, select bank0
  1443     0419  1303               	bcf	3,6	;RP1=0, select bank0
  1444     041A  00A2               	movwf	___flmul@b+2
  1445     041B  1683               	bsf	3,5	;RP0=1, select bank1
  1446     041C  1303               	bcf	3,6	;RP1=0, select bank1
  1447     041D  0843               	movf	(pid_controller@integral+1)^(0+128),w
  1448     041E  1283               	bcf	3,5	;RP0=0, select bank0
  1449     041F  1303               	bcf	3,6	;RP1=0, select bank0
  1450     0420  00A1               	movwf	___flmul@b+1
  1451     0421  1683               	bsf	3,5	;RP0=1, select bank1
  1452     0422  1303               	bcf	3,6	;RP1=0, select bank1
  1453     0423  0842               	movf	pid_controller@integral^(0+128),w
  1454     0424  1283               	bcf	3,5	;RP0=0, select bank0
  1455     0425  1303               	bcf	3,6	;RP1=0, select bank0
  1456     0426  00A0               	movwf	___flmul@b
  1457     0427  1683               	bsf	3,5	;RP0=1, select bank1
  1458     0428  1303               	bcf	3,6	;RP1=0, select bank1
  1459     0429  082F               	movf	(pid_controller@ki+3)^(0+128),w
  1460     042A  1283               	bcf	3,5	;RP0=0, select bank0
  1461     042B  1303               	bcf	3,6	;RP1=0, select bank0
  1462     042C  00A7               	movwf	___flmul@a+3
  1463     042D  1683               	bsf	3,5	;RP0=1, select bank1
  1464     042E  1303               	bcf	3,6	;RP1=0, select bank1
  1465     042F  082E               	movf	(pid_controller@ki+2)^(0+128),w
  1466     0430  1283               	bcf	3,5	;RP0=0, select bank0
  1467     0431  1303               	bcf	3,6	;RP1=0, select bank0
  1468     0432  00A6               	movwf	___flmul@a+2
  1469     0433  1683               	bsf	3,5	;RP0=1, select bank1
  1470     0434  1303               	bcf	3,6	;RP1=0, select bank1
  1471     0435  082D               	movf	(pid_controller@ki+1)^(0+128),w
  1472     0436  1283               	bcf	3,5	;RP0=0, select bank0
  1473     0437  1303               	bcf	3,6	;RP1=0, select bank0
  1474     0438  00A5               	movwf	___flmul@a+1
  1475     0439  1683               	bsf	3,5	;RP0=1, select bank1
  1476     043A  1303               	bcf	3,6	;RP1=0, select bank1
  1477     043B  082C               	movf	pid_controller@ki^(0+128),w
  1478     043C  1283               	bcf	3,5	;RP0=0, select bank0
  1479     043D  1303               	bcf	3,6	;RP1=0, select bank0
  1480     043E  00A4               	movwf	___flmul@a
  1481     043F  120A  118A  2021  120A  118A  	fcall	___flmul
  1482     0444  1283               	bcf	3,5	;RP0=0, select bank0
  1483     0445  1303               	bcf	3,6	;RP1=0, select bank0
  1484     0446  0823               	movf	?___flmul+3,w
  1485     0447  00BD               	movwf	___fladd@b+3
  1486     0448  0822               	movf	?___flmul+2,w
  1487     0449  00BC               	movwf	___fladd@b+2
  1488     044A  0821               	movf	?___flmul+1,w
  1489     044B  00BB               	movwf	___fladd@b+1
  1490     044C  0820               	movf	?___flmul,w
  1491     044D  00BA               	movwf	___fladd@b
  1492     044E  0865               	movf	pid_controller@error+3,w
  1493     044F  00A3               	movwf	___flmul@b+3
  1494     0450  0864               	movf	pid_controller@error+2,w
  1495     0451  00A2               	movwf	___flmul@b+2
  1496     0452  0863               	movf	pid_controller@error+1,w
  1497     0453  00A1               	movwf	___flmul@b+1
  1498     0454  0862               	movf	pid_controller@error,w
  1499     0455  00A0               	movwf	___flmul@b
  1500     0456  1683               	bsf	3,5	;RP0=1, select bank1
  1501     0457  1303               	bcf	3,6	;RP1=0, select bank1
  1502     0458  082B               	movf	(pid_controller@kp+3)^(0+128),w
  1503     0459  1283               	bcf	3,5	;RP0=0, select bank0
  1504     045A  1303               	bcf	3,6	;RP1=0, select bank0
  1505     045B  00A7               	movwf	___flmul@a+3
  1506     045C  1683               	bsf	3,5	;RP0=1, select bank1
  1507     045D  1303               	bcf	3,6	;RP1=0, select bank1
  1508     045E  082A               	movf	(pid_controller@kp+2)^(0+128),w
  1509     045F  1283               	bcf	3,5	;RP0=0, select bank0
  1510     0460  1303               	bcf	3,6	;RP1=0, select bank0
  1511     0461  00A6               	movwf	___flmul@a+2
  1512     0462  1683               	bsf	3,5	;RP0=1, select bank1
  1513     0463  1303               	bcf	3,6	;RP1=0, select bank1
  1514     0464  0829               	movf	(pid_controller@kp+1)^(0+128),w
  1515     0465  1283               	bcf	3,5	;RP0=0, select bank0
  1516     0466  1303               	bcf	3,6	;RP1=0, select bank0
  1517     0467  00A5               	movwf	___flmul@a+1
  1518     0468  1683               	bsf	3,5	;RP0=1, select bank1
  1519     0469  1303               	bcf	3,6	;RP1=0, select bank1
  1520     046A  0828               	movf	pid_controller@kp^(0+128),w
  1521     046B  1283               	bcf	3,5	;RP0=0, select bank0
  1522     046C  1303               	bcf	3,6	;RP1=0, select bank0
  1523     046D  00A4               	movwf	___flmul@a
  1524     046E  120A  118A  2021  120A  118A  	fcall	___flmul
  1525     0473  1283               	bcf	3,5	;RP0=0, select bank0
  1526     0474  1303               	bcf	3,6	;RP1=0, select bank0
  1527     0475  0823               	movf	?___flmul+3,w
  1528     0476  00C1               	movwf	___fladd@a+3
  1529     0477  0822               	movf	?___flmul+2,w
  1530     0478  00C0               	movwf	___fladd@a+2
  1531     0479  0821               	movf	?___flmul+1,w
  1532     047A  00BF               	movwf	___fladd@a+1
  1533     047B  0820               	movf	?___flmul,w
  1534     047C  00BE               	movwf	___fladd@a
  1535     047D  120A  158A  25A8  120A  118A  	fcall	___fladd
  1536     0482  1283               	bcf	3,5	;RP0=0, select bank0
  1537     0483  1303               	bcf	3,6	;RP1=0, select bank0
  1538     0484  083D               	movf	?___fladd+3,w
  1539     0485  00DD               	movwf	_pid_controller$855+3
  1540     0486  083C               	movf	?___fladd+2,w
  1541     0487  00DC               	movwf	_pid_controller$855+2
  1542     0488  083B               	movf	?___fladd+1,w
  1543     0489  00DB               	movwf	_pid_controller$855+1
  1544     048A  083A               	movf	?___fladd,w
  1545     048B  00DA               	movwf	_pid_controller$855
  1546                           
  1547                           ;PID.c: 10:     double control = kp * error + ki * integral + kd * derivative;
  1548     048C  0859               	movf	pid_controller@derivative+3,w
  1549     048D  00A3               	movwf	___flmul@b+3
  1550     048E  0858               	movf	pid_controller@derivative+2,w
  1551     048F  00A2               	movwf	___flmul@b+2
  1552     0490  0857               	movf	pid_controller@derivative+1,w
  1553     0491  00A1               	movwf	___flmul@b+1
  1554     0492  0856               	movf	pid_controller@derivative,w
  1555     0493  00A0               	movwf	___flmul@b
  1556     0494  1683               	bsf	3,5	;RP0=1, select bank1
  1557     0495  1303               	bcf	3,6	;RP1=0, select bank1
  1558     0496  0833               	movf	(pid_controller@kd+3)^(0+128),w
  1559     0497  1283               	bcf	3,5	;RP0=0, select bank0
  1560     0498  1303               	bcf	3,6	;RP1=0, select bank0
  1561     0499  00A7               	movwf	___flmul@a+3
  1562     049A  1683               	bsf	3,5	;RP0=1, select bank1
  1563     049B  1303               	bcf	3,6	;RP1=0, select bank1
  1564     049C  0832               	movf	(pid_controller@kd+2)^(0+128),w
  1565     049D  1283               	bcf	3,5	;RP0=0, select bank0
  1566     049E  1303               	bcf	3,6	;RP1=0, select bank0
  1567     049F  00A6               	movwf	___flmul@a+2
  1568     04A0  1683               	bsf	3,5	;RP0=1, select bank1
  1569     04A1  1303               	bcf	3,6	;RP1=0, select bank1
  1570     04A2  0831               	movf	(pid_controller@kd+1)^(0+128),w
  1571     04A3  1283               	bcf	3,5	;RP0=0, select bank0
  1572     04A4  1303               	bcf	3,6	;RP1=0, select bank0
  1573     04A5  00A5               	movwf	___flmul@a+1
  1574     04A6  1683               	bsf	3,5	;RP0=1, select bank1
  1575     04A7  1303               	bcf	3,6	;RP1=0, select bank1
  1576     04A8  0830               	movf	pid_controller@kd^(0+128),w
  1577     04A9  1283               	bcf	3,5	;RP0=0, select bank0
  1578     04AA  1303               	bcf	3,6	;RP1=0, select bank0
  1579     04AB  00A4               	movwf	___flmul@a
  1580     04AC  120A  118A  2021  120A  118A  	fcall	___flmul
  1581     04B1  1283               	bcf	3,5	;RP0=0, select bank0
  1582     04B2  1303               	bcf	3,6	;RP1=0, select bank0
  1583     04B3  0823               	movf	?___flmul+3,w
  1584     04B4  00BD               	movwf	___fladd@b+3
  1585     04B5  0822               	movf	?___flmul+2,w
  1586     04B6  00BC               	movwf	___fladd@b+2
  1587     04B7  0821               	movf	?___flmul+1,w
  1588     04B8  00BB               	movwf	___fladd@b+1
  1589     04B9  0820               	movf	?___flmul,w
  1590     04BA  00BA               	movwf	___fladd@b
  1591     04BB  085D               	movf	_pid_controller$855+3,w
  1592     04BC  00C1               	movwf	___fladd@a+3
  1593     04BD  085C               	movf	_pid_controller$855+2,w
  1594     04BE  00C0               	movwf	___fladd@a+2
  1595     04BF  085B               	movf	_pid_controller$855+1,w
  1596     04C0  00BF               	movwf	___fladd@a+1
  1597     04C1  085A               	movf	_pid_controller$855,w
  1598     04C2  00BE               	movwf	___fladd@a
  1599     04C3  120A  158A  25A8  120A  118A  	fcall	___fladd
  1600     04C8  1283               	bcf	3,5	;RP0=0, select bank0
  1601     04C9  1303               	bcf	3,6	;RP1=0, select bank0
  1602     04CA  083D               	movf	?___fladd+3,w
  1603     04CB  00E1               	movwf	pid_controller@control+3
  1604     04CC  083C               	movf	?___fladd+2,w
  1605     04CD  00E0               	movwf	pid_controller@control+2
  1606     04CE  083B               	movf	?___fladd+1,w
  1607     04CF  00DF               	movwf	pid_controller@control+1
  1608     04D0  083A               	movf	?___fladd,w
  1609     04D1  00DE               	movwf	pid_controller@control
  1610     04D2                     l2220:
  1611                           
  1612                           ;PID.c: 12:     if (control < control_min) {
  1613     04D2  0861               	movf	pid_controller@control+3,w
  1614     04D3  00F5               	movwf	___flge@ff1+3
  1615     04D4  0860               	movf	pid_controller@control+2,w
  1616     04D5  00F4               	movwf	___flge@ff1+2
  1617     04D6  085F               	movf	pid_controller@control+1,w
  1618     04D7  00F3               	movwf	___flge@ff1+1
  1619     04D8  085E               	movf	pid_controller@control,w
  1620     04D9  00F2               	movwf	___flge@ff1
  1621     04DA  1683               	bsf	3,5	;RP0=1, select bank1
  1622     04DB  1303               	bcf	3,6	;RP1=0, select bank1
  1623     04DC  0837               	movf	(pid_controller@control_min+3)^(0+128),w
  1624     04DD  00F9               	movwf	___flge@ff2+3
  1625     04DE  0836               	movf	(pid_controller@control_min+2)^(0+128),w
  1626     04DF  00F8               	movwf	___flge@ff2+2
  1627     04E0  0835               	movf	(pid_controller@control_min+1)^(0+128),w
  1628     04E1  00F7               	movwf	___flge@ff2+1
  1629     04E2  0834               	movf	pid_controller@control_min^(0+128),w
  1630     04E3  00F6               	movwf	___flge@ff2
  1631     04E4  120A  158A  244A  120A  118A  	fcall	___flge
  1632     04E9  1803               	btfsc	3,0
  1633     04EA  2CEC               	goto	u3071
  1634     04EB  2CED               	goto	u3070
  1635     04EC                     u3071:
  1636     04EC  2D43               	goto	l2226
  1637     04ED                     u3070:
  1638     04ED                     l2222:
  1639                           
  1640                           ;PID.c: 13:         integral -= error;
  1641     04ED  1283               	bcf	3,5	;RP0=0, select bank0
  1642     04EE  1303               	bcf	3,6	;RP1=0, select bank0
  1643     04EF  0865               	movf	pid_controller@error+3,w
  1644     04F0  00D1               	movwf	___flsub@a+3
  1645     04F1  0864               	movf	pid_controller@error+2,w
  1646     04F2  00D0               	movwf	___flsub@a+2
  1647     04F3  0863               	movf	pid_controller@error+1,w
  1648     04F4  00CF               	movwf	___flsub@a+1
  1649     04F5  0862               	movf	pid_controller@error,w
  1650     04F6  00CE               	movwf	___flsub@a
  1651     04F7  1683               	bsf	3,5	;RP0=1, select bank1
  1652     04F8  1303               	bcf	3,6	;RP1=0, select bank1
  1653     04F9  0845               	movf	(pid_controller@integral+3)^(0+128),w
  1654     04FA  1283               	bcf	3,5	;RP0=0, select bank0
  1655     04FB  1303               	bcf	3,6	;RP1=0, select bank0
  1656     04FC  00D5               	movwf	___flsub@b+3
  1657     04FD  1683               	bsf	3,5	;RP0=1, select bank1
  1658     04FE  1303               	bcf	3,6	;RP1=0, select bank1
  1659     04FF  0844               	movf	(pid_controller@integral+2)^(0+128),w
  1660     0500  1283               	bcf	3,5	;RP0=0, select bank0
  1661     0501  1303               	bcf	3,6	;RP1=0, select bank0
  1662     0502  00D4               	movwf	___flsub@b+2
  1663     0503  1683               	bsf	3,5	;RP0=1, select bank1
  1664     0504  1303               	bcf	3,6	;RP1=0, select bank1
  1665     0505  0843               	movf	(pid_controller@integral+1)^(0+128),w
  1666     0506  1283               	bcf	3,5	;RP0=0, select bank0
  1667     0507  1303               	bcf	3,6	;RP1=0, select bank0
  1668     0508  00D3               	movwf	___flsub@b+1
  1669     0509  1683               	bsf	3,5	;RP0=1, select bank1
  1670     050A  1303               	bcf	3,6	;RP1=0, select bank1
  1671     050B  0842               	movf	pid_controller@integral^(0+128),w
  1672     050C  1283               	bcf	3,5	;RP0=0, select bank0
  1673     050D  1303               	bcf	3,6	;RP1=0, select bank0
  1674     050E  00D2               	movwf	___flsub@b
  1675     050F  120A  158A  2214  120A  118A  	fcall	___flsub
  1676     0514  1283               	bcf	3,5	;RP0=0, select bank0
  1677     0515  1303               	bcf	3,6	;RP1=0, select bank0
  1678     0516  0851               	movf	?___flsub+3,w
  1679     0517  1683               	bsf	3,5	;RP0=1, select bank1
  1680     0518  1303               	bcf	3,6	;RP1=0, select bank1
  1681     0519  00C5               	movwf	(pid_controller@integral+3)^(0+128)
  1682     051A  1283               	bcf	3,5	;RP0=0, select bank0
  1683     051B  1303               	bcf	3,6	;RP1=0, select bank0
  1684     051C  0850               	movf	?___flsub+2,w
  1685     051D  1683               	bsf	3,5	;RP0=1, select bank1
  1686     051E  1303               	bcf	3,6	;RP1=0, select bank1
  1687     051F  00C4               	movwf	(pid_controller@integral+2)^(0+128)
  1688     0520  1283               	bcf	3,5	;RP0=0, select bank0
  1689     0521  1303               	bcf	3,6	;RP1=0, select bank0
  1690     0522  084F               	movf	?___flsub+1,w
  1691     0523  1683               	bsf	3,5	;RP0=1, select bank1
  1692     0524  1303               	bcf	3,6	;RP1=0, select bank1
  1693     0525  00C3               	movwf	(pid_controller@integral+1)^(0+128)
  1694     0526  1283               	bcf	3,5	;RP0=0, select bank0
  1695     0527  1303               	bcf	3,6	;RP1=0, select bank0
  1696     0528  084E               	movf	?___flsub,w
  1697     0529  1683               	bsf	3,5	;RP0=1, select bank1
  1698     052A  1303               	bcf	3,6	;RP1=0, select bank1
  1699     052B  00C2               	movwf	pid_controller@integral^(0+128)
  1700     052C                     l2224:
  1701                           
  1702                           ;PID.c: 14:         control = control_min;
  1703     052C  0837               	movf	(pid_controller@control_min+3)^(0+128),w
  1704     052D  1283               	bcf	3,5	;RP0=0, select bank0
  1705     052E  1303               	bcf	3,6	;RP1=0, select bank0
  1706     052F  00E1               	movwf	pid_controller@control+3
  1707     0530  1683               	bsf	3,5	;RP0=1, select bank1
  1708     0531  1303               	bcf	3,6	;RP1=0, select bank1
  1709     0532  0836               	movf	(pid_controller@control_min+2)^(0+128),w
  1710     0533  1283               	bcf	3,5	;RP0=0, select bank0
  1711     0534  1303               	bcf	3,6	;RP1=0, select bank0
  1712     0535  00E0               	movwf	pid_controller@control+2
  1713     0536  1683               	bsf	3,5	;RP0=1, select bank1
  1714     0537  1303               	bcf	3,6	;RP1=0, select bank1
  1715     0538  0835               	movf	(pid_controller@control_min+1)^(0+128),w
  1716     0539  1283               	bcf	3,5	;RP0=0, select bank0
  1717     053A  1303               	bcf	3,6	;RP1=0, select bank0
  1718     053B  00DF               	movwf	pid_controller@control+1
  1719     053C  1683               	bsf	3,5	;RP0=1, select bank1
  1720     053D  1303               	bcf	3,6	;RP1=0, select bank1
  1721     053E  0834               	movf	pid_controller@control_min^(0+128),w
  1722     053F  1283               	bcf	3,5	;RP0=0, select bank0
  1723     0540  1303               	bcf	3,6	;RP1=0, select bank0
  1724     0541  00DE               	movwf	pid_controller@control
  1725                           
  1726                           ;PID.c: 15:     } else if (control > control_max) {
  1727     0542  2DB5               	goto	l2232
  1728     0543                     l2226:
  1729     0543  1683               	bsf	3,5	;RP0=1, select bank1
  1730     0544  1303               	bcf	3,6	;RP1=0, select bank1
  1731     0545  083B               	movf	(pid_controller@control_max+3)^(0+128),w
  1732     0546  00F5               	movwf	___flge@ff1+3
  1733     0547  083A               	movf	(pid_controller@control_max+2)^(0+128),w
  1734     0548  00F4               	movwf	___flge@ff1+2
  1735     0549  0839               	movf	(pid_controller@control_max+1)^(0+128),w
  1736     054A  00F3               	movwf	___flge@ff1+1
  1737     054B  0838               	movf	pid_controller@control_max^(0+128),w
  1738     054C  00F2               	movwf	___flge@ff1
  1739     054D  1283               	bcf	3,5	;RP0=0, select bank0
  1740     054E  1303               	bcf	3,6	;RP1=0, select bank0
  1741     054F  0861               	movf	pid_controller@control+3,w
  1742     0550  00F9               	movwf	___flge@ff2+3
  1743     0551  0860               	movf	pid_controller@control+2,w
  1744     0552  00F8               	movwf	___flge@ff2+2
  1745     0553  085F               	movf	pid_controller@control+1,w
  1746     0554  00F7               	movwf	___flge@ff2+1
  1747     0555  085E               	movf	pid_controller@control,w
  1748     0556  00F6               	movwf	___flge@ff2
  1749     0557  120A  158A  244A  120A  118A  	fcall	___flge
  1750     055C  1803               	btfsc	3,0
  1751     055D  2D5F               	goto	u3081
  1752     055E  2D60               	goto	u3080
  1753     055F                     u3081:
  1754     055F  2DB5               	goto	l2232
  1755     0560                     u3080:
  1756     0560                     l2228:
  1757                           
  1758                           ;PID.c: 16:         integral -= error;
  1759     0560  1283               	bcf	3,5	;RP0=0, select bank0
  1760     0561  1303               	bcf	3,6	;RP1=0, select bank0
  1761     0562  0865               	movf	pid_controller@error+3,w
  1762     0563  00D1               	movwf	___flsub@a+3
  1763     0564  0864               	movf	pid_controller@error+2,w
  1764     0565  00D0               	movwf	___flsub@a+2
  1765     0566  0863               	movf	pid_controller@error+1,w
  1766     0567  00CF               	movwf	___flsub@a+1
  1767     0568  0862               	movf	pid_controller@error,w
  1768     0569  00CE               	movwf	___flsub@a
  1769     056A  1683               	bsf	3,5	;RP0=1, select bank1
  1770     056B  1303               	bcf	3,6	;RP1=0, select bank1
  1771     056C  0845               	movf	(pid_controller@integral+3)^(0+128),w
  1772     056D  1283               	bcf	3,5	;RP0=0, select bank0
  1773     056E  1303               	bcf	3,6	;RP1=0, select bank0
  1774     056F  00D5               	movwf	___flsub@b+3
  1775     0570  1683               	bsf	3,5	;RP0=1, select bank1
  1776     0571  1303               	bcf	3,6	;RP1=0, select bank1
  1777     0572  0844               	movf	(pid_controller@integral+2)^(0+128),w
  1778     0573  1283               	bcf	3,5	;RP0=0, select bank0
  1779     0574  1303               	bcf	3,6	;RP1=0, select bank0
  1780     0575  00D4               	movwf	___flsub@b+2
  1781     0576  1683               	bsf	3,5	;RP0=1, select bank1
  1782     0577  1303               	bcf	3,6	;RP1=0, select bank1
  1783     0578  0843               	movf	(pid_controller@integral+1)^(0+128),w
  1784     0579  1283               	bcf	3,5	;RP0=0, select bank0
  1785     057A  1303               	bcf	3,6	;RP1=0, select bank0
  1786     057B  00D3               	movwf	___flsub@b+1
  1787     057C  1683               	bsf	3,5	;RP0=1, select bank1
  1788     057D  1303               	bcf	3,6	;RP1=0, select bank1
  1789     057E  0842               	movf	pid_controller@integral^(0+128),w
  1790     057F  1283               	bcf	3,5	;RP0=0, select bank0
  1791     0580  1303               	bcf	3,6	;RP1=0, select bank0
  1792     0581  00D2               	movwf	___flsub@b
  1793     0582  120A  158A  2214  120A  118A  	fcall	___flsub
  1794     0587  1283               	bcf	3,5	;RP0=0, select bank0
  1795     0588  1303               	bcf	3,6	;RP1=0, select bank0
  1796     0589  0851               	movf	?___flsub+3,w
  1797     058A  1683               	bsf	3,5	;RP0=1, select bank1
  1798     058B  1303               	bcf	3,6	;RP1=0, select bank1
  1799     058C  00C5               	movwf	(pid_controller@integral+3)^(0+128)
  1800     058D  1283               	bcf	3,5	;RP0=0, select bank0
  1801     058E  1303               	bcf	3,6	;RP1=0, select bank0
  1802     058F  0850               	movf	?___flsub+2,w
  1803     0590  1683               	bsf	3,5	;RP0=1, select bank1
  1804     0591  1303               	bcf	3,6	;RP1=0, select bank1
  1805     0592  00C4               	movwf	(pid_controller@integral+2)^(0+128)
  1806     0593  1283               	bcf	3,5	;RP0=0, select bank0
  1807     0594  1303               	bcf	3,6	;RP1=0, select bank0
  1808     0595  084F               	movf	?___flsub+1,w
  1809     0596  1683               	bsf	3,5	;RP0=1, select bank1
  1810     0597  1303               	bcf	3,6	;RP1=0, select bank1
  1811     0598  00C3               	movwf	(pid_controller@integral+1)^(0+128)
  1812     0599  1283               	bcf	3,5	;RP0=0, select bank0
  1813     059A  1303               	bcf	3,6	;RP1=0, select bank0
  1814     059B  084E               	movf	?___flsub,w
  1815     059C  1683               	bsf	3,5	;RP0=1, select bank1
  1816     059D  1303               	bcf	3,6	;RP1=0, select bank1
  1817     059E  00C2               	movwf	pid_controller@integral^(0+128)
  1818     059F                     l2230:
  1819                           
  1820                           ;PID.c: 17:         control = control_max;
  1821     059F  083B               	movf	(pid_controller@control_max+3)^(0+128),w
  1822     05A0  1283               	bcf	3,5	;RP0=0, select bank0
  1823     05A1  1303               	bcf	3,6	;RP1=0, select bank0
  1824     05A2  00E1               	movwf	pid_controller@control+3
  1825     05A3  1683               	bsf	3,5	;RP0=1, select bank1
  1826     05A4  1303               	bcf	3,6	;RP1=0, select bank1
  1827     05A5  083A               	movf	(pid_controller@control_max+2)^(0+128),w
  1828     05A6  1283               	bcf	3,5	;RP0=0, select bank0
  1829     05A7  1303               	bcf	3,6	;RP1=0, select bank0
  1830     05A8  00E0               	movwf	pid_controller@control+2
  1831     05A9  1683               	bsf	3,5	;RP0=1, select bank1
  1832     05AA  1303               	bcf	3,6	;RP1=0, select bank1
  1833     05AB  0839               	movf	(pid_controller@control_max+1)^(0+128),w
  1834     05AC  1283               	bcf	3,5	;RP0=0, select bank0
  1835     05AD  1303               	bcf	3,6	;RP1=0, select bank0
  1836     05AE  00DF               	movwf	pid_controller@control+1
  1837     05AF  1683               	bsf	3,5	;RP0=1, select bank1
  1838     05B0  1303               	bcf	3,6	;RP1=0, select bank1
  1839     05B1  0838               	movf	pid_controller@control_max^(0+128),w
  1840     05B2  1283               	bcf	3,5	;RP0=0, select bank0
  1841     05B3  1303               	bcf	3,6	;RP1=0, select bank0
  1842     05B4  00DE               	movwf	pid_controller@control
  1843     05B5                     l2232:
  1844                           
  1845                           ;PID.c: 19:     previous_error = error;
  1846     05B5  1283               	bcf	3,5	;RP0=0, select bank0
  1847     05B6  1303               	bcf	3,6	;RP1=0, select bank0
  1848     05B7  0865               	movf	pid_controller@error+3,w
  1849     05B8  1683               	bsf	3,5	;RP0=1, select bank1
  1850     05B9  1303               	bcf	3,6	;RP1=0, select bank1
  1851     05BA  00C9               	movwf	(pid_controller@previous_error+3)^(0+128)
  1852     05BB  1283               	bcf	3,5	;RP0=0, select bank0
  1853     05BC  1303               	bcf	3,6	;RP1=0, select bank0
  1854     05BD  0864               	movf	pid_controller@error+2,w
  1855     05BE  1683               	bsf	3,5	;RP0=1, select bank1
  1856     05BF  1303               	bcf	3,6	;RP1=0, select bank1
  1857     05C0  00C8               	movwf	(pid_controller@previous_error+2)^(0+128)
  1858     05C1  1283               	bcf	3,5	;RP0=0, select bank0
  1859     05C2  1303               	bcf	3,6	;RP1=0, select bank0
  1860     05C3  0863               	movf	pid_controller@error+1,w
  1861     05C4  1683               	bsf	3,5	;RP0=1, select bank1
  1862     05C5  1303               	bcf	3,6	;RP1=0, select bank1
  1863     05C6  00C7               	movwf	(pid_controller@previous_error+1)^(0+128)
  1864     05C7  1283               	bcf	3,5	;RP0=0, select bank0
  1865     05C8  1303               	bcf	3,6	;RP1=0, select bank0
  1866     05C9  0862               	movf	pid_controller@error,w
  1867     05CA  1683               	bsf	3,5	;RP0=1, select bank1
  1868     05CB  1303               	bcf	3,6	;RP1=0, select bank1
  1869     05CC  00C6               	movwf	pid_controller@previous_error^(0+128)
  1870     05CD                     l2234:
  1871                           
  1872                           ;PID.c: 20:     return control;
  1873     05CD  1283               	bcf	3,5	;RP0=0, select bank0
  1874     05CE  1303               	bcf	3,6	;RP1=0, select bank0
  1875     05CF  0861               	movf	pid_controller@control+3,w
  1876     05D0  1683               	bsf	3,5	;RP0=1, select bank1
  1877     05D1  1303               	bcf	3,6	;RP1=0, select bank1
  1878     05D2  00A3               	movwf	(?_pid_controller+3)^(0+128)
  1879     05D3  1283               	bcf	3,5	;RP0=0, select bank0
  1880     05D4  1303               	bcf	3,6	;RP1=0, select bank0
  1881     05D5  0860               	movf	pid_controller@control+2,w
  1882     05D6  1683               	bsf	3,5	;RP0=1, select bank1
  1883     05D7  1303               	bcf	3,6	;RP1=0, select bank1
  1884     05D8  00A2               	movwf	(?_pid_controller+2)^(0+128)
  1885     05D9  1283               	bcf	3,5	;RP0=0, select bank0
  1886     05DA  1303               	bcf	3,6	;RP1=0, select bank0
  1887     05DB  085F               	movf	pid_controller@control+1,w
  1888     05DC  1683               	bsf	3,5	;RP0=1, select bank1
  1889     05DD  1303               	bcf	3,6	;RP1=0, select bank1
  1890     05DE  00A1               	movwf	(?_pid_controller+1)^(0+128)
  1891     05DF  1283               	bcf	3,5	;RP0=0, select bank0
  1892     05E0  1303               	bcf	3,6	;RP1=0, select bank0
  1893     05E1  085E               	movf	pid_controller@control,w
  1894     05E2  1683               	bsf	3,5	;RP0=1, select bank1
  1895     05E3  1303               	bcf	3,6	;RP1=0, select bank1
  1896     05E4  00A0               	movwf	?_pid_controller^(0+128)
  1897     05E5                     l260:
  1898     05E5  0008               	return
  1899     05E6                     __end_of_pid_controller:
  1900                           
  1901                           	psect	text2
  1902     0A14                     __ptext2:	
  1903 ;; *************** function ___flsub *****************
  1904 ;; Defined at:
  1905 ;;		line 242 in file "C:\Program Files\Microchip\xc8\v2.40\pic\sources\c90\common\sprcadd.c"
  1906 ;; Parameters:    Size  Location     Type
  1907 ;;  a               4   46[BANK0 ] void 
  1908 ;;  b               4   50[BANK0 ] void 
  1909 ;; Auto vars:     Size  Location     Type
  1910 ;;		None
  1911 ;; Return value:  Size  Location     Type
  1912 ;;                  4   46[BANK0 ] void 
  1913 ;; Registers used:
  1914 ;;		wreg, status,2, status,0, btemp+1, pclath, cstack
  1915 ;; Tracked objects:
  1916 ;;		On entry : 0/0
  1917 ;;		On exit  : 0/0
  1918 ;;		Unchanged: 0/0
  1919 ;; Data sizes:     COMMON   BANK0   BANK1   BANK3   BANK2
  1920 ;;      Params:         0       8       0       0       0
  1921 ;;      Locals:         0       0       0       0       0
  1922 ;;      Temps:          0       0       0       0       0
  1923 ;;      Totals:         0       8       0       0       0
  1924 ;;Total ram usage:        8 bytes
  1925 ;; Hardware stack levels used: 1
  1926 ;; Hardware stack levels required when called: 2
  1927 ;; This function calls:
  1928 ;;		___fladd
  1929 ;; This function is called by:
  1930 ;;		_pid_controller
  1931 ;; This function uses a non-reentrant model
  1932 ;;
  1933                           
  1934     0A14                     ___flsub:	
  1935                           ;psect for function ___flsub
  1936                           
  1937     0A14                     l1980:	
  1938                           ;incstack = 0
  1939                           ; Regs used in ___flsub: [wreg+status,2+status,0+btemp+1+pclath+cstack]
  1940                           
  1941     0A14  3080               	movlw	128
  1942     0A15  1283               	bcf	3,5	;RP0=0, select bank0
  1943     0A16  1303               	bcf	3,6	;RP1=0, select bank0
  1944     0A17  06D1               	xorwf	___flsub@a+3,f
  1945     0A18                     l1982:
  1946     0A18  0855               	movf	___flsub@b+3,w
  1947     0A19  00BD               	movwf	___fladd@b+3
  1948     0A1A  0854               	movf	___flsub@b+2,w
  1949     0A1B  00BC               	movwf	___fladd@b+2
  1950     0A1C  0853               	movf	___flsub@b+1,w
  1951     0A1D  00BB               	movwf	___fladd@b+1
  1952     0A1E  0852               	movf	___flsub@b,w
  1953     0A1F  00BA               	movwf	___fladd@b
  1954     0A20  0851               	movf	___flsub@a+3,w
  1955     0A21  00C1               	movwf	___fladd@a+3
  1956     0A22  0850               	movf	___flsub@a+2,w
  1957     0A23  00C0               	movwf	___fladd@a+2
  1958     0A24  084F               	movf	___flsub@a+1,w
  1959     0A25  00BF               	movwf	___fladd@a+1
  1960     0A26  084E               	movf	___flsub@a,w
  1961     0A27  00BE               	movwf	___fladd@a
  1962     0A28  120A  158A  25A8  120A  158A  	fcall	___fladd
  1963     0A2D  1283               	bcf	3,5	;RP0=0, select bank0
  1964     0A2E  1303               	bcf	3,6	;RP1=0, select bank0
  1965     0A2F  083D               	movf	?___fladd+3,w
  1966     0A30  00D1               	movwf	?___flsub+3
  1967     0A31  083C               	movf	?___fladd+2,w
  1968     0A32  00D0               	movwf	?___flsub+2
  1969     0A33  083B               	movf	?___fladd+1,w
  1970     0A34  00CF               	movwf	?___flsub+1
  1971     0A35  083A               	movf	?___fladd,w
  1972     0A36  00CE               	movwf	?___flsub
  1973     0A37                     l603:
  1974     0A37  0008               	return
  1975     0A38                     __end_of___flsub:
  1976                           
  1977                           	psect	text3
  1978     0DA8                     __ptext3:	
  1979 ;; *************** function ___fladd *****************
  1980 ;; Defined at:
  1981 ;;		line 10 in file "C:\Program Files\Microchip\xc8\v2.40\pic\sources\c90\common\sprcadd.c"
  1982 ;; Parameters:    Size  Location     Type
  1983 ;;  b               4   26[BANK0 ] void 
  1984 ;;  a               4   30[BANK0 ] void 
  1985 ;; Auto vars:     Size  Location     Type
  1986 ;;  grs             1   45[BANK0 ] unsigned char 
  1987 ;;  bexp            1   44[BANK0 ] unsigned char 
  1988 ;;  aexp            1   43[BANK0 ] unsigned char 
  1989 ;;  signs           1   42[BANK0 ] unsigned char 
  1990 ;; Return value:  Size  Location     Type
  1991 ;;                  4   26[BANK0 ] unsigned char 
  1992 ;; Registers used:
  1993 ;;		wreg, status,2, status,0, btemp+1
  1994 ;; Tracked objects:
  1995 ;;		On entry : 0/0
  1996 ;;		On exit  : 0/0
  1997 ;;		Unchanged: 0/0
  1998 ;; Data sizes:     COMMON   BANK0   BANK1   BANK3   BANK2
  1999 ;;      Params:         0       8       0       0       0
  2000 ;;      Locals:         0       4       0       0       0
  2001 ;;      Temps:          0       8       0       0       0
  2002 ;;      Totals:         0      20       0       0       0
  2003 ;;Total ram usage:       20 bytes
  2004 ;; Hardware stack levels used: 1
  2005 ;; Hardware stack levels required when called: 1
  2006 ;; This function calls:
  2007 ;;		Nothing
  2008 ;; This function is called by:
  2009 ;;		_pid_controller
  2010 ;;		___flsub
  2011 ;; This function uses a non-reentrant model
  2012 ;;
  2013                           
  2014     0DA8                     ___fladd:	
  2015                           ;psect for function ___fladd
  2016                           
  2017     0DA8                     l1638:	
  2018                           ;incstack = 0
  2019                           ; Regs used in ___fladd: [wreg+status,2+status,0+btemp+1]
  2020                           
  2021     0DA8  1283               	bcf	3,5	;RP0=0, select bank0
  2022     0DA9  1303               	bcf	3,6	;RP1=0, select bank0
  2023     0DAA  083D               	movf	___fladd@b+3,w
  2024     0DAB  3980               	andlw	128
  2025     0DAC  00CA               	movwf	___fladd@signs
  2026     0DAD                     l1640:
  2027     0DAD  083D               	movf	___fladd@b+3,w
  2028     0DAE  00C2               	movwf	??___fladd
  2029     0DAF  0742               	addwf	??___fladd,w
  2030     0DB0  00CC               	movwf	___fladd@bexp
  2031     0DB1                     l1642:
  2032     0DB1  1FBC               	btfss	___fladd@b+2,7
  2033     0DB2  2DB4               	goto	u1811
  2034     0DB3  2DB5               	goto	u1810
  2035     0DB4                     u1811:
  2036     0DB4  2DB6               	goto	l1646
  2037     0DB5                     u1810:
  2038     0DB5                     l1644:
  2039     0DB5  144C               	bsf	___fladd@bexp,0
  2040     0DB6                     l1646:
  2041     0DB6  084C               	movf	___fladd@bexp,w
  2042     0DB7  1903               	btfsc	3,2
  2043     0DB8  2DBA               	goto	u1821
  2044     0DB9  2DBB               	goto	u1820
  2045     0DBA                     u1821:
  2046     0DBA  2DCB               	goto	l1656
  2047     0DBB                     u1820:
  2048     0DBB                     l1648:
  2049     0DBB  0A4C               	incf	___fladd@bexp,w
  2050     0DBC  1D03               	btfss	3,2
  2051     0DBD  2DBF               	goto	u1831
  2052     0DBE  2DC0               	goto	u1830
  2053     0DBF                     u1831:
  2054     0DBF  2DC8               	goto	l1652
  2055     0DC0                     u1830:
  2056     0DC0                     l1650:
  2057     0DC0  3000               	movlw	0
  2058     0DC1  00BD               	movwf	___fladd@b+3
  2059     0DC2  3000               	movlw	0
  2060     0DC3  00BC               	movwf	___fladd@b+2
  2061     0DC4  3000               	movlw	0
  2062     0DC5  00BB               	movwf	___fladd@b+1
  2063     0DC6  3000               	movlw	0
  2064     0DC7  00BA               	movwf	___fladd@b
  2065     0DC8                     l1652:
  2066     0DC8  17BC               	bsf	___fladd@b+2,7
  2067     0DC9                     l1654:
  2068     0DC9  01BD               	clrf	___fladd@b+3
  2069     0DCA  2DD3               	goto	l1658
  2070     0DCB                     l1656:
  2071     0DCB  3000               	movlw	0
  2072     0DCC  00BD               	movwf	___fladd@b+3
  2073     0DCD  3000               	movlw	0
  2074     0DCE  00BC               	movwf	___fladd@b+2
  2075     0DCF  3000               	movlw	0
  2076     0DD0  00BB               	movwf	___fladd@b+1
  2077     0DD1  3000               	movlw	0
  2078     0DD2  00BA               	movwf	___fladd@b
  2079     0DD3                     l1658:
  2080     0DD3  0841               	movf	___fladd@a+3,w
  2081     0DD4  3980               	andlw	128
  2082     0DD5  00CB               	movwf	___fladd@aexp
  2083     0DD6                     l1660:
  2084     0DD6  084B               	movf	___fladd@aexp,w
  2085     0DD7  064A               	xorwf	___fladd@signs,w
  2086     0DD8  1903               	skipnz
  2087     0DD9  2DDB               	goto	u1841
  2088     0DDA  2DDC               	goto	u1840
  2089     0DDB                     u1841:
  2090     0DDB  2DDD               	goto	l1664
  2091     0DDC                     u1840:
  2092     0DDC                     l1662:
  2093     0DDC  174A               	bsf	___fladd@signs,6
  2094     0DDD                     l1664:
  2095     0DDD  0841               	movf	___fladd@a+3,w
  2096     0DDE  00C2               	movwf	??___fladd
  2097     0DDF  0742               	addwf	??___fladd,w
  2098     0DE0  00CB               	movwf	___fladd@aexp
  2099     0DE1                     l1666:
  2100     0DE1  1FC0               	btfss	___fladd@a+2,7
  2101     0DE2  2DE4               	goto	u1851
  2102     0DE3  2DE5               	goto	u1850
  2103     0DE4                     u1851:
  2104     0DE4  2DE6               	goto	l1670
  2105     0DE5                     u1850:
  2106     0DE5                     l1668:
  2107     0DE5  144B               	bsf	___fladd@aexp,0
  2108     0DE6                     l1670:
  2109     0DE6  084B               	movf	___fladd@aexp,w
  2110     0DE7  1903               	btfsc	3,2
  2111     0DE8  2DEA               	goto	u1861
  2112     0DE9  2DEB               	goto	u1860
  2113     0DEA                     u1861:
  2114     0DEA  2DFB               	goto	l1680
  2115     0DEB                     u1860:
  2116     0DEB                     l1672:
  2117     0DEB  0A4B               	incf	___fladd@aexp,w
  2118     0DEC  1D03               	btfss	3,2
  2119     0DED  2DEF               	goto	u1871
  2120     0DEE  2DF0               	goto	u1870
  2121     0DEF                     u1871:
  2122     0DEF  2DF8               	goto	l1676
  2123     0DF0                     u1870:
  2124     0DF0                     l1674:
  2125     0DF0  3000               	movlw	0
  2126     0DF1  00C1               	movwf	___fladd@a+3
  2127     0DF2  3000               	movlw	0
  2128     0DF3  00C0               	movwf	___fladd@a+2
  2129     0DF4  3000               	movlw	0
  2130     0DF5  00BF               	movwf	___fladd@a+1
  2131     0DF6  3000               	movlw	0
  2132     0DF7  00BE               	movwf	___fladd@a
  2133     0DF8                     l1676:
  2134     0DF8  17C0               	bsf	___fladd@a+2,7
  2135     0DF9                     l1678:
  2136     0DF9  01C1               	clrf	___fladd@a+3
  2137     0DFA  2E03               	goto	l557
  2138     0DFB                     l1680:
  2139     0DFB  3000               	movlw	0
  2140     0DFC  00C1               	movwf	___fladd@a+3
  2141     0DFD  3000               	movlw	0
  2142     0DFE  00C0               	movwf	___fladd@a+2
  2143     0DFF  3000               	movlw	0
  2144     0E00  00BF               	movwf	___fladd@a+1
  2145     0E01  3000               	movlw	0
  2146     0E02  00BE               	movwf	___fladd@a
  2147     0E03                     l557:
  2148     0E03  084C               	movf	___fladd@bexp,w
  2149     0E04  024B               	subwf	___fladd@aexp,w
  2150     0E05  1803               	skipnc
  2151     0E06  2E08               	goto	u1881
  2152     0E07  2E09               	goto	u1880
  2153     0E08                     u1881:
  2154     0E08  2E2F               	goto	l1716
  2155     0E09                     u1880:
  2156     0E09                     l1682:
  2157     0E09  1F4A               	btfss	___fladd@signs,6
  2158     0E0A  2E0C               	goto	u1891
  2159     0E0B  2E0D               	goto	u1890
  2160     0E0C                     u1891:
  2161     0E0C  2E11               	goto	l1686
  2162     0E0D                     u1890:
  2163     0E0D                     l1684:
  2164     0E0D  3080               	movlw	128
  2165     0E0E  00C2               	movwf	??___fladd
  2166     0E0F  0842               	movf	??___fladd,w
  2167     0E10  06CA               	xorwf	___fladd@signs,f
  2168     0E11                     l1686:
  2169     0E11  084C               	movf	___fladd@bexp,w
  2170     0E12  00CD               	movwf	___fladd@grs
  2171     0E13                     l1688:
  2172     0E13  084B               	movf	___fladd@aexp,w
  2173     0E14  00CC               	movwf	___fladd@bexp
  2174     0E15                     l1690:
  2175     0E15  084D               	movf	___fladd@grs,w
  2176     0E16  00CB               	movwf	___fladd@aexp
  2177     0E17                     l1692:
  2178     0E17  083A               	movf	___fladd@b,w
  2179     0E18  00CD               	movwf	___fladd@grs
  2180     0E19                     l1694:
  2181     0E19  083E               	movf	___fladd@a,w
  2182     0E1A  00BA               	movwf	___fladd@b
  2183     0E1B                     l1696:
  2184     0E1B  084D               	movf	___fladd@grs,w
  2185     0E1C  00BE               	movwf	___fladd@a
  2186     0E1D                     l1698:
  2187     0E1D  083B               	movf	___fladd@b+1,w
  2188     0E1E  00CD               	movwf	___fladd@grs
  2189     0E1F                     l1700:
  2190     0E1F  083F               	movf	___fladd@a+1,w
  2191     0E20  00BB               	movwf	___fladd@b+1
  2192     0E21                     l1702:
  2193     0E21  084D               	movf	___fladd@grs,w
  2194     0E22  00BF               	movwf	___fladd@a+1
  2195     0E23                     l1704:
  2196     0E23  083C               	movf	___fladd@b+2,w
  2197     0E24  00CD               	movwf	___fladd@grs
  2198     0E25                     l1706:
  2199     0E25  0840               	movf	___fladd@a+2,w
  2200     0E26  00BC               	movwf	___fladd@b+2
  2201     0E27                     l1708:
  2202     0E27  084D               	movf	___fladd@grs,w
  2203     0E28  00C0               	movwf	___fladd@a+2
  2204     0E29                     l1710:
  2205     0E29  083D               	movf	___fladd@b+3,w
  2206     0E2A  00CD               	movwf	___fladd@grs
  2207     0E2B                     l1712:
  2208     0E2B  0841               	movf	___fladd@a+3,w
  2209     0E2C  00BD               	movwf	___fladd@b+3
  2210     0E2D                     l1714:
  2211     0E2D  084D               	movf	___fladd@grs,w
  2212     0E2E  00C1               	movwf	___fladd@a+3
  2213     0E2F                     l1716:
  2214     0E2F  01CD               	clrf	___fladd@grs
  2215     0E30                     l1718:
  2216     0E30  084B               	movf	___fladd@aexp,w
  2217     0E31  00C2               	movwf	??___fladd
  2218     0E32  01C3               	clrf	??___fladd+1
  2219     0E33  0843               	movf	??___fladd+1,w
  2220     0E34  00C5               	movwf	??___fladd+3
  2221     0E35  084C               	movf	___fladd@bexp,w
  2222     0E36  0242               	subwf	??___fladd,w
  2223     0E37  00C4               	movwf	??___fladd+2
  2224     0E38  1C03               	skipc
  2225     0E39  03C5               	decf	??___fladd+3,f
  2226     0E3A  0845               	movf	??___fladd+3,w
  2227     0E3B  3A80               	xorlw	128
  2228     0E3C  00FF               	movwf	btemp+1
  2229     0E3D  3080               	movlw	128
  2230     0E3E  027F               	subwf	btemp+1,w
  2231     0E3F  1D03               	skipz
  2232     0E40  2E43               	goto	u1905
  2233     0E41  301A               	movlw	26
  2234     0E42  0244               	subwf	??___fladd+2,w
  2235     0E43                     u1905:
  2236     0E43  1C03               	skipc
  2237     0E44  2E46               	goto	u1901
  2238     0E45  2E47               	goto	u1900
  2239     0E46                     u1901:
  2240     0E46  2E7E               	goto	l1734
  2241     0E47                     u1900:
  2242     0E47                     l1720:
  2243     0E47  1283               	bcf	3,5	;RP0=0, select bank0
  2244     0E48  1303               	bcf	3,6	;RP1=0, select bank0
  2245     0E49  083D               	movf	___fladd@b+3,w
  2246     0E4A  043C               	iorwf	___fladd@b+2,w
  2247     0E4B  043B               	iorwf	___fladd@b+1,w
  2248     0E4C  043A               	iorwf	___fladd@b,w
  2249     0E4D  1D03               	skipz
  2250     0E4E  2E50               	goto	u1911
  2251     0E4F  2E52               	goto	u1910
  2252     0E50                     u1911:
  2253     0E50  3001               	movlw	1
  2254     0E51  2E53               	goto	u1920
  2255     0E52                     u1910:
  2256     0E52  3000               	movlw	0
  2257     0E53                     u1920:
  2258     0E53  00CD               	movwf	___fladd@grs
  2259     0E54  3000               	movlw	0
  2260     0E55  00BD               	movwf	___fladd@b+3
  2261     0E56  3000               	movlw	0
  2262     0E57  00BC               	movwf	___fladd@b+2
  2263     0E58  3000               	movlw	0
  2264     0E59  00BB               	movwf	___fladd@b+1
  2265     0E5A  3000               	movlw	0
  2266     0E5B  00BA               	movwf	___fladd@b
  2267     0E5C  084B               	movf	___fladd@aexp,w
  2268     0E5D  00CC               	movwf	___fladd@bexp
  2269     0E5E  2E86               	goto	l561
  2270     0E5F                     l563:
  2271     0E5F  1C4D               	btfss	___fladd@grs,0
  2272     0E60  2E62               	goto	u1931
  2273     0E61  2E63               	goto	u1930
  2274     0E62                     u1931:
  2275     0E62  2E6A               	goto	l1724
  2276     0E63                     u1930:
  2277     0E63                     l1722:
  2278     0E63  084D               	movf	___fladd@grs,w
  2279     0E64  00C2               	movwf	??___fladd
  2280     0E65  1003               	clrc
  2281     0E66  0C42               	rrf	??___fladd,w
  2282     0E67  3801               	iorlw	1
  2283     0E68  00CD               	movwf	___fladd@grs
  2284     0E69  2E6C               	goto	l1726
  2285     0E6A                     l1724:
  2286     0E6A  1003               	clrc
  2287     0E6B  0CCD               	rrf	___fladd@grs,f
  2288     0E6C                     l1726:
  2289     0E6C  1C3A               	btfss	___fladd@b,0
  2290     0E6D  2E6F               	goto	u1941
  2291     0E6E  2E70               	goto	u1940
  2292     0E6F                     u1941:
  2293     0E6F  2E71               	goto	l1730
  2294     0E70                     u1940:
  2295     0E70                     l1728:
  2296     0E70  17CD               	bsf	___fladd@grs,7
  2297     0E71                     l1730:
  2298     0E71  3001               	movlw	1
  2299     0E72  00C2               	movwf	??___fladd
  2300     0E73                     u1955:
  2301     0E73  0D3D               	rlf	___fladd@b+3,w
  2302     0E74  0CBD               	rrf	___fladd@b+3,f
  2303     0E75  0CBC               	rrf	___fladd@b+2,f
  2304     0E76  0CBB               	rrf	___fladd@b+1,f
  2305     0E77  0CBA               	rrf	___fladd@b,f
  2306     0E78  0BC2               	decfsz	??___fladd& (0+127),f
  2307     0E79  2E73               	goto	u1955
  2308     0E7A                     l1732:
  2309     0E7A  3001               	movlw	1
  2310     0E7B  00C2               	movwf	??___fladd
  2311     0E7C  0842               	movf	??___fladd,w
  2312     0E7D  07CC               	addwf	___fladd@bexp,f
  2313     0E7E                     l1734:
  2314     0E7E  1283               	bcf	3,5	;RP0=0, select bank0
  2315     0E7F  1303               	bcf	3,6	;RP1=0, select bank0
  2316     0E80  084B               	movf	___fladd@aexp,w
  2317     0E81  024C               	subwf	___fladd@bexp,w
  2318     0E82  1C03               	skipc
  2319     0E83  2E85               	goto	u1961
  2320     0E84  2E86               	goto	u1960
  2321     0E85                     u1961:
  2322     0E85  2E5F               	goto	l563
  2323     0E86                     u1960:
  2324     0E86                     l561:
  2325     0E86  1B4A               	btfsc	___fladd@signs,6
  2326     0E87  2E89               	goto	u1971
  2327     0E88  2E8A               	goto	u1970
  2328     0E89                     u1971:
  2329     0E89  2ED3               	goto	l1760
  2330     0E8A                     u1970:
  2331     0E8A                     l1736:
  2332     0E8A  084C               	movf	___fladd@bexp,w
  2333     0E8B  1D03               	btfss	3,2
  2334     0E8C  2E8E               	goto	u1981
  2335     0E8D  2E8F               	goto	u1980
  2336     0E8E                     u1981:
  2337     0E8E  2E98               	goto	l1742
  2338     0E8F                     u1980:
  2339     0E8F                     l1738:
  2340     0E8F  3000               	movlw	0
  2341     0E90  00BD               	movwf	?___fladd+3
  2342     0E91  3000               	movlw	0
  2343     0E92  00BC               	movwf	?___fladd+2
  2344     0E93  3000               	movlw	0
  2345     0E94  00BB               	movwf	?___fladd+1
  2346     0E95  3000               	movlw	0
  2347     0E96  00BA               	movwf	?___fladd
  2348     0E97  2FFF               	goto	l570
  2349     0E98                     l1742:
  2350     0E98  083E               	movf	___fladd@a,w
  2351     0E99  07BA               	addwf	___fladd@b,f
  2352     0E9A  083F               	movf	___fladd@a+1,w
  2353     0E9B  1103               	clrz
  2354     0E9C  1803               	skipnc
  2355     0E9D  3E01               	addlw	1
  2356     0E9E  1903               	skipnz
  2357     0E9F  2EA1               	goto	u1991
  2358     0EA0  07BB               	addwf	___fladd@b+1,f
  2359     0EA1                     u1991:
  2360     0EA1  0840               	movf	___fladd@a+2,w
  2361     0EA2  1103               	clrz
  2362     0EA3  1803               	skipnc
  2363     0EA4  3E01               	addlw	1
  2364     0EA5  1903               	skipnz
  2365     0EA6  2EA8               	goto	u1992
  2366     0EA7  07BC               	addwf	___fladd@b+2,f
  2367     0EA8                     u1992:
  2368     0EA8  0841               	movf	___fladd@a+3,w
  2369     0EA9  1103               	clrz
  2370     0EAA  1803               	skipnc
  2371     0EAB  3E01               	addlw	1
  2372     0EAC  1903               	skipnz
  2373     0EAD  2EAF               	goto	u1993
  2374     0EAE  07BD               	addwf	___fladd@b+3,f
  2375     0EAF                     u1993:
  2376     0EAF                     l1744:
  2377     0EAF  1C3D               	btfss	___fladd@b+3,0
  2378     0EB0  2EB2               	goto	u2001
  2379     0EB1  2EB3               	goto	u2000
  2380     0EB2                     u2001:
  2381     0EB2  2F87               	goto	l1794
  2382     0EB3                     u2000:
  2383     0EB3                     l1746:
  2384     0EB3  1C4D               	btfss	___fladd@grs,0
  2385     0EB4  2EB6               	goto	u2011
  2386     0EB5  2EB7               	goto	u2010
  2387     0EB6                     u2011:
  2388     0EB6  2EBE               	goto	l1750
  2389     0EB7                     u2010:
  2390     0EB7                     l1748:
  2391     0EB7  084D               	movf	___fladd@grs,w
  2392     0EB8  00C2               	movwf	??___fladd
  2393     0EB9  1003               	clrc
  2394     0EBA  0C42               	rrf	??___fladd,w
  2395     0EBB  3801               	iorlw	1
  2396     0EBC  00CD               	movwf	___fladd@grs
  2397     0EBD  2EC0               	goto	l1752
  2398     0EBE                     l1750:
  2399     0EBE  1003               	clrc
  2400     0EBF  0CCD               	rrf	___fladd@grs,f
  2401     0EC0                     l1752:
  2402     0EC0  1C3A               	btfss	___fladd@b,0
  2403     0EC1  2EC3               	goto	u2021
  2404     0EC2  2EC4               	goto	u2020
  2405     0EC3                     u2021:
  2406     0EC3  2EC5               	goto	l1756
  2407     0EC4                     u2020:
  2408     0EC4                     l1754:
  2409     0EC4  17CD               	bsf	___fladd@grs,7
  2410     0EC5                     l1756:
  2411     0EC5  3001               	movlw	1
  2412     0EC6  00C2               	movwf	??___fladd
  2413     0EC7                     u2035:
  2414     0EC7  0D3D               	rlf	___fladd@b+3,w
  2415     0EC8  0CBD               	rrf	___fladd@b+3,f
  2416     0EC9  0CBC               	rrf	___fladd@b+2,f
  2417     0ECA  0CBB               	rrf	___fladd@b+1,f
  2418     0ECB  0CBA               	rrf	___fladd@b,f
  2419     0ECC  0BC2               	decfsz	??___fladd& (0+127),f
  2420     0ECD  2EC7               	goto	u2035
  2421     0ECE                     l1758:
  2422     0ECE  3001               	movlw	1
  2423     0ECF  00C2               	movwf	??___fladd
  2424     0ED0  0842               	movf	??___fladd,w
  2425     0ED1  07CC               	addwf	___fladd@bexp,f
  2426     0ED2  2F87               	goto	l1794
  2427     0ED3                     l1760:
  2428     0ED3  083D               	movf	___fladd@b+3,w
  2429     0ED4  3A80               	xorlw	128
  2430     0ED5  00FF               	movwf	btemp+1
  2431     0ED6  0841               	movf	___fladd@a+3,w
  2432     0ED7  3A80               	xorlw	128
  2433     0ED8  027F               	subwf	btemp+1,w
  2434     0ED9  1D03               	skipz
  2435     0EDA  2EE5               	goto	u2043
  2436     0EDB  0840               	movf	___fladd@a+2,w
  2437     0EDC  023C               	subwf	___fladd@b+2,w
  2438     0EDD  1D03               	skipz
  2439     0EDE  2EE5               	goto	u2043
  2440     0EDF  083F               	movf	___fladd@a+1,w
  2441     0EE0  023B               	subwf	___fladd@b+1,w
  2442     0EE1  1D03               	skipz
  2443     0EE2  2EE5               	goto	u2043
  2444     0EE3  083E               	movf	___fladd@a,w
  2445     0EE4  023A               	subwf	___fladd@b,w
  2446     0EE5                     u2043:
  2447     0EE5  1803               	skipnc
  2448     0EE6  2EE8               	goto	u2041
  2449     0EE7  2EE9               	goto	u2040
  2450     0EE8                     u2041:
  2451     0EE8  2F41               	goto	l1770
  2452     0EE9                     u2040:
  2453     0EE9                     l1762:
  2454     0EE9  30FF               	movlw	255
  2455     0EEA  00C2               	movwf	??___fladd
  2456     0EEB  30FF               	movlw	255
  2457     0EEC  00C3               	movwf	??___fladd+1
  2458     0EED  30FF               	movlw	255
  2459     0EEE  00C4               	movwf	??___fladd+2
  2460     0EEF  30FF               	movlw	255
  2461     0EF0  00C5               	movwf	??___fladd+3
  2462     0EF1  083E               	movf	___fladd@a,w
  2463     0EF2  00C6               	movwf	??___fladd+4
  2464     0EF3  083F               	movf	___fladd@a+1,w
  2465     0EF4  00C7               	movwf	??___fladd+5
  2466     0EF5  0840               	movf	___fladd@a+2,w
  2467     0EF6  00C8               	movwf	??___fladd+6
  2468     0EF7  0841               	movf	___fladd@a+3,w
  2469     0EF8  00C9               	movwf	??___fladd+7
  2470     0EF9  083A               	movf	___fladd@b,w
  2471     0EFA  02C6               	subwf	??___fladd+4,f
  2472     0EFB  083B               	movf	___fladd@b+1,w
  2473     0EFC  1C03               	skipc
  2474     0EFD  0F3B               	incfsz	___fladd@b+1,w
  2475     0EFE  2F00               	goto	u2051
  2476     0EFF  2F01               	goto	u2052
  2477     0F00                     u2051:
  2478     0F00  02C7               	subwf	??___fladd+5,f
  2479     0F01                     u2052:
  2480     0F01  083C               	movf	___fladd@b+2,w
  2481     0F02  1C03               	skipc
  2482     0F03  0F3C               	incfsz	___fladd@b+2,w
  2483     0F04  2F06               	goto	u2053
  2484     0F05  2F07               	goto	u2054
  2485     0F06                     u2053:
  2486     0F06  02C8               	subwf	??___fladd+6,f
  2487     0F07                     u2054:
  2488     0F07  083D               	movf	___fladd@b+3,w
  2489     0F08  1C03               	skipc
  2490     0F09  0F3D               	incfsz	___fladd@b+3,w
  2491     0F0A  2F0C               	goto	u2055
  2492     0F0B  2F0D               	goto	u2056
  2493     0F0C                     u2055:
  2494     0F0C  02C9               	subwf	??___fladd+7,f
  2495     0F0D                     u2056:
  2496     0F0D  0846               	movf	??___fladd+4,w
  2497     0F0E  07C2               	addwf	??___fladd,f
  2498     0F0F  0847               	movf	??___fladd+5,w
  2499     0F10  1803               	skipnc
  2500     0F11  0F47               	incfsz	??___fladd+5,w
  2501     0F12  2F14               	goto	u2060
  2502     0F13  2F15               	goto	u2061
  2503     0F14                     u2060:
  2504     0F14  07C3               	addwf	??___fladd+1,f
  2505     0F15                     u2061:
  2506     0F15  0848               	movf	??___fladd+6,w
  2507     0F16  1803               	skipnc
  2508     0F17  0F48               	incfsz	??___fladd+6,w
  2509     0F18  2F1A               	goto	u2062
  2510     0F19  2F1B               	goto	u2063
  2511     0F1A                     u2062:
  2512     0F1A  07C4               	addwf	??___fladd+2,f
  2513     0F1B                     u2063:
  2514     0F1B  0849               	movf	??___fladd+7,w
  2515     0F1C  1803               	skipnc
  2516     0F1D  0A49               	incf	??___fladd+7,w
  2517     0F1E  07C5               	addwf	??___fladd+3,f
  2518     0F1F  0845               	movf	??___fladd+3,w
  2519     0F20  00BD               	movwf	___fladd@b+3
  2520     0F21  0844               	movf	??___fladd+2,w
  2521     0F22  00BC               	movwf	___fladd@b+2
  2522     0F23  0843               	movf	??___fladd+1,w
  2523     0F24  00BB               	movwf	___fladd@b+1
  2524     0F25  0842               	movf	??___fladd,w
  2525     0F26  00BA               	movwf	___fladd@b
  2526     0F27                     l1764:
  2527     0F27  3080               	movlw	128
  2528     0F28  00C2               	movwf	??___fladd
  2529     0F29  0842               	movf	??___fladd,w
  2530     0F2A  06CA               	xorwf	___fladd@signs,f
  2531     0F2B  09CD               	comf	___fladd@grs,f
  2532     0F2C  0ACD               	incf	___fladd@grs,f
  2533     0F2D                     l1766:
  2534     0F2D  084D               	movf	___fladd@grs,w
  2535     0F2E  1D03               	btfss	3,2
  2536     0F2F  2F31               	goto	u2071
  2537     0F30  2F32               	goto	u2070
  2538     0F31                     u2071:
  2539     0F31  2F4F               	goto	l578
  2540     0F32                     u2070:
  2541     0F32                     l1768:
  2542     0F32  3001               	movlw	1
  2543     0F33  07BA               	addwf	___fladd@b,f
  2544     0F34  3000               	movlw	0
  2545     0F35  1803               	skipnc
  2546     0F36  3001               	movlw	1
  2547     0F37  07BB               	addwf	___fladd@b+1,f
  2548     0F38  3000               	movlw	0
  2549     0F39  1803               	skipnc
  2550     0F3A  3001               	movlw	1
  2551     0F3B  07BC               	addwf	___fladd@b+2,f
  2552     0F3C  3000               	movlw	0
  2553     0F3D  1803               	skipnc
  2554     0F3E  3001               	movlw	1
  2555     0F3F  07BD               	addwf	___fladd@b+3,f
  2556     0F40  2F4F               	goto	l578
  2557     0F41                     l1770:
  2558     0F41  083E               	movf	___fladd@a,w
  2559     0F42  02BA               	subwf	___fladd@b,f
  2560     0F43  083F               	movf	___fladd@a+1,w
  2561     0F44  1C03               	skipc
  2562     0F45  0F3F               	incfsz	___fladd@a+1,w
  2563     0F46  02BB               	subwf	___fladd@b+1,f
  2564     0F47  0840               	movf	___fladd@a+2,w
  2565     0F48  1C03               	skipc
  2566     0F49  0F40               	incfsz	___fladd@a+2,w
  2567     0F4A  02BC               	subwf	___fladd@b+2,f
  2568     0F4B  0841               	movf	___fladd@a+3,w
  2569     0F4C  1C03               	skipc
  2570     0F4D  0F41               	incfsz	___fladd@a+3,w
  2571     0F4E  02BD               	subwf	___fladd@b+3,f
  2572     0F4F                     l578:
  2573     0F4F  083D               	movf	___fladd@b+3,w
  2574     0F50  043C               	iorwf	___fladd@b+2,w
  2575     0F51  043B               	iorwf	___fladd@b+1,w
  2576     0F52  043A               	iorwf	___fladd@b,w
  2577     0F53  1D03               	skipz
  2578     0F54  2F56               	goto	u2081
  2579     0F55  2F57               	goto	u2080
  2580     0F56                     u2081:
  2581     0F56  2F83               	goto	l1792
  2582     0F57                     u2080:
  2583     0F57                     l1772:
  2584     0F57  084D               	movf	___fladd@grs,w
  2585     0F58  1D03               	btfss	3,2
  2586     0F59  2F5B               	goto	u2091
  2587     0F5A  2F5C               	goto	u2090
  2588     0F5B                     u2091:
  2589     0F5B  2F83               	goto	l1792
  2590     0F5C                     u2090:
  2591     0F5C                     l1774:
  2592     0F5C  3000               	movlw	0
  2593     0F5D  00BD               	movwf	?___fladd+3
  2594     0F5E  3000               	movlw	0
  2595     0F5F  00BC               	movwf	?___fladd+2
  2596     0F60  3000               	movlw	0
  2597     0F61  00BB               	movwf	?___fladd+1
  2598     0F62  3000               	movlw	0
  2599     0F63  00BA               	movwf	?___fladd
  2600     0F64  2FFF               	goto	l570
  2601     0F65                     l1778:
  2602     0F65  3001               	movlw	1
  2603     0F66  00C2               	movwf	??___fladd
  2604     0F67                     u2105:
  2605     0F67  1003               	clrc
  2606     0F68  0DBA               	rlf	___fladd@b,f
  2607     0F69  0DBB               	rlf	___fladd@b+1,f
  2608     0F6A  0DBC               	rlf	___fladd@b+2,f
  2609     0F6B  0DBD               	rlf	___fladd@b+3,f
  2610     0F6C  0BC2               	decfsz	??___fladd,f
  2611     0F6D  2F67               	goto	u2105
  2612     0F6E                     l1780:
  2613     0F6E  1FCD               	btfss	___fladd@grs,7
  2614     0F6F  2F71               	goto	u2111
  2615     0F70  2F72               	goto	u2110
  2616     0F71                     u2111:
  2617     0F71  2F73               	goto	l582
  2618     0F72                     u2110:
  2619     0F72                     l1782:
  2620     0F72  143A               	bsf	___fladd@b,0
  2621     0F73                     l582:
  2622     0F73  1C4D               	btfss	___fladd@grs,0
  2623     0F74  2F76               	goto	u2121
  2624     0F75  2F77               	goto	u2120
  2625     0F76                     u2121:
  2626     0F76  2F7A               	goto	l1786
  2627     0F77                     u2120:
  2628     0F77                     l1784:
  2629     0F77  1403               	setc
  2630     0F78  0DCD               	rlf	___fladd@grs,f
  2631     0F79  2F7C               	goto	l1788
  2632     0F7A                     l1786:
  2633     0F7A  1003               	clrc
  2634     0F7B  0DCD               	rlf	___fladd@grs,f
  2635     0F7C                     l1788:
  2636     0F7C  084C               	movf	___fladd@bexp,w
  2637     0F7D  1903               	btfsc	3,2
  2638     0F7E  2F80               	goto	u2131
  2639     0F7F  2F81               	goto	u2130
  2640     0F80                     u2131:
  2641     0F80  2F83               	goto	l1792
  2642     0F81                     u2130:
  2643     0F81                     l1790:
  2644     0F81  3001               	movlw	1
  2645     0F82  02CC               	subwf	___fladd@bexp,f
  2646     0F83                     l1792:
  2647     0F83  1FBC               	btfss	___fladd@b+2,7
  2648     0F84  2F86               	goto	u2141
  2649     0F85  2F87               	goto	u2140
  2650     0F86                     u2141:
  2651     0F86  2F65               	goto	l1778
  2652     0F87                     u2140:
  2653     0F87                     l1794:
  2654     0F87  01CB               	clrf	___fladd@aexp
  2655     0F88                     l1796:
  2656     0F88  1FCD               	btfss	___fladd@grs,7
  2657     0F89  2F8B               	goto	u2151
  2658     0F8A  2F8C               	goto	u2150
  2659     0F8B                     u2151:
  2660     0F8B  2F9A               	goto	l1804
  2661     0F8C                     u2150:
  2662     0F8C                     l1798:
  2663     0F8C  084D               	movf	___fladd@grs,w
  2664     0F8D  397F               	andlw	127
  2665     0F8E  1903               	btfsc	3,2
  2666     0F8F  2F91               	goto	u2161
  2667     0F90  2F92               	goto	u2160
  2668     0F91                     u2161:
  2669     0F91  2F95               	goto	l588
  2670     0F92                     u2160:
  2671     0F92                     l1800:
  2672     0F92  01CB               	clrf	___fladd@aexp
  2673     0F93  0ACB               	incf	___fladd@aexp,f
  2674     0F94  2F9A               	goto	l1804
  2675     0F95                     l588:
  2676     0F95  1C3A               	btfss	___fladd@b,0
  2677     0F96  2F98               	goto	u2171
  2678     0F97  2F99               	goto	u2170
  2679     0F98                     u2171:
  2680     0F98  2F9A               	goto	l1804
  2681     0F99                     u2170:
  2682     0F99  2F92               	goto	l1800
  2683     0F9A                     l1804:
  2684     0F9A  084B               	movf	___fladd@aexp,w
  2685     0F9B  1903               	btfsc	3,2
  2686     0F9C  2F9E               	goto	u2181
  2687     0F9D  2F9F               	goto	u2180
  2688     0F9E                     u2181:
  2689     0F9E  2FD3               	goto	l591
  2690     0F9F                     u2180:
  2691     0F9F                     l1806:
  2692     0F9F  3001               	movlw	1
  2693     0FA0  07BA               	addwf	___fladd@b,f
  2694     0FA1  3000               	movlw	0
  2695     0FA2  1803               	skipnc
  2696     0FA3  3001               	movlw	1
  2697     0FA4  07BB               	addwf	___fladd@b+1,f
  2698     0FA5  3000               	movlw	0
  2699     0FA6  1803               	skipnc
  2700     0FA7  3001               	movlw	1
  2701     0FA8  07BC               	addwf	___fladd@b+2,f
  2702     0FA9  3000               	movlw	0
  2703     0FAA  1803               	skipnc
  2704     0FAB  3001               	movlw	1
  2705     0FAC  07BD               	addwf	___fladd@b+3,f
  2706     0FAD                     l1808:
  2707     0FAD  1C3D               	btfss	___fladd@b+3,0
  2708     0FAE  2FB0               	goto	u2191
  2709     0FAF  2FB1               	goto	u2190
  2710     0FB0                     u2191:
  2711     0FB0  2FD3               	goto	l591
  2712     0FB1                     u2190:
  2713     0FB1                     l1810:
  2714     0FB1  083A               	movf	___fladd@b,w
  2715     0FB2  00C2               	movwf	??___fladd
  2716     0FB3  083B               	movf	___fladd@b+1,w
  2717     0FB4  00C3               	movwf	??___fladd+1
  2718     0FB5  083C               	movf	___fladd@b+2,w
  2719     0FB6  00C4               	movwf	??___fladd+2
  2720     0FB7  083D               	movf	___fladd@b+3,w
  2721     0FB8  00C5               	movwf	??___fladd+3
  2722     0FB9  3001               	movlw	1
  2723     0FBA  00C6               	movwf	??___fladd+4
  2724     0FBB                     u2205:
  2725     0FBB  0D45               	rlf	??___fladd+3,w
  2726     0FBC  0CC5               	rrf	??___fladd+3,f
  2727     0FBD  0CC4               	rrf	??___fladd+2,f
  2728     0FBE  0CC3               	rrf	??___fladd+1,f
  2729     0FBF  0CC2               	rrf	??___fladd,f
  2730     0FC0                     u2200:
  2731     0FC0  0BC6               	decfsz	??___fladd+4,f
  2732     0FC1  2FBB               	goto	u2205
  2733     0FC2  0845               	movf	??___fladd+3,w
  2734     0FC3  00BD               	movwf	___fladd@b+3
  2735     0FC4  0844               	movf	??___fladd+2,w
  2736     0FC5  00BC               	movwf	___fladd@b+2
  2737     0FC6  0843               	movf	??___fladd+1,w
  2738     0FC7  00BB               	movwf	___fladd@b+1
  2739     0FC8  0842               	movf	??___fladd,w
  2740     0FC9  00BA               	movwf	___fladd@b
  2741     0FCA  0A4C               	incf	___fladd@bexp,w
  2742     0FCB  1903               	btfsc	3,2
  2743     0FCC  2FCE               	goto	u2211
  2744     0FCD  2FCF               	goto	u2210
  2745     0FCE                     u2211:
  2746     0FCE  2FD3               	goto	l591
  2747     0FCF                     u2210:
  2748     0FCF                     l1812:
  2749     0FCF  3001               	movlw	1
  2750     0FD0  00C2               	movwf	??___fladd
  2751     0FD1  0842               	movf	??___fladd,w
  2752     0FD2  07CC               	addwf	___fladd@bexp,f
  2753     0FD3                     l591:
  2754     0FD3  0A4C               	incf	___fladd@bexp,w
  2755     0FD4  1903               	btfsc	3,2
  2756     0FD5  2FD7               	goto	u2221
  2757     0FD6  2FD8               	goto	u2220
  2758     0FD7                     u2221:
  2759     0FD7  2FDD               	goto	l1816
  2760     0FD8                     u2220:
  2761     0FD8                     l1814:
  2762     0FD8  084C               	movf	___fladd@bexp,w
  2763     0FD9  1D03               	btfss	3,2
  2764     0FDA  2FDC               	goto	u2231
  2765     0FDB  2FDD               	goto	u2230
  2766     0FDC                     u2231:
  2767     0FDC  2FEB               	goto	l1822
  2768     0FDD                     u2230:
  2769     0FDD                     l1816:
  2770     0FDD  3000               	movlw	0
  2771     0FDE  00BD               	movwf	___fladd@b+3
  2772     0FDF  3000               	movlw	0
  2773     0FE0  00BC               	movwf	___fladd@b+2
  2774     0FE1  3000               	movlw	0
  2775     0FE2  00BB               	movwf	___fladd@b+1
  2776     0FE3  3000               	movlw	0
  2777     0FE4  00BA               	movwf	___fladd@b
  2778     0FE5                     l1818:
  2779     0FE5  084C               	movf	___fladd@bexp,w
  2780     0FE6  1D03               	btfss	3,2
  2781     0FE7  2FE9               	goto	u2241
  2782     0FE8  2FEA               	goto	u2240
  2783     0FE9                     u2241:
  2784     0FE9  2FEB               	goto	l1822
  2785     0FEA                     u2240:
  2786     0FEA                     l1820:
  2787     0FEA  01CA               	clrf	___fladd@signs
  2788     0FEB                     l1822:
  2789     0FEB  1C4C               	btfss	___fladd@bexp,0
  2790     0FEC  2FEE               	goto	u2251
  2791     0FED  2FEF               	goto	u2250
  2792     0FEE                     u2251:
  2793     0FEE  2FF1               	goto	l1826
  2794     0FEF                     u2250:
  2795     0FEF                     l1824:
  2796     0FEF  17BC               	bsf	___fladd@b+2,7
  2797     0FF0  2FF5               	goto	l599
  2798     0FF1                     l1826:
  2799     0FF1  307F               	movlw	127
  2800     0FF2  00C2               	movwf	??___fladd
  2801     0FF3  0842               	movf	??___fladd,w
  2802     0FF4  05BC               	andwf	___fladd@b+2,f
  2803     0FF5                     l599:
  2804     0FF5  084C               	movf	___fladd@bexp,w
  2805     0FF6  00C2               	movwf	??___fladd
  2806     0FF7  1003               	clrc
  2807     0FF8  0C42               	rrf	??___fladd,w
  2808     0FF9  00BD               	movwf	___fladd@b+3
  2809     0FFA                     l1828:
  2810     0FFA  1FCA               	btfss	___fladd@signs,7
  2811     0FFB  2FFD               	goto	u2261
  2812     0FFC  2FFE               	goto	u2260
  2813     0FFD                     u2261:
  2814     0FFD  2FFF               	goto	l600
  2815     0FFE                     u2260:
  2816     0FFE                     l1830:
  2817     0FFE  17BD               	bsf	___fladd@b+3,7
  2818     0FFF                     l600:
  2819     0FFF                     l570:
  2820     0FFF  0008               	return
  2821     1000                     __end_of___fladd:
  2822                           
  2823                           	psect	text4
  2824     0021                     __ptext4:	
  2825 ;; *************** function ___flmul *****************
  2826 ;; Defined at:
  2827 ;;		line 8 in file "C:\Program Files\Microchip\xc8\v2.40\pic\sources\c90\common\sprcmul.c"
  2828 ;; Parameters:    Size  Location     Type
  2829 ;;  b               4    0[BANK0 ] unsigned char 
  2830 ;;  a               4    4[BANK0 ] unsigned char 
  2831 ;; Auto vars:     Size  Location     Type
  2832 ;;  prod            4   20[BANK0 ] struct .
  2833 ;;  grs             4   14[BANK0 ] unsigned long 
  2834 ;;  temp            2   24[BANK0 ] struct .
  2835 ;;  bexp            1   19[BANK0 ] unsigned char 
  2836 ;;  aexp            1   18[BANK0 ] unsigned char 
  2837 ;;  sign            1   13[BANK0 ] unsigned char 
  2838 ;; Return value:  Size  Location     Type
  2839 ;;                  4    0[BANK0 ] unsigned char 
  2840 ;; Registers used:
  2841 ;;		wreg, status,2, status,0, btemp+1, pclath, cstack
  2842 ;; Tracked objects:
  2843 ;;		On entry : 0/0
  2844 ;;		On exit  : 0/0
  2845 ;;		Unchanged: 0/0
  2846 ;; Data sizes:     COMMON   BANK0   BANK1   BANK3   BANK2
  2847 ;;      Params:         0       8       0       0       0
  2848 ;;      Locals:         0      13       0       0       0
  2849 ;;      Temps:          0       5       0       0       0
  2850 ;;      Totals:         0      26       0       0       0
  2851 ;;Total ram usage:       26 bytes
  2852 ;; Hardware stack levels used: 1
  2853 ;; Hardware stack levels required when called: 2
  2854 ;; This function calls:
  2855 ;;		__Umul8_16
  2856 ;; This function is called by:
  2857 ;;		_pid_controller
  2858 ;; This function uses a non-reentrant model
  2859 ;;
  2860                           
  2861     0021                     ___flmul:	
  2862                           ;psect for function ___flmul
  2863                           
  2864     0021                     l1986:	
  2865                           ;incstack = 0
  2866                           ; Regs used in ___flmul: [wreg+status,2+status,0+btemp+1+pclath+cstack]
  2867                           
  2868     0021  1283               	bcf	3,5	;RP0=0, select bank0
  2869     0022  1303               	bcf	3,6	;RP1=0, select bank0
  2870     0023  0823               	movf	___flmul@b+3,w
  2871     0024  3980               	andlw	128
  2872     0025  00AD               	movwf	___flmul@sign
  2873     0026                     l1988:
  2874     0026  0823               	movf	___flmul@b+3,w
  2875     0027  00A8               	movwf	??___flmul
  2876     0028  0728               	addwf	??___flmul,w
  2877     0029  00B3               	movwf	___flmul@bexp
  2878     002A                     l1990:
  2879     002A  1FA2               	btfss	___flmul@b+2,7
  2880     002B  282D               	goto	u2611
  2881     002C  282E               	goto	u2610
  2882     002D                     u2611:
  2883     002D  282F               	goto	l1994
  2884     002E                     u2610:
  2885     002E                     l1992:
  2886     002E  1433               	bsf	___flmul@bexp,0
  2887     002F                     l1994:
  2888     002F  0833               	movf	___flmul@bexp,w
  2889     0030  1903               	btfsc	3,2
  2890     0031  2833               	goto	u2621
  2891     0032  2834               	goto	u2620
  2892     0033                     u2621:
  2893     0033  2843               	goto	l2002
  2894     0034                     u2620:
  2895     0034                     l1996:
  2896     0034  0A33               	incf	___flmul@bexp,w
  2897     0035  1D03               	btfss	3,2
  2898     0036  2838               	goto	u2631
  2899     0037  2839               	goto	u2630
  2900     0038                     u2631:
  2901     0038  2841               	goto	l2000
  2902     0039                     u2630:
  2903     0039                     l1998:
  2904     0039  3000               	movlw	0
  2905     003A  00A3               	movwf	___flmul@b+3
  2906     003B  3000               	movlw	0
  2907     003C  00A2               	movwf	___flmul@b+2
  2908     003D  3000               	movlw	0
  2909     003E  00A1               	movwf	___flmul@b+1
  2910     003F  3000               	movlw	0
  2911     0040  00A0               	movwf	___flmul@b
  2912     0041                     l2000:
  2913     0041  17A2               	bsf	___flmul@b+2,7
  2914     0042  284B               	goto	l2004
  2915     0043                     l2002:
  2916     0043  3000               	movlw	0
  2917     0044  00A3               	movwf	___flmul@b+3
  2918     0045  3000               	movlw	0
  2919     0046  00A2               	movwf	___flmul@b+2
  2920     0047  3000               	movlw	0
  2921     0048  00A1               	movwf	___flmul@b+1
  2922     0049  3000               	movlw	0
  2923     004A  00A0               	movwf	___flmul@b
  2924     004B                     l2004:
  2925     004B  0827               	movf	___flmul@a+3,w
  2926     004C  3980               	andlw	128
  2927     004D  00A8               	movwf	??___flmul
  2928     004E  0828               	movf	??___flmul,w
  2929     004F  06AD               	xorwf	___flmul@sign,f
  2930     0050                     l2006:
  2931     0050  0827               	movf	___flmul@a+3,w
  2932     0051  00A8               	movwf	??___flmul
  2933     0052  0728               	addwf	??___flmul,w
  2934     0053  00B2               	movwf	___flmul@aexp
  2935     0054                     l2008:
  2936     0054  1FA6               	btfss	___flmul@a+2,7
  2937     0055  2857               	goto	u2641
  2938     0056  2858               	goto	u2640
  2939     0057                     u2641:
  2940     0057  2859               	goto	l2012
  2941     0058                     u2640:
  2942     0058                     l2010:
  2943     0058  1432               	bsf	___flmul@aexp,0
  2944     0059                     l2012:
  2945     0059  0832               	movf	___flmul@aexp,w
  2946     005A  1903               	btfsc	3,2
  2947     005B  285D               	goto	u2651
  2948     005C  285E               	goto	u2650
  2949     005D                     u2651:
  2950     005D  286D               	goto	l2020
  2951     005E                     u2650:
  2952     005E                     l2014:
  2953     005E  0A32               	incf	___flmul@aexp,w
  2954     005F  1D03               	btfss	3,2
  2955     0060  2862               	goto	u2661
  2956     0061  2863               	goto	u2660
  2957     0062                     u2661:
  2958     0062  286B               	goto	l2018
  2959     0063                     u2660:
  2960     0063                     l2016:
  2961     0063  3000               	movlw	0
  2962     0064  00A7               	movwf	___flmul@a+3
  2963     0065  3000               	movlw	0
  2964     0066  00A6               	movwf	___flmul@a+2
  2965     0067  3000               	movlw	0
  2966     0068  00A5               	movwf	___flmul@a+1
  2967     0069  3000               	movlw	0
  2968     006A  00A4               	movwf	___flmul@a
  2969     006B                     l2018:
  2970     006B  17A6               	bsf	___flmul@a+2,7
  2971     006C  2875               	goto	l2022
  2972     006D                     l2020:
  2973     006D  3000               	movlw	0
  2974     006E  00A7               	movwf	___flmul@a+3
  2975     006F  3000               	movlw	0
  2976     0070  00A6               	movwf	___flmul@a+2
  2977     0071  3000               	movlw	0
  2978     0072  00A5               	movwf	___flmul@a+1
  2979     0073  3000               	movlw	0
  2980     0074  00A4               	movwf	___flmul@a
  2981     0075                     l2022:
  2982     0075  0832               	movf	___flmul@aexp,w
  2983     0076  1903               	btfsc	3,2
  2984     0077  2879               	goto	u2671
  2985     0078  287A               	goto	u2670
  2986     0079                     u2671:
  2987     0079  287F               	goto	l2026
  2988     007A                     u2670:
  2989     007A                     l2024:
  2990     007A  0833               	movf	___flmul@bexp,w
  2991     007B  1D03               	btfss	3,2
  2992     007C  287E               	goto	u2681
  2993     007D  287F               	goto	u2680
  2994     007E                     u2681:
  2995     007E  2888               	goto	l2030
  2996     007F                     u2680:
  2997     007F                     l2026:
  2998     007F  3000               	movlw	0
  2999     0080  00A3               	movwf	?___flmul+3
  3000     0081  3000               	movlw	0
  3001     0082  00A2               	movwf	?___flmul+2
  3002     0083  3000               	movlw	0
  3003     0084  00A1               	movwf	?___flmul+1
  3004     0085  3000               	movlw	0
  3005     0086  00A0               	movwf	?___flmul
  3006     0087  2B65               	goto	l653
  3007     0088                     l2030:
  3008     0088  0820               	movf	___flmul@b,w
  3009     0089  00F2               	movwf	__Umul8_16@multiplicand
  3010     008A  0826               	movf	___flmul@a+2,w
  3011     008B  120A  158A  2238  120A  118A  	fcall	__Umul8_16
  3012     0090  0873               	movf	?__Umul8_16+1,w
  3013     0091  1283               	bcf	3,5	;RP0=0, select bank0
  3014     0092  1303               	bcf	3,6	;RP1=0, select bank0
  3015     0093  00B9               	movwf	___flmul@temp+1
  3016     0094  0872               	movf	?__Umul8_16,w
  3017     0095  00B8               	movwf	___flmul@temp
  3018     0096                     l2032:
  3019     0096  0838               	movf	___flmul@temp,w
  3020     0097  00A8               	movwf	??___flmul
  3021     0098  01A9               	clrf	??___flmul+1
  3022     0099  01AA               	clrf	??___flmul+2
  3023     009A  01AB               	clrf	??___flmul+3
  3024     009B  082B               	movf	??___flmul+3,w
  3025     009C  00B1               	movwf	___flmul@grs+3
  3026     009D  082A               	movf	??___flmul+2,w
  3027     009E  00B0               	movwf	___flmul@grs+2
  3028     009F  0829               	movf	??___flmul+1,w
  3029     00A0  00AF               	movwf	___flmul@grs+1
  3030     00A1  0828               	movf	??___flmul,w
  3031     00A2  00AE               	movwf	___flmul@grs
  3032     00A3                     l2034:
  3033     00A3  0839               	movf	___flmul@temp+1,w
  3034     00A4  00A8               	movwf	??___flmul
  3035     00A5  01A9               	clrf	??___flmul+1
  3036     00A6  01AA               	clrf	??___flmul+2
  3037     00A7  01AB               	clrf	??___flmul+3
  3038     00A8  082B               	movf	??___flmul+3,w
  3039     00A9  00B7               	movwf	___flmul@prod+3
  3040     00AA  082A               	movf	??___flmul+2,w
  3041     00AB  00B6               	movwf	___flmul@prod+2
  3042     00AC  0829               	movf	??___flmul+1,w
  3043     00AD  00B5               	movwf	___flmul@prod+1
  3044     00AE  0828               	movf	??___flmul,w
  3045     00AF  00B4               	movwf	___flmul@prod
  3046     00B0  0821               	movf	___flmul@b+1,w
  3047     00B1  00F2               	movwf	__Umul8_16@multiplicand
  3048     00B2  0825               	movf	___flmul@a+1,w
  3049     00B3  120A  158A  2238  120A  118A  	fcall	__Umul8_16
  3050     00B8  0873               	movf	?__Umul8_16+1,w
  3051     00B9  1283               	bcf	3,5	;RP0=0, select bank0
  3052     00BA  1303               	bcf	3,6	;RP1=0, select bank0
  3053     00BB  00B9               	movwf	___flmul@temp+1
  3054     00BC  0872               	movf	?__Umul8_16,w
  3055     00BD  00B8               	movwf	___flmul@temp
  3056     00BE                     l2036:
  3057     00BE  0838               	movf	___flmul@temp,w
  3058     00BF  00A8               	movwf	??___flmul
  3059     00C0  01A9               	clrf	??___flmul+1
  3060     00C1  01AA               	clrf	??___flmul+2
  3061     00C2  01AB               	clrf	??___flmul+3
  3062     00C3  0828               	movf	??___flmul,w
  3063     00C4  07AE               	addwf	___flmul@grs,f
  3064     00C5  0829               	movf	??___flmul+1,w
  3065     00C6  1103               	clrz
  3066     00C7  1803               	skipnc
  3067     00C8  3E01               	addlw	1
  3068     00C9  1903               	skipnz
  3069     00CA  28CC               	goto	u2691
  3070     00CB  07AF               	addwf	___flmul@grs+1,f
  3071     00CC                     u2691:
  3072     00CC  082A               	movf	??___flmul+2,w
  3073     00CD  1103               	clrz
  3074     00CE  1803               	skipnc
  3075     00CF  3E01               	addlw	1
  3076     00D0  1903               	skipnz
  3077     00D1  28D3               	goto	u2692
  3078     00D2  07B0               	addwf	___flmul@grs+2,f
  3079     00D3                     u2692:
  3080     00D3  082B               	movf	??___flmul+3,w
  3081     00D4  1103               	clrz
  3082     00D5  1803               	skipnc
  3083     00D6  3E01               	addlw	1
  3084     00D7  1903               	skipnz
  3085     00D8  28DA               	goto	u2693
  3086     00D9  07B1               	addwf	___flmul@grs+3,f
  3087     00DA                     u2693:
  3088     00DA                     l2038:
  3089     00DA  0839               	movf	___flmul@temp+1,w
  3090     00DB  00A8               	movwf	??___flmul
  3091     00DC  01A9               	clrf	??___flmul+1
  3092     00DD  01AA               	clrf	??___flmul+2
  3093     00DE  01AB               	clrf	??___flmul+3
  3094     00DF  0828               	movf	??___flmul,w
  3095     00E0  07B4               	addwf	___flmul@prod,f
  3096     00E1  0829               	movf	??___flmul+1,w
  3097     00E2  1103               	clrz
  3098     00E3  1803               	skipnc
  3099     00E4  3E01               	addlw	1
  3100     00E5  1903               	skipnz
  3101     00E6  28E8               	goto	u2701
  3102     00E7  07B5               	addwf	___flmul@prod+1,f
  3103     00E8                     u2701:
  3104     00E8  082A               	movf	??___flmul+2,w
  3105     00E9  1103               	clrz
  3106     00EA  1803               	skipnc
  3107     00EB  3E01               	addlw	1
  3108     00EC  1903               	skipnz
  3109     00ED  28EF               	goto	u2702
  3110     00EE  07B6               	addwf	___flmul@prod+2,f
  3111     00EF                     u2702:
  3112     00EF  082B               	movf	??___flmul+3,w
  3113     00F0  1103               	clrz
  3114     00F1  1803               	skipnc
  3115     00F2  3E01               	addlw	1
  3116     00F3  1903               	skipnz
  3117     00F4  28F6               	goto	u2703
  3118     00F5  07B7               	addwf	___flmul@prod+3,f
  3119     00F6                     u2703:
  3120     00F6  0822               	movf	___flmul@b+2,w
  3121     00F7  00F2               	movwf	__Umul8_16@multiplicand
  3122     00F8  0824               	movf	___flmul@a,w
  3123     00F9  120A  158A  2238  120A  118A  	fcall	__Umul8_16
  3124     00FE  0873               	movf	?__Umul8_16+1,w
  3125     00FF  1283               	bcf	3,5	;RP0=0, select bank0
  3126     0100  1303               	bcf	3,6	;RP1=0, select bank0
  3127     0101  00B9               	movwf	___flmul@temp+1
  3128     0102  0872               	movf	?__Umul8_16,w
  3129     0103  00B8               	movwf	___flmul@temp
  3130     0104                     l2040:
  3131     0104  0838               	movf	___flmul@temp,w
  3132     0105  00A8               	movwf	??___flmul
  3133     0106  01A9               	clrf	??___flmul+1
  3134     0107  01AA               	clrf	??___flmul+2
  3135     0108  01AB               	clrf	??___flmul+3
  3136     0109  0828               	movf	??___flmul,w
  3137     010A  07AE               	addwf	___flmul@grs,f
  3138     010B  0829               	movf	??___flmul+1,w
  3139     010C  1103               	clrz
  3140     010D  1803               	skipnc
  3141     010E  3E01               	addlw	1
  3142     010F  1903               	skipnz
  3143     0110  2912               	goto	u2711
  3144     0111  07AF               	addwf	___flmul@grs+1,f
  3145     0112                     u2711:
  3146     0112  082A               	movf	??___flmul+2,w
  3147     0113  1103               	clrz
  3148     0114  1803               	skipnc
  3149     0115  3E01               	addlw	1
  3150     0116  1903               	skipnz
  3151     0117  2919               	goto	u2712
  3152     0118  07B0               	addwf	___flmul@grs+2,f
  3153     0119                     u2712:
  3154     0119  082B               	movf	??___flmul+3,w
  3155     011A  1103               	clrz
  3156     011B  1803               	skipnc
  3157     011C  3E01               	addlw	1
  3158     011D  1903               	skipnz
  3159     011E  2920               	goto	u2713
  3160     011F  07B1               	addwf	___flmul@grs+3,f
  3161     0120                     u2713:
  3162     0120                     l2042:
  3163     0120  0839               	movf	___flmul@temp+1,w
  3164     0121  00A8               	movwf	??___flmul
  3165     0122  01A9               	clrf	??___flmul+1
  3166     0123  01AA               	clrf	??___flmul+2
  3167     0124  01AB               	clrf	??___flmul+3
  3168     0125  0828               	movf	??___flmul,w
  3169     0126  07B4               	addwf	___flmul@prod,f
  3170     0127  0829               	movf	??___flmul+1,w
  3171     0128  1103               	clrz
  3172     0129  1803               	skipnc
  3173     012A  3E01               	addlw	1
  3174     012B  1903               	skipnz
  3175     012C  292E               	goto	u2721
  3176     012D  07B5               	addwf	___flmul@prod+1,f
  3177     012E                     u2721:
  3178     012E  082A               	movf	??___flmul+2,w
  3179     012F  1103               	clrz
  3180     0130  1803               	skipnc
  3181     0131  3E01               	addlw	1
  3182     0132  1903               	skipnz
  3183     0133  2935               	goto	u2722
  3184     0134  07B6               	addwf	___flmul@prod+2,f
  3185     0135                     u2722:
  3186     0135  082B               	movf	??___flmul+3,w
  3187     0136  1103               	clrz
  3188     0137  1803               	skipnc
  3189     0138  3E01               	addlw	1
  3190     0139  1903               	skipnz
  3191     013A  293C               	goto	u2723
  3192     013B  07B7               	addwf	___flmul@prod+3,f
  3193     013C                     u2723:
  3194     013C                     l2044:
  3195     013C  3008               	movlw	8
  3196     013D  00A8               	movwf	??___flmul
  3197     013E                     u2735:
  3198     013E  1003               	clrc
  3199     013F  0DAE               	rlf	___flmul@grs,f
  3200     0140  0DAF               	rlf	___flmul@grs+1,f
  3201     0141  0DB0               	rlf	___flmul@grs+2,f
  3202     0142  0DB1               	rlf	___flmul@grs+3,f
  3203     0143  0BA8               	decfsz	??___flmul,f
  3204     0144  293E               	goto	u2735
  3205     0145                     l2046:
  3206     0145  0821               	movf	___flmul@b+1,w
  3207     0146  00F2               	movwf	__Umul8_16@multiplicand
  3208     0147  0824               	movf	___flmul@a,w
  3209     0148  120A  158A  2238  120A  118A  	fcall	__Umul8_16
  3210     014D  0873               	movf	?__Umul8_16+1,w
  3211     014E  1283               	bcf	3,5	;RP0=0, select bank0
  3212     014F  1303               	bcf	3,6	;RP1=0, select bank0
  3213     0150  00B9               	movwf	___flmul@temp+1
  3214     0151  0872               	movf	?__Umul8_16,w
  3215     0152  00B8               	movwf	___flmul@temp
  3216     0153                     l2048:
  3217     0153  0838               	movf	___flmul@temp,w
  3218     0154  00A8               	movwf	??___flmul
  3219     0155  0839               	movf	___flmul@temp+1,w
  3220     0156  00A9               	movwf	??___flmul+1
  3221     0157  01AA               	clrf	??___flmul+2
  3222     0158  01AB               	clrf	??___flmul+3
  3223     0159  0828               	movf	??___flmul,w
  3224     015A  07AE               	addwf	___flmul@grs,f
  3225     015B  0829               	movf	??___flmul+1,w
  3226     015C  1103               	clrz
  3227     015D  1803               	skipnc
  3228     015E  3E01               	addlw	1
  3229     015F  1903               	skipnz
  3230     0160  2962               	goto	u2741
  3231     0161  07AF               	addwf	___flmul@grs+1,f
  3232     0162                     u2741:
  3233     0162  082A               	movf	??___flmul+2,w
  3234     0163  1103               	clrz
  3235     0164  1803               	skipnc
  3236     0165  3E01               	addlw	1
  3237     0166  1903               	skipnz
  3238     0167  2969               	goto	u2742
  3239     0168  07B0               	addwf	___flmul@grs+2,f
  3240     0169                     u2742:
  3241     0169  082B               	movf	??___flmul+3,w
  3242     016A  1103               	clrz
  3243     016B  1803               	skipnc
  3244     016C  3E01               	addlw	1
  3245     016D  1903               	skipnz
  3246     016E  2970               	goto	u2743
  3247     016F  07B1               	addwf	___flmul@grs+3,f
  3248     0170                     u2743:
  3249     0170                     l2050:
  3250     0170  0820               	movf	___flmul@b,w
  3251     0171  00F2               	movwf	__Umul8_16@multiplicand
  3252     0172  0825               	movf	___flmul@a+1,w
  3253     0173  120A  158A  2238  120A  118A  	fcall	__Umul8_16
  3254     0178  0873               	movf	?__Umul8_16+1,w
  3255     0179  1283               	bcf	3,5	;RP0=0, select bank0
  3256     017A  1303               	bcf	3,6	;RP1=0, select bank0
  3257     017B  00B9               	movwf	___flmul@temp+1
  3258     017C  0872               	movf	?__Umul8_16,w
  3259     017D  00B8               	movwf	___flmul@temp
  3260     017E                     l2052:
  3261     017E  0838               	movf	___flmul@temp,w
  3262     017F  00A8               	movwf	??___flmul
  3263     0180  0839               	movf	___flmul@temp+1,w
  3264     0181  00A9               	movwf	??___flmul+1
  3265     0182  01AA               	clrf	??___flmul+2
  3266     0183  01AB               	clrf	??___flmul+3
  3267     0184  0828               	movf	??___flmul,w
  3268     0185  07AE               	addwf	___flmul@grs,f
  3269     0186  0829               	movf	??___flmul+1,w
  3270     0187  1103               	clrz
  3271     0188  1803               	skipnc
  3272     0189  3E01               	addlw	1
  3273     018A  1903               	skipnz
  3274     018B  298D               	goto	u2751
  3275     018C  07AF               	addwf	___flmul@grs+1,f
  3276     018D                     u2751:
  3277     018D  082A               	movf	??___flmul+2,w
  3278     018E  1103               	clrz
  3279     018F  1803               	skipnc
  3280     0190  3E01               	addlw	1
  3281     0191  1903               	skipnz
  3282     0192  2994               	goto	u2752
  3283     0193  07B0               	addwf	___flmul@grs+2,f
  3284     0194                     u2752:
  3285     0194  082B               	movf	??___flmul+3,w
  3286     0195  1103               	clrz
  3287     0196  1803               	skipnc
  3288     0197  3E01               	addlw	1
  3289     0198  1903               	skipnz
  3290     0199  299B               	goto	u2753
  3291     019A  07B1               	addwf	___flmul@grs+3,f
  3292     019B                     u2753:
  3293     019B                     l2054:
  3294     019B  3008               	movlw	8
  3295     019C  00A8               	movwf	??___flmul
  3296     019D                     u2765:
  3297     019D  1003               	clrc
  3298     019E  0DAE               	rlf	___flmul@grs,f
  3299     019F  0DAF               	rlf	___flmul@grs+1,f
  3300     01A0  0DB0               	rlf	___flmul@grs+2,f
  3301     01A1  0DB1               	rlf	___flmul@grs+3,f
  3302     01A2  0BA8               	decfsz	??___flmul,f
  3303     01A3  299D               	goto	u2765
  3304     01A4  0820               	movf	___flmul@b,w
  3305     01A5  00F2               	movwf	__Umul8_16@multiplicand
  3306     01A6  0824               	movf	___flmul@a,w
  3307     01A7  120A  158A  2238  120A  118A  	fcall	__Umul8_16
  3308     01AC  0873               	movf	?__Umul8_16+1,w
  3309     01AD  1283               	bcf	3,5	;RP0=0, select bank0
  3310     01AE  1303               	bcf	3,6	;RP1=0, select bank0
  3311     01AF  00B9               	movwf	___flmul@temp+1
  3312     01B0  0872               	movf	?__Umul8_16,w
  3313     01B1  00B8               	movwf	___flmul@temp
  3314     01B2                     l2056:
  3315     01B2  0838               	movf	___flmul@temp,w
  3316     01B3  00A8               	movwf	??___flmul
  3317     01B4  0839               	movf	___flmul@temp+1,w
  3318     01B5  00A9               	movwf	??___flmul+1
  3319     01B6  01AA               	clrf	??___flmul+2
  3320     01B7  01AB               	clrf	??___flmul+3
  3321     01B8  0828               	movf	??___flmul,w
  3322     01B9  07AE               	addwf	___flmul@grs,f
  3323     01BA  0829               	movf	??___flmul+1,w
  3324     01BB  1103               	clrz
  3325     01BC  1803               	skipnc
  3326     01BD  3E01               	addlw	1
  3327     01BE  1903               	skipnz
  3328     01BF  29C1               	goto	u2771
  3329     01C0  07AF               	addwf	___flmul@grs+1,f
  3330     01C1                     u2771:
  3331     01C1  082A               	movf	??___flmul+2,w
  3332     01C2  1103               	clrz
  3333     01C3  1803               	skipnc
  3334     01C4  3E01               	addlw	1
  3335     01C5  1903               	skipnz
  3336     01C6  29C8               	goto	u2772
  3337     01C7  07B0               	addwf	___flmul@grs+2,f
  3338     01C8                     u2772:
  3339     01C8  082B               	movf	??___flmul+3,w
  3340     01C9  1103               	clrz
  3341     01CA  1803               	skipnc
  3342     01CB  3E01               	addlw	1
  3343     01CC  1903               	skipnz
  3344     01CD  29CF               	goto	u2773
  3345     01CE  07B1               	addwf	___flmul@grs+3,f
  3346     01CF                     u2773:
  3347     01CF                     l2058:
  3348     01CF  0821               	movf	___flmul@b+1,w
  3349     01D0  00F2               	movwf	__Umul8_16@multiplicand
  3350     01D1  0826               	movf	___flmul@a+2,w
  3351     01D2  120A  158A  2238  120A  118A  	fcall	__Umul8_16
  3352     01D7  0873               	movf	?__Umul8_16+1,w
  3353     01D8  1283               	bcf	3,5	;RP0=0, select bank0
  3354     01D9  1303               	bcf	3,6	;RP1=0, select bank0
  3355     01DA  00B9               	movwf	___flmul@temp+1
  3356     01DB  0872               	movf	?__Umul8_16,w
  3357     01DC  00B8               	movwf	___flmul@temp
  3358     01DD  0838               	movf	___flmul@temp,w
  3359     01DE  00A8               	movwf	??___flmul
  3360     01DF  0839               	movf	___flmul@temp+1,w
  3361     01E0  00A9               	movwf	??___flmul+1
  3362     01E1  01AA               	clrf	??___flmul+2
  3363     01E2  01AB               	clrf	??___flmul+3
  3364     01E3  0828               	movf	??___flmul,w
  3365     01E4  07B4               	addwf	___flmul@prod,f
  3366     01E5  0829               	movf	??___flmul+1,w
  3367     01E6  1103               	clrz
  3368     01E7  1803               	skipnc
  3369     01E8  3E01               	addlw	1
  3370     01E9  1903               	skipnz
  3371     01EA  29EC               	goto	u2781
  3372     01EB  07B5               	addwf	___flmul@prod+1,f
  3373     01EC                     u2781:
  3374     01EC  082A               	movf	??___flmul+2,w
  3375     01ED  1103               	clrz
  3376     01EE  1803               	skipnc
  3377     01EF  3E01               	addlw	1
  3378     01F0  1903               	skipnz
  3379     01F1  29F3               	goto	u2782
  3380     01F2  07B6               	addwf	___flmul@prod+2,f
  3381     01F3                     u2782:
  3382     01F3  082B               	movf	??___flmul+3,w
  3383     01F4  1103               	clrz
  3384     01F5  1803               	skipnc
  3385     01F6  3E01               	addlw	1
  3386     01F7  1903               	skipnz
  3387     01F8  29FA               	goto	u2783
  3388     01F9  07B7               	addwf	___flmul@prod+3,f
  3389     01FA                     u2783:
  3390     01FA                     l2060:
  3391     01FA  0822               	movf	___flmul@b+2,w
  3392     01FB  00F2               	movwf	__Umul8_16@multiplicand
  3393     01FC  0825               	movf	___flmul@a+1,w
  3394     01FD  120A  158A  2238  120A  118A  	fcall	__Umul8_16
  3395     0202  0873               	movf	?__Umul8_16+1,w
  3396     0203  1283               	bcf	3,5	;RP0=0, select bank0
  3397     0204  1303               	bcf	3,6	;RP1=0, select bank0
  3398     0205  00B9               	movwf	___flmul@temp+1
  3399     0206  0872               	movf	?__Umul8_16,w
  3400     0207  00B8               	movwf	___flmul@temp
  3401     0208                     l2062:
  3402     0208  0838               	movf	___flmul@temp,w
  3403     0209  00A8               	movwf	??___flmul
  3404     020A  0839               	movf	___flmul@temp+1,w
  3405     020B  00A9               	movwf	??___flmul+1
  3406     020C  01AA               	clrf	??___flmul+2
  3407     020D  01AB               	clrf	??___flmul+3
  3408     020E  0828               	movf	??___flmul,w
  3409     020F  07B4               	addwf	___flmul@prod,f
  3410     0210  0829               	movf	??___flmul+1,w
  3411     0211  1103               	clrz
  3412     0212  1803               	skipnc
  3413     0213  3E01               	addlw	1
  3414     0214  1903               	skipnz
  3415     0215  2A17               	goto	u2791
  3416     0216  07B5               	addwf	___flmul@prod+1,f
  3417     0217                     u2791:
  3418     0217  082A               	movf	??___flmul+2,w
  3419     0218  1103               	clrz
  3420     0219  1803               	skipnc
  3421     021A  3E01               	addlw	1
  3422     021B  1903               	skipnz
  3423     021C  2A1E               	goto	u2792
  3424     021D  07B6               	addwf	___flmul@prod+2,f
  3425     021E                     u2792:
  3426     021E  082B               	movf	??___flmul+3,w
  3427     021F  1103               	clrz
  3428     0220  1803               	skipnc
  3429     0221  3E01               	addlw	1
  3430     0222  1903               	skipnz
  3431     0223  2A25               	goto	u2793
  3432     0224  07B7               	addwf	___flmul@prod+3,f
  3433     0225                     u2793:
  3434     0225  0822               	movf	___flmul@b+2,w
  3435     0226  00F2               	movwf	__Umul8_16@multiplicand
  3436     0227  0826               	movf	___flmul@a+2,w
  3437     0228  120A  158A  2238  120A  118A  	fcall	__Umul8_16
  3438     022D  0873               	movf	?__Umul8_16+1,w
  3439     022E  1283               	bcf	3,5	;RP0=0, select bank0
  3440     022F  1303               	bcf	3,6	;RP1=0, select bank0
  3441     0230  00B9               	movwf	___flmul@temp+1
  3442     0231  0872               	movf	?__Umul8_16,w
  3443     0232  00B8               	movwf	___flmul@temp
  3444     0233                     l2064:
  3445     0233  0838               	movf	___flmul@temp,w
  3446     0234  00A8               	movwf	??___flmul
  3447     0235  0839               	movf	___flmul@temp+1,w
  3448     0236  00A9               	movwf	??___flmul+1
  3449     0237  01AA               	clrf	??___flmul+2
  3450     0238  01AB               	clrf	??___flmul+3
  3451     0239  3008               	movlw	8
  3452     023A                     u2805:
  3453     023A  1003               	clrc
  3454     023B  0DA8               	rlf	??___flmul,f
  3455     023C  0DA9               	rlf	??___flmul+1,f
  3456     023D  0DAA               	rlf	??___flmul+2,f
  3457     023E  0DAB               	rlf	??___flmul+3,f
  3458     023F                     u2800:
  3459     023F  3EFF               	addlw	-1
  3460     0240  1D03               	skipz
  3461     0241  2A3A               	goto	u2805
  3462     0242  0828               	movf	??___flmul,w
  3463     0243  07B4               	addwf	___flmul@prod,f
  3464     0244  0829               	movf	??___flmul+1,w
  3465     0245  1103               	clrz
  3466     0246  1803               	skipnc
  3467     0247  3E01               	addlw	1
  3468     0248  1903               	skipnz
  3469     0249  2A4B               	goto	u2811
  3470     024A  07B5               	addwf	___flmul@prod+1,f
  3471     024B                     u2811:
  3472     024B  082A               	movf	??___flmul+2,w
  3473     024C  1103               	clrz
  3474     024D  1803               	skipnc
  3475     024E  3E01               	addlw	1
  3476     024F  1903               	skipnz
  3477     0250  2A52               	goto	u2812
  3478     0251  07B6               	addwf	___flmul@prod+2,f
  3479     0252                     u2812:
  3480     0252  082B               	movf	??___flmul+3,w
  3481     0253  1103               	clrz
  3482     0254  1803               	skipnc
  3483     0255  3E01               	addlw	1
  3484     0256  1903               	skipnz
  3485     0257  2A59               	goto	u2813
  3486     0258  07B7               	addwf	___flmul@prod+3,f
  3487     0259                     u2813:
  3488     0259                     l2066:
  3489     0259  082E               	movf	___flmul@grs,w
  3490     025A  00A8               	movwf	??___flmul
  3491     025B  082F               	movf	___flmul@grs+1,w
  3492     025C  00A9               	movwf	??___flmul+1
  3493     025D  0830               	movf	___flmul@grs+2,w
  3494     025E  00AA               	movwf	??___flmul+2
  3495     025F  0831               	movf	___flmul@grs+3,w
  3496     0260  00AB               	movwf	??___flmul+3
  3497     0261  3018               	movlw	24
  3498     0262                     u2825:
  3499     0262  1003               	clrc
  3500     0263  0CAB               	rrf	??___flmul+3,f
  3501     0264  0CAA               	rrf	??___flmul+2,f
  3502     0265  0CA9               	rrf	??___flmul+1,f
  3503     0266  0CA8               	rrf	??___flmul,f
  3504     0267                     u2820:
  3505     0267  3EFF               	addlw	-1
  3506     0268  1D03               	skipz
  3507     0269  2A62               	goto	u2825
  3508     026A  0828               	movf	??___flmul,w
  3509     026B  07B4               	addwf	___flmul@prod,f
  3510     026C  0829               	movf	??___flmul+1,w
  3511     026D  1103               	clrz
  3512     026E  1803               	skipnc
  3513     026F  3E01               	addlw	1
  3514     0270  1903               	skipnz
  3515     0271  2A73               	goto	u2831
  3516     0272  07B5               	addwf	___flmul@prod+1,f
  3517     0273                     u2831:
  3518     0273  082A               	movf	??___flmul+2,w
  3519     0274  1103               	clrz
  3520     0275  1803               	skipnc
  3521     0276  3E01               	addlw	1
  3522     0277  1903               	skipnz
  3523     0278  2A7A               	goto	u2832
  3524     0279  07B6               	addwf	___flmul@prod+2,f
  3525     027A                     u2832:
  3526     027A  082B               	movf	??___flmul+3,w
  3527     027B  1103               	clrz
  3528     027C  1803               	skipnc
  3529     027D  3E01               	addlw	1
  3530     027E  1903               	skipnz
  3531     027F  2A81               	goto	u2833
  3532     0280  07B7               	addwf	___flmul@prod+3,f
  3533     0281                     u2833:
  3534     0281                     l2068:
  3535     0281  3008               	movlw	8
  3536     0282  00A8               	movwf	??___flmul
  3537     0283                     u2845:
  3538     0283  1003               	clrc
  3539     0284  0DAE               	rlf	___flmul@grs,f
  3540     0285  0DAF               	rlf	___flmul@grs+1,f
  3541     0286  0DB0               	rlf	___flmul@grs+2,f
  3542     0287  0DB1               	rlf	___flmul@grs+3,f
  3543     0288  0BA8               	decfsz	??___flmul,f
  3544     0289  2A83               	goto	u2845
  3545     028A                     l2070:
  3546     028A  0833               	movf	___flmul@bexp,w
  3547     028B  0732               	addwf	___flmul@aexp,w
  3548     028C  00A8               	movwf	??___flmul
  3549     028D  01A9               	clrf	??___flmul+1
  3550     028E  0DA9               	rlf	??___flmul+1,f
  3551     028F  0828               	movf	??___flmul,w
  3552     0290  3E82               	addlw	130
  3553     0291  00B8               	movwf	___flmul@temp
  3554     0292  0829               	movf	??___flmul+1,w
  3555     0293  1803               	skipnc
  3556     0294  3E01               	addlw	1
  3557     0295  3EFF               	addlw	255
  3558     0296  00B9               	movwf	___flmul@temp+1
  3559     0297  2AB5               	goto	l2082
  3560     0298                     l2072:
  3561     0298  3001               	movlw	1
  3562     0299  00A8               	movwf	??___flmul
  3563     029A                     u2855:
  3564     029A  1003               	clrc
  3565     029B  0DB4               	rlf	___flmul@prod,f
  3566     029C  0DB5               	rlf	___flmul@prod+1,f
  3567     029D  0DB6               	rlf	___flmul@prod+2,f
  3568     029E  0DB7               	rlf	___flmul@prod+3,f
  3569     029F  0BA8               	decfsz	??___flmul,f
  3570     02A0  2A9A               	goto	u2855
  3571     02A1                     l2074:
  3572     02A1  1FB1               	btfss	___flmul@grs+3,7
  3573     02A2  2AA4               	goto	u2861
  3574     02A3  2AA5               	goto	u2860
  3575     02A4                     u2861:
  3576     02A4  2AA6               	goto	l2078
  3577     02A5                     u2860:
  3578     02A5                     l2076:
  3579     02A5  1434               	bsf	___flmul@prod,0
  3580     02A6                     l2078:
  3581     02A6  3001               	movlw	1
  3582     02A7  00A8               	movwf	??___flmul
  3583     02A8                     u2875:
  3584     02A8  1003               	clrc
  3585     02A9  0DAE               	rlf	___flmul@grs,f
  3586     02AA  0DAF               	rlf	___flmul@grs+1,f
  3587     02AB  0DB0               	rlf	___flmul@grs+2,f
  3588     02AC  0DB1               	rlf	___flmul@grs+3,f
  3589     02AD  0BA8               	decfsz	??___flmul,f
  3590     02AE  2AA8               	goto	u2875
  3591     02AF                     l2080:
  3592     02AF  30FF               	movlw	255
  3593     02B0  07B8               	addwf	___flmul@temp,f
  3594     02B1  1803               	skipnc
  3595     02B2  0AB9               	incf	___flmul@temp+1,f
  3596     02B3  30FF               	movlw	255
  3597     02B4  07B9               	addwf	___flmul@temp+1,f
  3598     02B5                     l2082:
  3599     02B5  1FB6               	btfss	___flmul@prod+2,7
  3600     02B6  2AB8               	goto	u2881
  3601     02B7  2AB9               	goto	u2880
  3602     02B8                     u2881:
  3603     02B8  2A98               	goto	l2072
  3604     02B9                     u2880:
  3605     02B9                     l2084:
  3606     02B9  01B2               	clrf	___flmul@aexp
  3607     02BA                     l2086:
  3608     02BA  1FB1               	btfss	___flmul@grs+3,7
  3609     02BB  2ABD               	goto	u2891
  3610     02BC  2ABE               	goto	u2890
  3611     02BD                     u2891:
  3612     02BD  2ADA               	goto	l2094
  3613     02BE                     u2890:
  3614     02BE                     l2088:
  3615     02BE  30FF               	movlw	255
  3616     02BF  052E               	andwf	___flmul@grs,w
  3617     02C0  00A8               	movwf	??___flmul
  3618     02C1  30FF               	movlw	255
  3619     02C2  052F               	andwf	___flmul@grs+1,w
  3620     02C3  00A9               	movwf	??___flmul+1
  3621     02C4  30FF               	movlw	255
  3622     02C5  0530               	andwf	___flmul@grs+2,w
  3623     02C6  00AA               	movwf	??___flmul+2
  3624     02C7  307F               	movlw	127
  3625     02C8  0531               	andwf	___flmul@grs+3,w
  3626     02C9  00AB               	movwf	??___flmul+3
  3627     02CA  082B               	movf	??___flmul+3,w
  3628     02CB  042A               	iorwf	??___flmul+2,w
  3629     02CC  0429               	iorwf	??___flmul+1,w
  3630     02CD  0428               	iorwf	??___flmul,w
  3631     02CE  1903               	skipnz
  3632     02CF  2AD1               	goto	u2901
  3633     02D0  2AD2               	goto	u2900
  3634     02D1                     u2901:
  3635     02D1  2AD5               	goto	l659
  3636     02D2                     u2900:
  3637     02D2                     l2090:
  3638     02D2  01B2               	clrf	___flmul@aexp
  3639     02D3  0AB2               	incf	___flmul@aexp,f
  3640     02D4  2ADA               	goto	l2094
  3641     02D5                     l659:
  3642     02D5  1C34               	btfss	___flmul@prod,0
  3643     02D6  2AD8               	goto	u2911
  3644     02D7  2AD9               	goto	u2910
  3645     02D8                     u2911:
  3646     02D8  2ADA               	goto	l2094
  3647     02D9                     u2910:
  3648     02D9  2AD2               	goto	l2090
  3649     02DA                     l2094:
  3650     02DA  0832               	movf	___flmul@aexp,w
  3651     02DB  1903               	btfsc	3,2
  3652     02DC  2ADE               	goto	u2921
  3653     02DD  2ADF               	goto	u2920
  3654     02DE                     u2921:
  3655     02DE  2B10               	goto	l2104
  3656     02DF                     u2920:
  3657     02DF                     l2096:
  3658     02DF  3001               	movlw	1
  3659     02E0  07B4               	addwf	___flmul@prod,f
  3660     02E1  3000               	movlw	0
  3661     02E2  1803               	skipnc
  3662     02E3  3001               	movlw	1
  3663     02E4  07B5               	addwf	___flmul@prod+1,f
  3664     02E5  3000               	movlw	0
  3665     02E6  1803               	skipnc
  3666     02E7  3001               	movlw	1
  3667     02E8  07B6               	addwf	___flmul@prod+2,f
  3668     02E9  3000               	movlw	0
  3669     02EA  1803               	skipnc
  3670     02EB  3001               	movlw	1
  3671     02EC  07B7               	addwf	___flmul@prod+3,f
  3672     02ED                     l2098:
  3673     02ED  1C37               	btfss	___flmul@prod+3,0
  3674     02EE  2AF0               	goto	u2931
  3675     02EF  2AF1               	goto	u2930
  3676     02F0                     u2931:
  3677     02F0  2B10               	goto	l2104
  3678     02F1                     u2930:
  3679     02F1                     l2100:
  3680     02F1  0834               	movf	___flmul@prod,w
  3681     02F2  00A8               	movwf	??___flmul
  3682     02F3  0835               	movf	___flmul@prod+1,w
  3683     02F4  00A9               	movwf	??___flmul+1
  3684     02F5  0836               	movf	___flmul@prod+2,w
  3685     02F6  00AA               	movwf	??___flmul+2
  3686     02F7  0837               	movf	___flmul@prod+3,w
  3687     02F8  00AB               	movwf	??___flmul+3
  3688     02F9  3001               	movlw	1
  3689     02FA  00AC               	movwf	??___flmul+4
  3690     02FB                     u2945:
  3691     02FB  0D2B               	rlf	??___flmul+3,w
  3692     02FC  0CAB               	rrf	??___flmul+3,f
  3693     02FD  0CAA               	rrf	??___flmul+2,f
  3694     02FE  0CA9               	rrf	??___flmul+1,f
  3695     02FF  0CA8               	rrf	??___flmul,f
  3696     0300                     u2940:
  3697     0300  0BAC               	decfsz	??___flmul+4,f
  3698     0301  2AFB               	goto	u2945
  3699     0302  082B               	movf	??___flmul+3,w
  3700     0303  00B7               	movwf	___flmul@prod+3
  3701     0304  082A               	movf	??___flmul+2,w
  3702     0305  00B6               	movwf	___flmul@prod+2
  3703     0306  0829               	movf	??___flmul+1,w
  3704     0307  00B5               	movwf	___flmul@prod+1
  3705     0308  0828               	movf	??___flmul,w
  3706     0309  00B4               	movwf	___flmul@prod
  3707     030A                     l2102:
  3708     030A  3001               	movlw	1
  3709     030B  07B8               	addwf	___flmul@temp,f
  3710     030C  1803               	skipnc
  3711     030D  0AB9               	incf	___flmul@temp+1,f
  3712     030E  3000               	movlw	0
  3713     030F  07B9               	addwf	___flmul@temp+1,f
  3714     0310                     l2104:
  3715     0310  0839               	movf	___flmul@temp+1,w
  3716     0311  3A80               	xorlw	128
  3717     0312  00FF               	movwf	btemp+1
  3718     0313  3080               	movlw	128
  3719     0314  027F               	subwf	btemp+1,w
  3720     0315  1D03               	skipz
  3721     0316  2B19               	goto	u2955
  3722     0317  30FF               	movlw	255
  3723     0318  0238               	subwf	___flmul@temp,w
  3724     0319                     u2955:
  3725     0319  1C03               	skipc
  3726     031A  2B1C               	goto	u2951
  3727     031B  2B1D               	goto	u2950
  3728     031C                     u2951:
  3729     031C  2B28               	goto	l2108
  3730     031D                     u2950:
  3731     031D                     l2106:
  3732     031D  307F               	movlw	127
  3733     031E  1283               	bcf	3,5	;RP0=0, select bank0
  3734     031F  1303               	bcf	3,6	;RP1=0, select bank0
  3735     0320  00B7               	movwf	___flmul@prod+3
  3736     0321  3080               	movlw	128
  3737     0322  00B6               	movwf	___flmul@prod+2
  3738     0323  3000               	movlw	0
  3739     0324  00B5               	movwf	___flmul@prod+1
  3740     0325  3000               	movlw	0
  3741     0326  00B4               	movwf	___flmul@prod
  3742     0327  2B59               	goto	l665
  3743     0328                     l2108:
  3744     0328  1283               	bcf	3,5	;RP0=0, select bank0
  3745     0329  1303               	bcf	3,6	;RP1=0, select bank0
  3746     032A  0839               	movf	___flmul@temp+1,w
  3747     032B  3A80               	xorlw	128
  3748     032C  00FF               	movwf	btemp+1
  3749     032D  3080               	movlw	128
  3750     032E  027F               	subwf	btemp+1,w
  3751     032F  1D03               	skipz
  3752     0330  2B33               	goto	u2965
  3753     0331  3001               	movlw	1
  3754     0332  0238               	subwf	___flmul@temp,w
  3755     0333                     u2965:
  3756     0333  1803               	skipnc
  3757     0334  2B36               	goto	u2961
  3758     0335  2B37               	goto	u2960
  3759     0336                     u2961:
  3760     0336  2B43               	goto	l2114
  3761     0337                     u2960:
  3762     0337                     l2110:
  3763     0337  3000               	movlw	0
  3764     0338  1283               	bcf	3,5	;RP0=0, select bank0
  3765     0339  1303               	bcf	3,6	;RP1=0, select bank0
  3766     033A  00B7               	movwf	___flmul@prod+3
  3767     033B  3000               	movlw	0
  3768     033C  00B6               	movwf	___flmul@prod+2
  3769     033D  3000               	movlw	0
  3770     033E  00B5               	movwf	___flmul@prod+1
  3771     033F  3000               	movlw	0
  3772     0340  00B4               	movwf	___flmul@prod
  3773     0341                     l2112:
  3774     0341  01AD               	clrf	___flmul@sign
  3775     0342  2B59               	goto	l665
  3776     0343                     l2114:
  3777     0343  1283               	bcf	3,5	;RP0=0, select bank0
  3778     0344  1303               	bcf	3,6	;RP1=0, select bank0
  3779     0345  0838               	movf	___flmul@temp,w
  3780     0346  00B3               	movwf	___flmul@bexp
  3781     0347  30FF               	movlw	255
  3782     0348  05B4               	andwf	___flmul@prod,f
  3783     0349  30FF               	movlw	255
  3784     034A  05B5               	andwf	___flmul@prod+1,f
  3785     034B  307F               	movlw	127
  3786     034C  05B6               	andwf	___flmul@prod+2,f
  3787     034D  3000               	movlw	0
  3788     034E  05B7               	andwf	___flmul@prod+3,f
  3789     034F                     l2116:
  3790     034F  1C33               	btfss	___flmul@bexp,0
  3791     0350  2B52               	goto	u2971
  3792     0351  2B53               	goto	u2970
  3793     0352                     u2971:
  3794     0352  2B54               	goto	l2120
  3795     0353                     u2970:
  3796     0353                     l2118:
  3797     0353  17B6               	bsf	___flmul@prod+2,7
  3798     0354                     l2120:
  3799     0354  0833               	movf	___flmul@bexp,w
  3800     0355  00A8               	movwf	??___flmul
  3801     0356  1003               	clrc
  3802     0357  0C28               	rrf	??___flmul,w
  3803     0358  00B7               	movwf	___flmul@prod+3
  3804     0359                     l665:
  3805     0359  082D               	movf	___flmul@sign,w
  3806     035A  00A8               	movwf	??___flmul
  3807     035B  0828               	movf	??___flmul,w
  3808     035C  04B7               	iorwf	___flmul@prod+3,f
  3809     035D                     l2122:
  3810     035D  0837               	movf	___flmul@prod+3,w
  3811     035E  00A3               	movwf	?___flmul+3
  3812     035F  0836               	movf	___flmul@prod+2,w
  3813     0360  00A2               	movwf	?___flmul+2
  3814     0361  0835               	movf	___flmul@prod+1,w
  3815     0362  00A1               	movwf	?___flmul+1
  3816     0363  0834               	movf	___flmul@prod,w
  3817     0364  00A0               	movwf	?___flmul
  3818     0365                     l653:
  3819     0365  0008               	return
  3820     0366                     __end_of___flmul:
  3821                           
  3822                           	psect	text5
  3823     0A38                     __ptext5:	
  3824 ;; *************** function __Umul8_16 *****************
  3825 ;; Defined at:
  3826 ;;		line 4 in file "C:\Program Files\Microchip\xc8\v2.40\pic\sources\c90\common\Umul8_16.c"
  3827 ;; Parameters:    Size  Location     Type
  3828 ;;  multiplier      1    wreg     unsigned char 
  3829 ;;  multiplicand    1    2[COMMON] unsigned char 
  3830 ;; Auto vars:     Size  Location     Type
  3831 ;;  multiplier      1   10[COMMON] unsigned char 
  3832 ;;  word_mpld       2    8[COMMON] unsigned int 
  3833 ;;  product         2    6[COMMON] unsigned int 
  3834 ;; Return value:  Size  Location     Type
  3835 ;;                  2    2[COMMON] unsigned int 
  3836 ;; Registers used:
  3837 ;;		wreg, status,2, status,0
  3838 ;; Tracked objects:
  3839 ;;		On entry : 0/0
  3840 ;;		On exit  : 0/0
  3841 ;;		Unchanged: 0/0
  3842 ;; Data sizes:     COMMON   BANK0   BANK1   BANK3   BANK2
  3843 ;;      Params:         2       0       0       0       0
  3844 ;;      Locals:         5       0       0       0       0
  3845 ;;      Temps:          2       0       0       0       0
  3846 ;;      Totals:         9       0       0       0       0
  3847 ;;Total ram usage:        9 bytes
  3848 ;; Hardware stack levels used: 1
  3849 ;; Hardware stack levels required when called: 1
  3850 ;; This function calls:
  3851 ;;		Nothing
  3852 ;; This function is called by:
  3853 ;;		___flmul
  3854 ;; This function uses a non-reentrant model
  3855 ;;
  3856                           
  3857     0A38                     __Umul8_16:	
  3858                           ;psect for function __Umul8_16
  3859                           
  3860                           
  3861                           ;incstack = 0
  3862                           ; Regs used in __Umul8_16: [wreg+status,2+status,0]
  3863                           ;__Umul8_16@multiplier stored from wreg
  3864     0A38  00FA               	movwf	__Umul8_16@multiplier
  3865     0A39                     l1832:
  3866     0A39  01F6               	clrf	__Umul8_16@product
  3867     0A3A  01F7               	clrf	__Umul8_16@product+1
  3868     0A3B                     l1834:
  3869     0A3B  0872               	movf	__Umul8_16@multiplicand,w
  3870     0A3C  00F4               	movwf	??__Umul8_16
  3871     0A3D  01F5               	clrf	??__Umul8_16+1
  3872     0A3E  0874               	movf	??__Umul8_16,w
  3873     0A3F  00F8               	movwf	__Umul8_16@word_mpld
  3874     0A40  0875               	movf	??__Umul8_16+1,w
  3875     0A41  00F9               	movwf	__Umul8_16@word_mpld+1
  3876     0A42                     l1836:
  3877     0A42  1C7A               	btfss	__Umul8_16@multiplier,0
  3878     0A43  2A45               	goto	u2271
  3879     0A44  2A46               	goto	u2270
  3880     0A45                     u2271:
  3881     0A45  2A4C               	goto	l672
  3882     0A46                     u2270:
  3883     0A46                     l1838:
  3884     0A46  0878               	movf	__Umul8_16@word_mpld,w
  3885     0A47  07F6               	addwf	__Umul8_16@product,f
  3886     0A48  1803               	skipnc
  3887     0A49  0AF7               	incf	__Umul8_16@product+1,f
  3888     0A4A  0879               	movf	__Umul8_16@word_mpld+1,w
  3889     0A4B  07F7               	addwf	__Umul8_16@product+1,f
  3890     0A4C                     l672:
  3891     0A4C  3001               	movlw	1
  3892     0A4D                     u2285:
  3893     0A4D  1003               	clrc
  3894     0A4E  0DF8               	rlf	__Umul8_16@word_mpld,f
  3895     0A4F  0DF9               	rlf	__Umul8_16@word_mpld+1,f
  3896     0A50  3EFF               	addlw	-1
  3897     0A51  1D03               	skipz
  3898     0A52  2A4D               	goto	u2285
  3899     0A53  1003               	clrc
  3900     0A54  0CFA               	rrf	__Umul8_16@multiplier,f
  3901     0A55                     l1840:
  3902     0A55  087A               	movf	__Umul8_16@multiplier,w
  3903     0A56  1D03               	btfss	3,2
  3904     0A57  2A59               	goto	u2291
  3905     0A58  2A5A               	goto	u2290
  3906     0A59                     u2291:
  3907     0A59  2A42               	goto	l1836
  3908     0A5A                     u2290:
  3909     0A5A                     l1842:
  3910     0A5A  0877               	movf	__Umul8_16@product+1,w
  3911     0A5B  00F3               	movwf	?__Umul8_16+1
  3912     0A5C  0876               	movf	__Umul8_16@product,w
  3913     0A5D  00F2               	movwf	?__Umul8_16
  3914     0A5E                     l674:
  3915     0A5E  0008               	return
  3916     0A5F                     __end_of__Umul8_16:
  3917                           
  3918                           	psect	text6
  3919     0C4A                     __ptext6:	
  3920 ;; *************** function ___flge *****************
  3921 ;; Defined at:
  3922 ;;		line 4 in file "C:\Program Files\Microchip\xc8\v2.40\pic\sources\c90\common\flge.c"
  3923 ;; Parameters:    Size  Location     Type
  3924 ;;  ff1             4    2[COMMON] unsigned int 
  3925 ;;  ff2             4    6[COMMON] unsigned int 
  3926 ;; Auto vars:     Size  Location     Type
  3927 ;;		None
  3928 ;; Return value:  Size  Location     Type
  3929 ;;		None               void
  3930 ;; Registers used:
  3931 ;;		wreg, status,2, status,0
  3932 ;; Tracked objects:
  3933 ;;		On entry : 0/0
  3934 ;;		On exit  : 0/0
  3935 ;;		Unchanged: 0/0
  3936 ;; Data sizes:     COMMON   BANK0   BANK1   BANK3   BANK2
  3937 ;;      Params:         8       0       0       0       0
  3938 ;;      Locals:         0       0       0       0       0
  3939 ;;      Temps:          0       4       0       0       0
  3940 ;;      Totals:         8       4       0       0       0
  3941 ;;Total ram usage:       12 bytes
  3942 ;; Hardware stack levels used: 1
  3943 ;; Hardware stack levels required when called: 1
  3944 ;; This function calls:
  3945 ;;		Nothing
  3946 ;; This function is called by:
  3947 ;;		_pid_controller
  3948 ;; This function uses a non-reentrant model
  3949 ;;
  3950                           
  3951     0C4A                     ___flge:	
  3952                           ;psect for function ___flge
  3953                           
  3954     0C4A                     l1912:	
  3955                           ;incstack = 0
  3956                           ; Regs used in ___flge: [wreg+status,2+status,0]
  3957                           
  3958     0C4A  3000               	movlw	0
  3959     0C4B  0572               	andwf	___flge@ff1,w
  3960     0C4C  1283               	bcf	3,5	;RP0=0, select bank0
  3961     0C4D  1303               	bcf	3,6	;RP1=0, select bank0
  3962     0C4E  00A0               	movwf	??___flge
  3963     0C4F  3000               	movlw	0
  3964     0C50  0573               	andwf	___flge@ff1+1,w
  3965     0C51  00A1               	movwf	??___flge+1
  3966     0C52  3080               	movlw	128
  3967     0C53  0574               	andwf	___flge@ff1+2,w
  3968     0C54  00A2               	movwf	??___flge+2
  3969     0C55  307F               	movlw	127
  3970     0C56  0575               	andwf	___flge@ff1+3,w
  3971     0C57  00A3               	movwf	??___flge+3
  3972     0C58  0823               	movf	??___flge+3,w
  3973     0C59  0422               	iorwf	??___flge+2,w
  3974     0C5A  0421               	iorwf	??___flge+1,w
  3975     0C5B  0420               	iorwf	??___flge,w
  3976     0C5C  1D03               	skipz
  3977     0C5D  2C5F               	goto	u2411
  3978     0C5E  2C60               	goto	u2410
  3979     0C5F                     u2411:
  3980     0C5F  2C68               	goto	l438
  3981     0C60                     u2410:
  3982     0C60                     l1914:
  3983     0C60  3000               	movlw	0
  3984     0C61  00F5               	movwf	___flge@ff1+3
  3985     0C62  3000               	movlw	0
  3986     0C63  00F4               	movwf	___flge@ff1+2
  3987     0C64  3000               	movlw	0
  3988     0C65  00F3               	movwf	___flge@ff1+1
  3989     0C66  3000               	movlw	0
  3990     0C67  00F2               	movwf	___flge@ff1
  3991     0C68                     l438:
  3992     0C68  3000               	movlw	0
  3993     0C69  0576               	andwf	___flge@ff2,w
  3994     0C6A  00A0               	movwf	??___flge
  3995     0C6B  3000               	movlw	0
  3996     0C6C  0577               	andwf	___flge@ff2+1,w
  3997     0C6D  00A1               	movwf	??___flge+1
  3998     0C6E  3080               	movlw	128
  3999     0C6F  0578               	andwf	___flge@ff2+2,w
  4000     0C70  00A2               	movwf	??___flge+2
  4001     0C71  307F               	movlw	127
  4002     0C72  0579               	andwf	___flge@ff2+3,w
  4003     0C73  00A3               	movwf	??___flge+3
  4004     0C74  0823               	movf	??___flge+3,w
  4005     0C75  0422               	iorwf	??___flge+2,w
  4006     0C76  0421               	iorwf	??___flge+1,w
  4007     0C77  0420               	iorwf	??___flge,w
  4008     0C78  1D03               	skipz
  4009     0C79  2C7B               	goto	u2421
  4010     0C7A  2C7C               	goto	u2420
  4011     0C7B                     u2421:
  4012     0C7B  2C84               	goto	l1918
  4013     0C7C                     u2420:
  4014     0C7C                     l1916:
  4015     0C7C  3000               	movlw	0
  4016     0C7D  00F9               	movwf	___flge@ff2+3
  4017     0C7E  3000               	movlw	0
  4018     0C7F  00F8               	movwf	___flge@ff2+2
  4019     0C80  3000               	movlw	0
  4020     0C81  00F7               	movwf	___flge@ff2+1
  4021     0C82  3000               	movlw	0
  4022     0C83  00F6               	movwf	___flge@ff2
  4023     0C84                     l1918:
  4024     0C84  1FF5               	btfss	___flge@ff1+3,7
  4025     0C85  2C87               	goto	u2431
  4026     0C86  2C88               	goto	u2430
  4027     0C87                     u2431:
  4028     0C87  2CAC               	goto	l1922
  4029     0C88                     u2430:
  4030     0C88                     l1920:
  4031     0C88  3000               	movlw	0
  4032     0C89  00A0               	movwf	??___flge
  4033     0C8A  3000               	movlw	0
  4034     0C8B  00A1               	movwf	??___flge+1
  4035     0C8C  3000               	movlw	0
  4036     0C8D  00A2               	movwf	??___flge+2
  4037     0C8E  3080               	movlw	128
  4038     0C8F  00A3               	movwf	??___flge+3
  4039     0C90  0872               	movf	___flge@ff1,w
  4040     0C91  02A0               	subwf	??___flge,f
  4041     0C92  0873               	movf	___flge@ff1+1,w
  4042     0C93  1C03               	skipc
  4043     0C94  0F73               	incfsz	___flge@ff1+1,w
  4044     0C95  2C97               	goto	u2441
  4045     0C96  2C98               	goto	u2442
  4046     0C97                     u2441:
  4047     0C97  02A1               	subwf	??___flge+1,f
  4048     0C98                     u2442:
  4049     0C98  0874               	movf	___flge@ff1+2,w
  4050     0C99  1C03               	skipc
  4051     0C9A  0F74               	incfsz	___flge@ff1+2,w
  4052     0C9B  2C9D               	goto	u2443
  4053     0C9C  2C9E               	goto	u2444
  4054     0C9D                     u2443:
  4055     0C9D  02A2               	subwf	??___flge+2,f
  4056     0C9E                     u2444:
  4057     0C9E  0875               	movf	___flge@ff1+3,w
  4058     0C9F  1C03               	skipc
  4059     0CA0  0F75               	incfsz	___flge@ff1+3,w
  4060     0CA1  2CA3               	goto	u2445
  4061     0CA2  2CA4               	goto	u2446
  4062     0CA3                     u2445:
  4063     0CA3  02A3               	subwf	??___flge+3,f
  4064     0CA4                     u2446:
  4065     0CA4  0823               	movf	??___flge+3,w
  4066     0CA5  00F5               	movwf	___flge@ff1+3
  4067     0CA6  0822               	movf	??___flge+2,w
  4068     0CA7  00F4               	movwf	___flge@ff1+2
  4069     0CA8  0821               	movf	??___flge+1,w
  4070     0CA9  00F3               	movwf	___flge@ff1+1
  4071     0CAA  0820               	movf	??___flge,w
  4072     0CAB  00F2               	movwf	___flge@ff1
  4073     0CAC                     l1922:
  4074     0CAC  1FF9               	btfss	___flge@ff2+3,7
  4075     0CAD  2CAF               	goto	u2451
  4076     0CAE  2CB0               	goto	u2450
  4077     0CAF                     u2451:
  4078     0CAF  2CD4               	goto	l441
  4079     0CB0                     u2450:
  4080     0CB0                     l1924:
  4081     0CB0  3000               	movlw	0
  4082     0CB1  00A0               	movwf	??___flge
  4083     0CB2  3000               	movlw	0
  4084     0CB3  00A1               	movwf	??___flge+1
  4085     0CB4  3000               	movlw	0
  4086     0CB5  00A2               	movwf	??___flge+2
  4087     0CB6  3080               	movlw	128
  4088     0CB7  00A3               	movwf	??___flge+3
  4089     0CB8  0876               	movf	___flge@ff2,w
  4090     0CB9  02A0               	subwf	??___flge,f
  4091     0CBA  0877               	movf	___flge@ff2+1,w
  4092     0CBB  1C03               	skipc
  4093     0CBC  0F77               	incfsz	___flge@ff2+1,w
  4094     0CBD  2CBF               	goto	u2461
  4095     0CBE  2CC0               	goto	u2462
  4096     0CBF                     u2461:
  4097     0CBF  02A1               	subwf	??___flge+1,f
  4098     0CC0                     u2462:
  4099     0CC0  0878               	movf	___flge@ff2+2,w
  4100     0CC1  1C03               	skipc
  4101     0CC2  0F78               	incfsz	___flge@ff2+2,w
  4102     0CC3  2CC5               	goto	u2463
  4103     0CC4  2CC6               	goto	u2464
  4104     0CC5                     u2463:
  4105     0CC5  02A2               	subwf	??___flge+2,f
  4106     0CC6                     u2464:
  4107     0CC6  0879               	movf	___flge@ff2+3,w
  4108     0CC7  1C03               	skipc
  4109     0CC8  0F79               	incfsz	___flge@ff2+3,w
  4110     0CC9  2CCB               	goto	u2465
  4111     0CCA  2CCC               	goto	u2466
  4112     0CCB                     u2465:
  4113     0CCB  02A3               	subwf	??___flge+3,f
  4114     0CCC                     u2466:
  4115     0CCC  0823               	movf	??___flge+3,w
  4116     0CCD  00F9               	movwf	___flge@ff2+3
  4117     0CCE  0822               	movf	??___flge+2,w
  4118     0CCF  00F8               	movwf	___flge@ff2+2
  4119     0CD0  0821               	movf	??___flge+1,w
  4120     0CD1  00F7               	movwf	___flge@ff2+1
  4121     0CD2  0820               	movf	??___flge,w
  4122     0CD3  00F6               	movwf	___flge@ff2
  4123     0CD4                     l441:
  4124     0CD4  3080               	movlw	128
  4125     0CD5  06F5               	xorwf	___flge@ff1+3,f
  4126     0CD6  3080               	movlw	128
  4127     0CD7  06F9               	xorwf	___flge@ff2+3,f
  4128     0CD8  0879               	movf	___flge@ff2+3,w
  4129     0CD9  0275               	subwf	___flge@ff1+3,w
  4130     0CDA  1D03               	skipz
  4131     0CDB  2CE6               	goto	u2475
  4132     0CDC  0878               	movf	___flge@ff2+2,w
  4133     0CDD  0274               	subwf	___flge@ff1+2,w
  4134     0CDE  1D03               	skipz
  4135     0CDF  2CE6               	goto	u2475
  4136     0CE0  0877               	movf	___flge@ff2+1,w
  4137     0CE1  0273               	subwf	___flge@ff1+1,w
  4138     0CE2  1D03               	skipz
  4139     0CE3  2CE6               	goto	u2475
  4140     0CE4  0876               	movf	___flge@ff2,w
  4141     0CE5  0272               	subwf	___flge@ff1,w
  4142     0CE6                     u2475:
  4143     0CE6  1803               	skipnc
  4144     0CE7  2CE9               	goto	u2471
  4145     0CE8  2CEA               	goto	u2470
  4146     0CE9                     u2471:
  4147     0CE9  2CEC               	goto	l1928
  4148     0CEA                     u2470:
  4149     0CEA                     l1926:
  4150     0CEA  1003               	clrc
  4151     0CEB  2CED               	goto	l442
  4152     0CEC                     l1928:
  4153     0CEC  1403               	setc
  4154     0CED                     l442:
  4155     0CED  0008               	return
  4156     0CEE                     __end_of___flge:
  4157                           
  4158                           	psect	text7
  4159     0CEE                     __ptext7:	
  4160 ;; *************** function ___xxtofl *****************
  4161 ;; Defined at:
  4162 ;;		line 10 in file "C:\Program Files\Microchip\xc8\v2.40\pic\sources\c90\common\xxtofl.c"
  4163 ;; Parameters:    Size  Location     Type
  4164 ;;  sign            1    wreg     unsigned char 
  4165 ;;  val             4    2[COMMON] long 
  4166 ;; Auto vars:     Size  Location     Type
  4167 ;;  sign            1    0[BANK0 ] unsigned char 
  4168 ;;  arg             4    2[BANK0 ] unsigned long 
  4169 ;;  exp             1    1[BANK0 ] unsigned char 
  4170 ;; Return value:  Size  Location     Type
  4171 ;;                  4    2[COMMON] unsigned char 
  4172 ;; Registers used:
  4173 ;;		wreg, status,2, status,0
  4174 ;; Tracked objects:
  4175 ;;		On entry : 0/0
  4176 ;;		On exit  : 0/0
  4177 ;;		Unchanged: 0/0
  4178 ;; Data sizes:     COMMON   BANK0   BANK1   BANK3   BANK2
  4179 ;;      Params:         4       0       0       0       0
  4180 ;;      Locals:         0       6       0       0       0
  4181 ;;      Temps:          4       0       0       0       0
  4182 ;;      Totals:         8       6       0       0       0
  4183 ;;Total ram usage:       14 bytes
  4184 ;; Hardware stack levels used: 1
  4185 ;; Hardware stack levels required when called: 1
  4186 ;; This function calls:
  4187 ;;		Nothing
  4188 ;; This function is called by:
  4189 ;;		_main
  4190 ;; This function uses a non-reentrant model
  4191 ;;
  4192                           
  4193     0CEE                     ___xxtofl:	
  4194                           ;psect for function ___xxtofl
  4195                           
  4196                           
  4197                           ;incstack = 0
  4198                           ; Regs used in ___xxtofl: [wreg+status,2+status,0]
  4199                           ;___xxtofl@sign stored from wreg
  4200     0CEE  1283               	bcf	3,5	;RP0=0, select bank0
  4201     0CEF  1303               	bcf	3,6	;RP1=0, select bank0
  4202     0CF0  00A0               	movwf	___xxtofl@sign
  4203     0CF1                     l2274:
  4204     0CF1  0820               	movf	___xxtofl@sign,w
  4205     0CF2  1903               	btfsc	3,2
  4206     0CF3  2CF5               	goto	u3191
  4207     0CF4  2CF6               	goto	u3190
  4208     0CF5                     u3191:
  4209     0CF5  2D0A               	goto	l2280
  4210     0CF6                     u3190:
  4211     0CF6                     l2276:
  4212     0CF6  1FF5               	btfss	___xxtofl@val+3,7
  4213     0CF7  2CF9               	goto	u3201
  4214     0CF8  2CFA               	goto	u3200
  4215     0CF9                     u3201:
  4216     0CF9  2D0A               	goto	l2280
  4217     0CFA                     u3200:
  4218     0CFA                     l2278:
  4219     0CFA  0972               	comf	___xxtofl@val,w
  4220     0CFB  00A2               	movwf	___xxtofl@arg
  4221     0CFC  0973               	comf	___xxtofl@val+1,w
  4222     0CFD  00A3               	movwf	___xxtofl@arg+1
  4223     0CFE  0974               	comf	___xxtofl@val+2,w
  4224     0CFF  00A4               	movwf	___xxtofl@arg+2
  4225     0D00  0975               	comf	___xxtofl@val+3,w
  4226     0D01  00A5               	movwf	___xxtofl@arg+3
  4227     0D02  0AA2               	incf	___xxtofl@arg,f
  4228     0D03  1903               	skipnz
  4229     0D04  0AA3               	incf	___xxtofl@arg+1,f
  4230     0D05  1903               	skipnz
  4231     0D06  0AA4               	incf	___xxtofl@arg+2,f
  4232     0D07  1903               	skipnz
  4233     0D08  0AA5               	incf	___xxtofl@arg+3,f
  4234     0D09  2D12               	goto	l697
  4235     0D0A                     l2280:
  4236     0D0A  0875               	movf	___xxtofl@val+3,w
  4237     0D0B  00A5               	movwf	___xxtofl@arg+3
  4238     0D0C  0874               	movf	___xxtofl@val+2,w
  4239     0D0D  00A4               	movwf	___xxtofl@arg+2
  4240     0D0E  0873               	movf	___xxtofl@val+1,w
  4241     0D0F  00A3               	movwf	___xxtofl@arg+1
  4242     0D10  0872               	movf	___xxtofl@val,w
  4243     0D11  00A2               	movwf	___xxtofl@arg
  4244     0D12                     l697:
  4245     0D12  0875               	movf	___xxtofl@val+3,w
  4246     0D13  0474               	iorwf	___xxtofl@val+2,w
  4247     0D14  0473               	iorwf	___xxtofl@val+1,w
  4248     0D15  0472               	iorwf	___xxtofl@val,w
  4249     0D16  1D03               	skipz
  4250     0D17  2D19               	goto	u3211
  4251     0D18  2D1A               	goto	u3210
  4252     0D19                     u3211:
  4253     0D19  2D23               	goto	l2286
  4254     0D1A                     u3210:
  4255     0D1A                     l2282:
  4256     0D1A  3000               	movlw	0
  4257     0D1B  00F5               	movwf	?___xxtofl+3
  4258     0D1C  3000               	movlw	0
  4259     0D1D  00F4               	movwf	?___xxtofl+2
  4260     0D1E  3000               	movlw	0
  4261     0D1F  00F3               	movwf	?___xxtofl+1
  4262     0D20  3000               	movlw	0
  4263     0D21  00F2               	movwf	?___xxtofl
  4264     0D22  2DA7               	goto	l699
  4265     0D23                     l2286:
  4266     0D23  3096               	movlw	150
  4267     0D24  00A1               	movwf	___xxtofl@exp
  4268     0D25  2D33               	goto	l2290
  4269     0D26                     l2288:
  4270     0D26  3001               	movlw	1
  4271     0D27  00F6               	movwf	??___xxtofl
  4272     0D28  0876               	movf	??___xxtofl,w
  4273     0D29  07A1               	addwf	___xxtofl@exp,f
  4274     0D2A  3001               	movlw	1
  4275     0D2B                     u3225:
  4276     0D2B  1003               	clrc
  4277     0D2C  0CA5               	rrf	___xxtofl@arg+3,f
  4278     0D2D  0CA4               	rrf	___xxtofl@arg+2,f
  4279     0D2E  0CA3               	rrf	___xxtofl@arg+1,f
  4280     0D2F  0CA2               	rrf	___xxtofl@arg,f
  4281     0D30  3EFF               	addlw	-1
  4282     0D31  1D03               	skipz
  4283     0D32  2D2B               	goto	u3225
  4284     0D33                     l2290:
  4285     0D33  30FE               	movlw	254
  4286     0D34  0525               	andwf	___xxtofl@arg+3,w
  4287     0D35  1D03               	btfss	3,2
  4288     0D36  2D38               	goto	u3231
  4289     0D37  2D39               	goto	u3230
  4290     0D38                     u3231:
  4291     0D38  2D26               	goto	l2288
  4292     0D39                     u3230:
  4293     0D39  2D55               	goto	l703
  4294     0D3A                     l2292:
  4295     0D3A  3001               	movlw	1
  4296     0D3B  00F6               	movwf	??___xxtofl
  4297     0D3C  0876               	movf	??___xxtofl,w
  4298     0D3D  07A1               	addwf	___xxtofl@exp,f
  4299     0D3E                     l2294:
  4300     0D3E  3001               	movlw	1
  4301     0D3F  07A2               	addwf	___xxtofl@arg,f
  4302     0D40  3000               	movlw	0
  4303     0D41  1803               	skipnc
  4304     0D42  3001               	movlw	1
  4305     0D43  07A3               	addwf	___xxtofl@arg+1,f
  4306     0D44  3000               	movlw	0
  4307     0D45  1803               	skipnc
  4308     0D46  3001               	movlw	1
  4309     0D47  07A4               	addwf	___xxtofl@arg+2,f
  4310     0D48  3000               	movlw	0
  4311     0D49  1803               	skipnc
  4312     0D4A  3001               	movlw	1
  4313     0D4B  07A5               	addwf	___xxtofl@arg+3,f
  4314     0D4C                     l2296:
  4315     0D4C  3001               	movlw	1
  4316     0D4D                     u3245:
  4317     0D4D  1003               	clrc
  4318     0D4E  0CA5               	rrf	___xxtofl@arg+3,f
  4319     0D4F  0CA4               	rrf	___xxtofl@arg+2,f
  4320     0D50  0CA3               	rrf	___xxtofl@arg+1,f
  4321     0D51  0CA2               	rrf	___xxtofl@arg,f
  4322     0D52  3EFF               	addlw	-1
  4323     0D53  1D03               	skipz
  4324     0D54  2D4D               	goto	u3245
  4325     0D55                     l703:
  4326     0D55  30FF               	movlw	255
  4327     0D56  0525               	andwf	___xxtofl@arg+3,w
  4328     0D57  1D03               	btfss	3,2
  4329     0D58  2D5A               	goto	u3251
  4330     0D59  2D5B               	goto	u3250
  4331     0D5A                     u3251:
  4332     0D5A  2D3A               	goto	l2292
  4333     0D5B                     u3250:
  4334     0D5B  2D67               	goto	l2300
  4335     0D5C                     l2298:
  4336     0D5C  3001               	movlw	1
  4337     0D5D  02A1               	subwf	___xxtofl@exp,f
  4338     0D5E  3001               	movlw	1
  4339     0D5F  00F6               	movwf	??___xxtofl
  4340     0D60                     u3265:
  4341     0D60  1003               	clrc
  4342     0D61  0DA2               	rlf	___xxtofl@arg,f
  4343     0D62  0DA3               	rlf	___xxtofl@arg+1,f
  4344     0D63  0DA4               	rlf	___xxtofl@arg+2,f
  4345     0D64  0DA5               	rlf	___xxtofl@arg+3,f
  4346     0D65  0BF6               	decfsz	??___xxtofl,f
  4347     0D66  2D60               	goto	u3265
  4348     0D67                     l2300:
  4349     0D67  1BA4               	btfsc	___xxtofl@arg+2,7
  4350     0D68  2D6A               	goto	u3271
  4351     0D69  2D6B               	goto	u3270
  4352     0D6A                     u3271:
  4353     0D6A  2D71               	goto	l710
  4354     0D6B                     u3270:
  4355     0D6B                     l2302:
  4356     0D6B  3002               	movlw	2
  4357     0D6C  0221               	subwf	___xxtofl@exp,w
  4358     0D6D  1803               	skipnc
  4359     0D6E  2D70               	goto	u3281
  4360     0D6F  2D71               	goto	u3280
  4361     0D70                     u3281:
  4362     0D70  2D5C               	goto	l2298
  4363     0D71                     u3280:
  4364     0D71                     l710:
  4365     0D71  1821               	btfsc	___xxtofl@exp,0
  4366     0D72  2D74               	goto	u3291
  4367     0D73  2D75               	goto	u3290
  4368     0D74                     u3291:
  4369     0D74  2D7D               	goto	l711
  4370     0D75                     u3290:
  4371     0D75                     l2304:
  4372     0D75  30FF               	movlw	255
  4373     0D76  05A2               	andwf	___xxtofl@arg,f
  4374     0D77  30FF               	movlw	255
  4375     0D78  05A3               	andwf	___xxtofl@arg+1,f
  4376     0D79  307F               	movlw	127
  4377     0D7A  05A4               	andwf	___xxtofl@arg+2,f
  4378     0D7B  30FF               	movlw	255
  4379     0D7C  05A5               	andwf	___xxtofl@arg+3,f
  4380     0D7D                     l711:
  4381     0D7D  1003               	clrc
  4382     0D7E  0CA1               	rrf	___xxtofl@exp,f
  4383     0D7F                     l2306:
  4384     0D7F  0821               	movf	___xxtofl@exp,w
  4385     0D80  00F6               	movwf	??___xxtofl
  4386     0D81  01F7               	clrf	??___xxtofl+1
  4387     0D82  01F8               	clrf	??___xxtofl+2
  4388     0D83  01F9               	clrf	??___xxtofl+3
  4389     0D84  3018               	movlw	24
  4390     0D85                     u3305:
  4391     0D85  1003               	clrc
  4392     0D86  0DF6               	rlf	??___xxtofl,f
  4393     0D87  0DF7               	rlf	??___xxtofl+1,f
  4394     0D88  0DF8               	rlf	??___xxtofl+2,f
  4395     0D89  0DF9               	rlf	??___xxtofl+3,f
  4396     0D8A                     u3300:
  4397     0D8A  3EFF               	addlw	-1
  4398     0D8B  1D03               	skipz
  4399     0D8C  2D85               	goto	u3305
  4400     0D8D  0876               	movf	??___xxtofl,w
  4401     0D8E  04A2               	iorwf	___xxtofl@arg,f
  4402     0D8F  0877               	movf	??___xxtofl+1,w
  4403     0D90  04A3               	iorwf	___xxtofl@arg+1,f
  4404     0D91  0878               	movf	??___xxtofl+2,w
  4405     0D92  04A4               	iorwf	___xxtofl@arg+2,f
  4406     0D93  0879               	movf	??___xxtofl+3,w
  4407     0D94  04A5               	iorwf	___xxtofl@arg+3,f
  4408     0D95                     l2308:
  4409     0D95  0820               	movf	___xxtofl@sign,w
  4410     0D96  1903               	btfsc	3,2
  4411     0D97  2D99               	goto	u3311
  4412     0D98  2D9A               	goto	u3310
  4413     0D99                     u3311:
  4414     0D99  2D9F               	goto	l2314
  4415     0D9A                     u3310:
  4416     0D9A                     l2310:
  4417     0D9A  1FF5               	btfss	___xxtofl@val+3,7
  4418     0D9B  2D9D               	goto	u3321
  4419     0D9C  2D9E               	goto	u3320
  4420     0D9D                     u3321:
  4421     0D9D  2D9F               	goto	l2314
  4422     0D9E                     u3320:
  4423     0D9E                     l2312:
  4424     0D9E  17A5               	bsf	___xxtofl@arg+3,7
  4425     0D9F                     l2314:
  4426     0D9F  0825               	movf	___xxtofl@arg+3,w
  4427     0DA0  00F5               	movwf	?___xxtofl+3
  4428     0DA1  0824               	movf	___xxtofl@arg+2,w
  4429     0DA2  00F4               	movwf	?___xxtofl+2
  4430     0DA3  0823               	movf	___xxtofl@arg+1,w
  4431     0DA4  00F3               	movwf	?___xxtofl+1
  4432     0DA5  0822               	movf	___xxtofl@arg,w
  4433     0DA6  00F2               	movwf	?___xxtofl
  4434     0DA7                     l699:
  4435     0DA7  0008               	return
  4436     0DA8                     __end_of___xxtofl:
  4437                           
  4438                           	psect	text8
  4439     0BD2                     __ptext8:	
  4440 ;; *************** function ___fltol *****************
  4441 ;; Defined at:
  4442 ;;		line 43 in file "C:\Program Files\Microchip\xc8\v2.40\pic\sources\c90\common\fltol.c"
  4443 ;; Parameters:    Size  Location     Type
  4444 ;;  f1              4   70[BANK0 ] unsigned char 
  4445 ;; Auto vars:     Size  Location     Type
  4446 ;;  exp1            1   79[BANK0 ] unsigned char 
  4447 ;;  sign1           1   78[BANK0 ] unsigned char 
  4448 ;; Return value:  Size  Location     Type
  4449 ;;                  4   70[BANK0 ] long 
  4450 ;; Registers used:
  4451 ;;		wreg, status,2, status,0
  4452 ;; Tracked objects:
  4453 ;;		On entry : 0/0
  4454 ;;		On exit  : 0/0
  4455 ;;		Unchanged: 0/0
  4456 ;; Data sizes:     COMMON   BANK0   BANK1   BANK3   BANK2
  4457 ;;      Params:         0       4       0       0       0
  4458 ;;      Locals:         0       2       0       0       0
  4459 ;;      Temps:          0       4       0       0       0
  4460 ;;      Totals:         0      10       0       0       0
  4461 ;;Total ram usage:       10 bytes
  4462 ;; Hardware stack levels used: 1
  4463 ;; Hardware stack levels required when called: 1
  4464 ;; This function calls:
  4465 ;;		Nothing
  4466 ;; This function is called by:
  4467 ;;		_main
  4468 ;; This function uses a non-reentrant model
  4469 ;;
  4470                           
  4471     0BD2                     ___fltol:	
  4472                           ;psect for function ___fltol
  4473                           
  4474     0BD2                     l2238:	
  4475                           ;incstack = 0
  4476                           ; Regs used in ___fltol: [wreg+status,2+status,0]
  4477                           
  4478     0BD2  1003               	clrc
  4479     0BD3  1283               	bcf	3,5	;RP0=0, select bank0
  4480     0BD4  1303               	bcf	3,6	;RP1=0, select bank0
  4481     0BD5  0D68               	rlf	___fltol@f1+2,w
  4482     0BD6  0D69               	rlf	___fltol@f1+3,w
  4483     0BD7  00EF               	movwf	___fltol@exp1
  4484     0BD8  086F               	movf	___fltol@exp1,w
  4485     0BD9  1D03               	btfss	3,2
  4486     0BDA  2BDC               	goto	u3091
  4487     0BDB  2BDD               	goto	u3090
  4488     0BDC                     u3091:
  4489     0BDC  2BE6               	goto	l2244
  4490     0BDD                     u3090:
  4491     0BDD                     l2240:
  4492     0BDD  3000               	movlw	0
  4493     0BDE  00E9               	movwf	?___fltol+3
  4494     0BDF  3000               	movlw	0
  4495     0BE0  00E8               	movwf	?___fltol+2
  4496     0BE1  3000               	movlw	0
  4497     0BE2  00E7               	movwf	?___fltol+1
  4498     0BE3  3000               	movlw	0
  4499     0BE4  00E6               	movwf	?___fltol
  4500     0BE5  2C49               	goto	l450
  4501     0BE6                     l2244:
  4502     0BE6  0866               	movf	___fltol@f1,w
  4503     0BE7  00EA               	movwf	??___fltol
  4504     0BE8  0867               	movf	___fltol@f1+1,w
  4505     0BE9  00EB               	movwf	??___fltol+1
  4506     0BEA  0868               	movf	___fltol@f1+2,w
  4507     0BEB  00EC               	movwf	??___fltol+2
  4508     0BEC  0869               	movf	___fltol@f1+3,w
  4509     0BED  00ED               	movwf	??___fltol+3
  4510     0BEE  301F               	movlw	31
  4511     0BEF                     u3105:
  4512     0BEF  1003               	clrc
  4513     0BF0  0CED               	rrf	??___fltol+3,f
  4514     0BF1  0CEC               	rrf	??___fltol+2,f
  4515     0BF2  0CEB               	rrf	??___fltol+1,f
  4516     0BF3  0CEA               	rrf	??___fltol,f
  4517     0BF4                     u3100:
  4518     0BF4  3EFF               	addlw	-1
  4519     0BF5  1D03               	skipz
  4520     0BF6  2BEF               	goto	u3105
  4521     0BF7  086A               	movf	??___fltol,w
  4522     0BF8  00EE               	movwf	___fltol@sign1
  4523     0BF9                     l2246:
  4524     0BF9  17E8               	bsf	___fltol@f1+2,7
  4525     0BFA                     l2248:
  4526     0BFA  30FF               	movlw	255
  4527     0BFB  05E6               	andwf	___fltol@f1,f
  4528     0BFC  30FF               	movlw	255
  4529     0BFD  05E7               	andwf	___fltol@f1+1,f
  4530     0BFE  30FF               	movlw	255
  4531     0BFF  05E8               	andwf	___fltol@f1+2,f
  4532     0C00  3000               	movlw	0
  4533     0C01  05E9               	andwf	___fltol@f1+3,f
  4534     0C02                     l2250:
  4535     0C02  3096               	movlw	150
  4536     0C03  02EF               	subwf	___fltol@exp1,f
  4537     0C04                     l2252:
  4538     0C04  1FEF               	btfss	___fltol@exp1,7
  4539     0C05  2C07               	goto	u3111
  4540     0C06  2C08               	goto	u3110
  4541     0C07                     u3111:
  4542     0C07  2C22               	goto	l2262
  4543     0C08                     u3110:
  4544     0C08                     l2254:
  4545     0C08  086F               	movf	___fltol@exp1,w
  4546     0C09  3A80               	xorlw	128
  4547     0C0A  3E97               	addlw	151
  4548     0C0B  1803               	skipnc
  4549     0C0C  2C0E               	goto	u3121
  4550     0C0D  2C0F               	goto	u3120
  4551     0C0E                     u3121:
  4552     0C0E  2C10               	goto	l2260
  4553     0C0F                     u3120:
  4554     0C0F  2BDD               	goto	l2240
  4555     0C10                     l2260:
  4556     0C10  3001               	movlw	1
  4557     0C11                     u3135:
  4558     0C11  1003               	clrc
  4559     0C12  0CE9               	rrf	___fltol@f1+3,f
  4560     0C13  0CE8               	rrf	___fltol@f1+2,f
  4561     0C14  0CE7               	rrf	___fltol@f1+1,f
  4562     0C15  0CE6               	rrf	___fltol@f1,f
  4563     0C16  3EFF               	addlw	-1
  4564     0C17  1D03               	skipz
  4565     0C18  2C11               	goto	u3135
  4566     0C19  3001               	movlw	1
  4567     0C1A  00EA               	movwf	??___fltol
  4568     0C1B  086A               	movf	??___fltol,w
  4569     0C1C  07EF               	addwf	___fltol@exp1,f
  4570     0C1D  1D03               	btfss	3,2
  4571     0C1E  2C20               	goto	u3141
  4572     0C1F  2C21               	goto	u3140
  4573     0C20                     u3141:
  4574     0C20  2C10               	goto	l2260
  4575     0C21                     u3140:
  4576     0C21  2C39               	goto	l2270
  4577     0C22                     l2262:
  4578     0C22  3020               	movlw	32
  4579     0C23  026F               	subwf	___fltol@exp1,w
  4580     0C24  1C03               	skipc
  4581     0C25  2C27               	goto	u3151
  4582     0C26  2C28               	goto	u3150
  4583     0C27                     u3151:
  4584     0C27  2C34               	goto	l457
  4585     0C28                     u3150:
  4586     0C28  2BDD               	goto	l2240
  4587     0C29                     l2268:
  4588     0C29  3001               	movlw	1
  4589     0C2A  00EA               	movwf	??___fltol
  4590     0C2B                     u3165:
  4591     0C2B  1003               	clrc
  4592     0C2C  0DE6               	rlf	___fltol@f1,f
  4593     0C2D  0DE7               	rlf	___fltol@f1+1,f
  4594     0C2E  0DE8               	rlf	___fltol@f1+2,f
  4595     0C2F  0DE9               	rlf	___fltol@f1+3,f
  4596     0C30  0BEA               	decfsz	??___fltol,f
  4597     0C31  2C2B               	goto	u3165
  4598     0C32  3001               	movlw	1
  4599     0C33  02EF               	subwf	___fltol@exp1,f
  4600     0C34                     l457:
  4601     0C34  086F               	movf	___fltol@exp1,w
  4602     0C35  1D03               	btfss	3,2
  4603     0C36  2C38               	goto	u3171
  4604     0C37  2C39               	goto	u3170
  4605     0C38                     u3171:
  4606     0C38  2C29               	goto	l2268
  4607     0C39                     u3170:
  4608     0C39                     l2270:
  4609     0C39  086E               	movf	___fltol@sign1,w
  4610     0C3A  1903               	btfsc	3,2
  4611     0C3B  2C3D               	goto	u3181
  4612     0C3C  2C3E               	goto	u3180
  4613     0C3D                     u3181:
  4614     0C3D  2C49               	goto	l460
  4615     0C3E                     u3180:
  4616     0C3E                     l2272:
  4617     0C3E  09E6               	comf	___fltol@f1,f
  4618     0C3F  09E7               	comf	___fltol@f1+1,f
  4619     0C40  09E8               	comf	___fltol@f1+2,f
  4620     0C41  09E9               	comf	___fltol@f1+3,f
  4621     0C42  0AE6               	incf	___fltol@f1,f
  4622     0C43  1903               	skipnz
  4623     0C44  0AE7               	incf	___fltol@f1+1,f
  4624     0C45  1903               	skipnz
  4625     0C46  0AE8               	incf	___fltol@f1+2,f
  4626     0C47  1903               	skipnz
  4627     0C48  0AE9               	incf	___fltol@f1+3,f
  4628     0C49                     l460:
  4629     0C49                     l450:
  4630     0C49  0008               	return
  4631     0C4A                     __end_of___fltol:
  4632                           
  4633                           	psect	text9
  4634     05E6                     __ptext9:	
  4635 ;; *************** function _Lcd_Write_Int *****************
  4636 ;; Defined at:
  4637 ;;		line 121 in file "../00-Librerie.X/lcd.c"
  4638 ;; Parameters:    Size  Location     Type
  4639 ;;  val             2    0[BANK0 ] int 
  4640 ;; Auto vars:     Size  Location     Type
  4641 ;;  t               2   60[BANK0 ] int 
  4642 ;;  buffer         50    5[BANK0 ] unsigned char [50]
  4643 ;;  i               2   62[BANK0 ] int 
  4644 ;;  n               2   58[BANK0 ] int 
  4645 ;;  n1              2   56[BANK0 ] unsigned int 
  4646 ;;  isNeg           1   55[BANK0 ] unsigned char 
  4647 ;; Return value:  Size  Location     Type
  4648 ;;                  2    0[BANK0 ] PTR unsigned char 
  4649 ;; Registers used:
  4650 ;;		wreg, fsr0l, fsr0h, status,2, status,0, pclath, cstack
  4651 ;; Tracked objects:
  4652 ;;		On entry : 0/0
  4653 ;;		On exit  : 0/0
  4654 ;;		Unchanged: 0/0
  4655 ;; Data sizes:     COMMON   BANK0   BANK1   BANK3   BANK2
  4656 ;;      Params:         0       2       0       0       0
  4657 ;;      Locals:         0      59       0       0       0
  4658 ;;      Temps:          0       3       0       0       0
  4659 ;;      Totals:         0      64       0       0       0
  4660 ;;Total ram usage:       64 bytes
  4661 ;; Hardware stack levels used: 1
  4662 ;; Hardware stack levels required when called: 4
  4663 ;; This function calls:
  4664 ;;		_Lcd_Write_String
  4665 ;;		___awdiv
  4666 ;;		___lwdiv
  4667 ;;		___lwmod
  4668 ;; This function is called by:
  4669 ;;		_main
  4670 ;; This function uses a non-reentrant model
  4671 ;;
  4672                           
  4673     05E6                     _Lcd_Write_Int:	
  4674                           ;psect for function _Lcd_Write_Int
  4675                           
  4676     05E6                     l2174:	
  4677                           ;incstack = 0
  4678                           ; Regs used in _Lcd_Write_Int: [wreg-fsr0h+status,2+status,0+pclath+cstack]
  4679                           
  4680                           
  4681                           ;../00-Librerie.X/lcd.c: 123:     int n = val;
  4682     05E6  1283               	bcf	3,5	;RP0=0, select bank0
  4683     05E7  1303               	bcf	3,6	;RP1=0, select bank0
  4684     05E8  0821               	movf	Lcd_Write_Int@val+1,w
  4685     05E9  00DB               	movwf	Lcd_Write_Int@n+1
  4686     05EA  0820               	movf	Lcd_Write_Int@val,w
  4687     05EB  00DA               	movwf	Lcd_Write_Int@n
  4688     05EC                     l2176:
  4689                           
  4690                           ;../00-Librerie.X/lcd.c: 124:     char buffer[50];;../00-Librerie.X/lcd.c: 125:     int 
      +                          i = 0;
  4691     05EC  01DE               	clrf	Lcd_Write_Int@i
  4692     05ED  01DF               	clrf	Lcd_Write_Int@i+1
  4693     05EE                     l2178:
  4694                           
  4695                           ;../00-Librerie.X/lcd.c: 126:     char isNeg = n < 0;
  4696     05EE  1BDB               	btfsc	Lcd_Write_Int@n+1,7
  4697     05EF  2DF1               	goto	u3001
  4698     05F0  2DF3               	goto	u3000
  4699     05F1                     u3001:
  4700     05F1  3001               	movlw	1
  4701     05F2  2DF4               	goto	u3010
  4702     05F3                     u3000:
  4703     05F3  3000               	movlw	0
  4704     05F4                     u3010:
  4705     05F4  00D7               	movwf	Lcd_Write_Int@isNeg
  4706     05F5                     l2180:
  4707                           
  4708                           ;../00-Librerie.X/lcd.c: 128:     unsigned int n1 = isNeg ? -n : n;
  4709     05F5  0857               	movf	Lcd_Write_Int@isNeg,w
  4710     05F6  1D03               	btfss	3,2
  4711     05F7  2DF9               	goto	u3021
  4712     05F8  2DFA               	goto	u3020
  4713     05F9                     u3021:
  4714     05F9  2DFF               	goto	l2184
  4715     05FA                     u3020:
  4716     05FA                     l2182:
  4717     05FA  085B               	movf	Lcd_Write_Int@n+1,w
  4718     05FB  00D9               	movwf	Lcd_Write_Int@n1+1
  4719     05FC  085A               	movf	Lcd_Write_Int@n,w
  4720     05FD  00D8               	movwf	Lcd_Write_Int@n1
  4721     05FE  2E3A               	goto	l2192
  4722     05FF                     l2184:
  4723     05FF  095A               	comf	Lcd_Write_Int@n,w
  4724     0600  00A2               	movwf	??_Lcd_Write_Int
  4725     0601  095B               	comf	Lcd_Write_Int@n+1,w
  4726     0602  00A3               	movwf	??_Lcd_Write_Int+1
  4727     0603  0AA2               	incf	??_Lcd_Write_Int,f
  4728     0604  1903               	skipnz
  4729     0605  0AA3               	incf	??_Lcd_Write_Int+1,f
  4730     0606  0822               	movf	??_Lcd_Write_Int,w
  4731     0607  00D8               	movwf	Lcd_Write_Int@n1
  4732     0608  0823               	movf	??_Lcd_Write_Int+1,w
  4733     0609  00D9               	movwf	Lcd_Write_Int@n1+1
  4734     060A  2E3A               	goto	l2192
  4735     060B                     l2186:
  4736                           
  4737                           ;../00-Librerie.X/lcd.c: 131:         buffer[i++] = n1 % 10 + '0';
  4738     060B  085E               	movf	Lcd_Write_Int@i,w
  4739     060C  3E25               	addlw	(low (Lcd_Write_Int@buffer| 0))& (0+255)
  4740     060D  0084               	movwf	4
  4741     060E  300A               	movlw	10
  4742     060F  00F2               	movwf	___lwmod@divisor
  4743     0610  3000               	movlw	0
  4744     0611  00F3               	movwf	___lwmod@divisor+1
  4745     0612  0859               	movf	Lcd_Write_Int@n1+1,w
  4746     0613  00F5               	movwf	___lwmod@dividend+1
  4747     0614  0858               	movf	Lcd_Write_Int@n1,w
  4748     0615  00F4               	movwf	___lwmod@dividend
  4749     0616  120A  158A  22EF  120A  118A  	fcall	___lwmod
  4750     061B  0872               	movf	?___lwmod,w
  4751     061C  3E30               	addlw	48
  4752     061D  1383               	bcf	3,7	;select IRP bank0
  4753     061E  0080               	movwf	0
  4754     061F                     l2188:
  4755     061F  3001               	movlw	1
  4756     0620  1283               	bcf	3,5	;RP0=0, select bank0
  4757     0621  1303               	bcf	3,6	;RP1=0, select bank0
  4758     0622  07DE               	addwf	Lcd_Write_Int@i,f
  4759     0623  1803               	skipnc
  4760     0624  0ADF               	incf	Lcd_Write_Int@i+1,f
  4761     0625  3000               	movlw	0
  4762     0626  07DF               	addwf	Lcd_Write_Int@i+1,f
  4763     0627                     l2190:
  4764                           
  4765                           ;../00-Librerie.X/lcd.c: 132:         n1 = n1 / 10;
  4766     0627  300A               	movlw	10
  4767     0628  00F2               	movwf	___lwdiv@divisor
  4768     0629  3000               	movlw	0
  4769     062A  00F3               	movwf	___lwdiv@divisor+1
  4770     062B  0859               	movf	Lcd_Write_Int@n1+1,w
  4771     062C  00F5               	movwf	___lwdiv@dividend+1
  4772     062D  0858               	movf	Lcd_Write_Int@n1,w
  4773     062E  00F4               	movwf	___lwdiv@dividend
  4774     062F  120A  158A  2329  120A  118A  	fcall	___lwdiv
  4775     0634  0873               	movf	?___lwdiv+1,w
  4776     0635  1283               	bcf	3,5	;RP0=0, select bank0
  4777     0636  1303               	bcf	3,6	;RP1=0, select bank0
  4778     0637  00D9               	movwf	Lcd_Write_Int@n1+1
  4779     0638  0872               	movf	?___lwdiv,w
  4780     0639  00D8               	movwf	Lcd_Write_Int@n1
  4781     063A                     l2192:
  4782                           
  4783                           ;../00-Librerie.X/lcd.c: 130:     while (n1 != 0) {
  4784     063A  0858               	movf	Lcd_Write_Int@n1,w
  4785     063B  0459               	iorwf	Lcd_Write_Int@n1+1,w
  4786     063C  1D03               	btfss	3,2
  4787     063D  2E3F               	goto	u3031
  4788     063E  2E40               	goto	u3030
  4789     063F                     u3031:
  4790     063F  2E0B               	goto	l2186
  4791     0640                     u3030:
  4792     0640                     l2194:
  4793                           
  4794                           ;../00-Librerie.X/lcd.c: 135:     if (isNeg)
  4795     0640  0857               	movf	Lcd_Write_Int@isNeg,w
  4796     0641  1903               	btfsc	3,2
  4797     0642  2E44               	goto	u3041
  4798     0643  2E45               	goto	u3040
  4799     0644                     u3041:
  4800     0644  2E51               	goto	l2200
  4801     0645                     u3040:
  4802     0645                     l2196:
  4803                           
  4804                           ;../00-Librerie.X/lcd.c: 136:         buffer[i++] = '-';
  4805     0645  085E               	movf	Lcd_Write_Int@i,w
  4806     0646  3E25               	addlw	(low (Lcd_Write_Int@buffer| 0))& (0+255)
  4807     0647  0084               	movwf	4
  4808     0648  302D               	movlw	45
  4809     0649  1383               	bcf	3,7	;select IRP bank0
  4810     064A  0080               	movwf	0
  4811     064B                     l2198:
  4812     064B  3001               	movlw	1
  4813     064C  07DE               	addwf	Lcd_Write_Int@i,f
  4814     064D  1803               	skipnc
  4815     064E  0ADF               	incf	Lcd_Write_Int@i+1,f
  4816     064F  3000               	movlw	0
  4817     0650  07DF               	addwf	Lcd_Write_Int@i+1,f
  4818     0651                     l2200:
  4819                           
  4820                           ;../00-Librerie.X/lcd.c: 138:     buffer[i] = '\0';
  4821     0651  085E               	movf	Lcd_Write_Int@i,w
  4822     0652  3E25               	addlw	(low (Lcd_Write_Int@buffer| 0))& (0+255)
  4823     0653  0084               	movwf	4
  4824     0654  1383               	bcf	3,7	;select IRP bank0
  4825     0655  0180               	clrf	0
  4826     0656                     l2202:
  4827                           
  4828                           ;../00-Librerie.X/lcd.c: 140:     for (int t = 0; t < i / 2; t++) {
  4829     0656  01DC               	clrf	Lcd_Write_Int@t
  4830     0657  01DD               	clrf	Lcd_Write_Int@t+1
  4831     0658  2E95               	goto	l2208
  4832     0659                     l2204:
  4833                           
  4834                           ;../00-Librerie.X/lcd.c: 141:         buffer[t] ^= buffer[i - t - 1];
  4835     0659  3025               	movlw	(low (Lcd_Write_Int@buffer| 0))& (0+255)
  4836     065A  1283               	bcf	3,5	;RP0=0, select bank0
  4837     065B  1303               	bcf	3,6	;RP1=0, select bank0
  4838     065C  00A2               	movwf	??_Lcd_Write_Int
  4839     065D  085C               	movf	Lcd_Write_Int@t,w
  4840     065E  02A2               	subwf	??_Lcd_Write_Int,f
  4841     065F  085E               	movf	Lcd_Write_Int@i,w
  4842     0660  0722               	addwf	??_Lcd_Write_Int,w
  4843     0661  00A3               	movwf	??_Lcd_Write_Int+1
  4844     0662  0823               	movf	??_Lcd_Write_Int+1,w
  4845     0663  3EFF               	addlw	255
  4846     0664  0084               	movwf	4
  4847     0665  1383               	bcf	3,7	;select IRP bank0
  4848     0666  0800               	movf	0,w
  4849     0667  00A4               	movwf	??_Lcd_Write_Int+2
  4850     0668  085C               	movf	Lcd_Write_Int@t,w
  4851     0669  3E25               	addlw	(low (Lcd_Write_Int@buffer| 0))& (0+255)
  4852     066A  0084               	movwf	4
  4853     066B  0824               	movf	??_Lcd_Write_Int+2,w
  4854     066C  0680               	xorwf	0,f
  4855                           
  4856                           ;../00-Librerie.X/lcd.c: 142:         buffer[i - t - 1] ^= buffer[t];
  4857     066D  085C               	movf	Lcd_Write_Int@t,w
  4858     066E  3E25               	addlw	(low (Lcd_Write_Int@buffer| 0))& (0+255)
  4859     066F  0084               	movwf	4
  4860     0670  0800               	movf	0,w
  4861     0671  00A2               	movwf	??_Lcd_Write_Int
  4862     0672  3025               	movlw	(low (Lcd_Write_Int@buffer| 0))& (0+255)
  4863     0673  00A3               	movwf	??_Lcd_Write_Int+1
  4864     0674  085C               	movf	Lcd_Write_Int@t,w
  4865     0675  02A3               	subwf	??_Lcd_Write_Int+1,f
  4866     0676  085E               	movf	Lcd_Write_Int@i,w
  4867     0677  0723               	addwf	??_Lcd_Write_Int+1,w
  4868     0678  00A4               	movwf	??_Lcd_Write_Int+2
  4869     0679  0824               	movf	??_Lcd_Write_Int+2,w
  4870     067A  3EFF               	addlw	255
  4871     067B  0084               	movwf	4
  4872     067C  0822               	movf	??_Lcd_Write_Int,w
  4873     067D  0680               	xorwf	0,f
  4874                           
  4875                           ;../00-Librerie.X/lcd.c: 143:         buffer[t] ^= buffer[i - t - 1];
  4876     067E  3025               	movlw	(low (Lcd_Write_Int@buffer| 0))& (0+255)
  4877     067F  00A2               	movwf	??_Lcd_Write_Int
  4878     0680  085C               	movf	Lcd_Write_Int@t,w
  4879     0681  02A2               	subwf	??_Lcd_Write_Int,f
  4880     0682  085E               	movf	Lcd_Write_Int@i,w
  4881     0683  0722               	addwf	??_Lcd_Write_Int,w
  4882     0684  00A3               	movwf	??_Lcd_Write_Int+1
  4883     0685  0823               	movf	??_Lcd_Write_Int+1,w
  4884     0686  3EFF               	addlw	255
  4885     0687  0084               	movwf	4
  4886     0688  0800               	movf	0,w
  4887     0689  00A4               	movwf	??_Lcd_Write_Int+2
  4888     068A  085C               	movf	Lcd_Write_Int@t,w
  4889     068B  3E25               	addlw	(low (Lcd_Write_Int@buffer| 0))& (0+255)
  4890     068C  0084               	movwf	4
  4891     068D  0824               	movf	??_Lcd_Write_Int+2,w
  4892     068E  0680               	xorwf	0,f
  4893     068F                     l2206:
  4894                           
  4895                           ;../00-Librerie.X/lcd.c: 144:     }
  4896     068F  3001               	movlw	1
  4897     0690  07DC               	addwf	Lcd_Write_Int@t,f
  4898     0691  1803               	skipnc
  4899     0692  0ADD               	incf	Lcd_Write_Int@t+1,f
  4900     0693  3000               	movlw	0
  4901     0694  07DD               	addwf	Lcd_Write_Int@t+1,f
  4902     0695                     l2208:
  4903     0695  3002               	movlw	2
  4904     0696  00F2               	movwf	___awdiv@divisor
  4905     0697  3000               	movlw	0
  4906     0698  00F3               	movwf	___awdiv@divisor+1
  4907     0699  085F               	movf	Lcd_Write_Int@i+1,w
  4908     069A  00F5               	movwf	___awdiv@dividend+1
  4909     069B  085E               	movf	Lcd_Write_Int@i,w
  4910     069C  00F4               	movwf	___awdiv@dividend
  4911     069D  120A  118A  2791  120A  118A  	fcall	___awdiv
  4912     06A2  1283               	bcf	3,5	;RP0=0, select bank0
  4913     06A3  1303               	bcf	3,6	;RP1=0, select bank0
  4914     06A4  085D               	movf	Lcd_Write_Int@t+1,w
  4915     06A5  3A80               	xorlw	128
  4916     06A6  00A2               	movwf	??_Lcd_Write_Int
  4917     06A7  0873               	movf	?___awdiv+1,w
  4918     06A8  3A80               	xorlw	128
  4919     06A9  0222               	subwf	??_Lcd_Write_Int,w
  4920     06AA  1D03               	skipz
  4921     06AB  2EAE               	goto	u3055
  4922     06AC  0872               	movf	?___awdiv,w
  4923     06AD  025C               	subwf	Lcd_Write_Int@t,w
  4924     06AE                     u3055:
  4925     06AE  1C03               	skipc
  4926     06AF  2EB1               	goto	u3051
  4927     06B0  2EB2               	goto	u3050
  4928     06B1                     u3051:
  4929     06B1  2E59               	goto	l2204
  4930     06B2                     u3050:
  4931     06B2                     l2210:
  4932                           
  4933                           ;../00-Librerie.X/lcd.c: 146:     if (n == 0) {
  4934     06B2  1283               	bcf	3,5	;RP0=0, select bank0
  4935     06B3  1303               	bcf	3,6	;RP1=0, select bank0
  4936     06B4  085A               	movf	Lcd_Write_Int@n,w
  4937     06B5  045B               	iorwf	Lcd_Write_Int@n+1,w
  4938     06B6  1D03               	btfss	3,2
  4939     06B7  2EB9               	goto	u3061
  4940     06B8  2EBA               	goto	u3060
  4941     06B9                     u3061:
  4942     06B9  2EBD               	goto	l2216
  4943     06BA                     u3060:
  4944     06BA                     l2212:
  4945                           
  4946                           ;../00-Librerie.X/lcd.c: 147:         buffer[0] = '0';
  4947     06BA  3030               	movlw	48
  4948     06BB  00A5               	movwf	Lcd_Write_Int@buffer
  4949     06BC                     l2214:
  4950                           
  4951                           ;../00-Librerie.X/lcd.c: 148:         buffer[1] = '\0';
  4952     06BC  01A6               	clrf	Lcd_Write_Int@buffer+1
  4953     06BD                     l2216:
  4954                           
  4955                           ;../00-Librerie.X/lcd.c: 151:     Lcd_Write_String(buffer);
  4956     06BD  3025               	movlw	(low (Lcd_Write_Int@buffer| 0))& (0+255)
  4957     06BE  120A  158A  21D1  120A  118A  	fcall	_Lcd_Write_String
  4958     06C3                     l94:
  4959     06C3  0008               	return
  4960     06C4                     __end_of_Lcd_Write_Int:
  4961                           
  4962                           	psect	text10
  4963     0AEF                     __ptext10:	
  4964 ;; *************** function ___lwmod *****************
  4965 ;; Defined at:
  4966 ;;		line 5 in file "C:\Program Files\Microchip\xc8\v2.40\pic\sources\c90\common\lwmod.c"
  4967 ;; Parameters:    Size  Location     Type
  4968 ;;  divisor         2    2[COMMON] unsigned int 
  4969 ;;  dividend        2    4[COMMON] unsigned int 
  4970 ;; Auto vars:     Size  Location     Type
  4971 ;;  counter         1    7[COMMON] unsigned char 
  4972 ;; Return value:  Size  Location     Type
  4973 ;;                  2    2[COMMON] unsigned int 
  4974 ;; Registers used:
  4975 ;;		wreg, status,2, status,0
  4976 ;; Tracked objects:
  4977 ;;		On entry : 0/0
  4978 ;;		On exit  : 0/0
  4979 ;;		Unchanged: 0/0
  4980 ;; Data sizes:     COMMON   BANK0   BANK1   BANK3   BANK2
  4981 ;;      Params:         4       0       0       0       0
  4982 ;;      Locals:         1       0       0       0       0
  4983 ;;      Temps:          1       0       0       0       0
  4984 ;;      Totals:         6       0       0       0       0
  4985 ;;Total ram usage:        6 bytes
  4986 ;; Hardware stack levels used: 1
  4987 ;; Hardware stack levels required when called: 1
  4988 ;; This function calls:
  4989 ;;		Nothing
  4990 ;; This function is called by:
  4991 ;;		_Lcd_Write_Int
  4992 ;; This function uses a non-reentrant model
  4993 ;;
  4994                           
  4995     0AEF                     ___lwmod:	
  4996                           ;psect for function ___lwmod
  4997                           
  4998     0AEF                     l1958:	
  4999                           ;incstack = 0
  5000                           ; Regs used in ___lwmod: [wreg+status,2+status,0]
  5001                           
  5002     0AEF  0872               	movf	___lwmod@divisor,w
  5003     0AF0  0473               	iorwf	___lwmod@divisor+1,w
  5004     0AF1  1903               	btfsc	3,2
  5005     0AF2  2AF4               	goto	u2551
  5006     0AF3  2AF5               	goto	u2550
  5007     0AF4                     u2551:
  5008     0AF4  2B24               	goto	l1976
  5009     0AF5                     u2550:
  5010     0AF5                     l1960:
  5011     0AF5  01F7               	clrf	___lwmod@counter
  5012     0AF6  0AF7               	incf	___lwmod@counter,f
  5013     0AF7  2B03               	goto	l1966
  5014     0AF8                     l1962:
  5015     0AF8  3001               	movlw	1
  5016     0AF9                     u2565:
  5017     0AF9  1003               	clrc
  5018     0AFA  0DF2               	rlf	___lwmod@divisor,f
  5019     0AFB  0DF3               	rlf	___lwmod@divisor+1,f
  5020     0AFC  3EFF               	addlw	-1
  5021     0AFD  1D03               	skipz
  5022     0AFE  2AF9               	goto	u2565
  5023     0AFF                     l1964:
  5024     0AFF  3001               	movlw	1
  5025     0B00  00F6               	movwf	??___lwmod
  5026     0B01  0876               	movf	??___lwmod,w
  5027     0B02  07F7               	addwf	___lwmod@counter,f
  5028     0B03                     l1966:
  5029     0B03  1FF3               	btfss	___lwmod@divisor+1,7
  5030     0B04  2B06               	goto	u2571
  5031     0B05  2B07               	goto	u2570
  5032     0B06                     u2571:
  5033     0B06  2AF8               	goto	l1962
  5034     0B07                     u2570:
  5035     0B07                     l1968:
  5036     0B07  0873               	movf	___lwmod@divisor+1,w
  5037     0B08  0275               	subwf	___lwmod@dividend+1,w
  5038     0B09  1D03               	skipz
  5039     0B0A  2B0D               	goto	u2585
  5040     0B0B  0872               	movf	___lwmod@divisor,w
  5041     0B0C  0274               	subwf	___lwmod@dividend,w
  5042     0B0D                     u2585:
  5043     0B0D  1C03               	skipc
  5044     0B0E  2B10               	goto	u2581
  5045     0B0F  2B11               	goto	u2580
  5046     0B10                     u2581:
  5047     0B10  2B17               	goto	l1972
  5048     0B11                     u2580:
  5049     0B11                     l1970:
  5050     0B11  0872               	movf	___lwmod@divisor,w
  5051     0B12  02F4               	subwf	___lwmod@dividend,f
  5052     0B13  0873               	movf	___lwmod@divisor+1,w
  5053     0B14  1C03               	skipc
  5054     0B15  03F5               	decf	___lwmod@dividend+1,f
  5055     0B16  02F5               	subwf	___lwmod@dividend+1,f
  5056     0B17                     l1972:
  5057     0B17  3001               	movlw	1
  5058     0B18                     u2595:
  5059     0B18  1003               	clrc
  5060     0B19  0CF3               	rrf	___lwmod@divisor+1,f
  5061     0B1A  0CF2               	rrf	___lwmod@divisor,f
  5062     0B1B  3EFF               	addlw	-1
  5063     0B1C  1D03               	skipz
  5064     0B1D  2B18               	goto	u2595
  5065     0B1E                     l1974:
  5066     0B1E  3001               	movlw	1
  5067     0B1F  02F7               	subwf	___lwmod@counter,f
  5068     0B20  1D03               	btfss	3,2
  5069     0B21  2B23               	goto	u2601
  5070     0B22  2B24               	goto	u2600
  5071     0B23                     u2601:
  5072     0B23  2B07               	goto	l1968
  5073     0B24                     u2600:
  5074     0B24                     l1976:
  5075     0B24  0875               	movf	___lwmod@dividend+1,w
  5076     0B25  00F3               	movwf	?___lwmod+1
  5077     0B26  0874               	movf	___lwmod@dividend,w
  5078     0B27  00F2               	movwf	?___lwmod
  5079     0B28                     l546:
  5080     0B28  0008               	return
  5081     0B29                     __end_of___lwmod:
  5082                           
  5083                           	psect	text11
  5084     0B29                     __ptext11:	
  5085 ;; *************** function ___lwdiv *****************
  5086 ;; Defined at:
  5087 ;;		line 5 in file "C:\Program Files\Microchip\xc8\v2.40\pic\sources\c90\common\lwdiv.c"
  5088 ;; Parameters:    Size  Location     Type
  5089 ;;  divisor         2    2[COMMON] unsigned int 
  5090 ;;  dividend        2    4[COMMON] unsigned int 
  5091 ;; Auto vars:     Size  Location     Type
  5092 ;;  quotient        2    7[COMMON] unsigned int 
  5093 ;;  counter         1    9[COMMON] unsigned char 
  5094 ;; Return value:  Size  Location     Type
  5095 ;;                  2    2[COMMON] unsigned int 
  5096 ;; Registers used:
  5097 ;;		wreg, status,2, status,0
  5098 ;; Tracked objects:
  5099 ;;		On entry : 0/0
  5100 ;;		On exit  : 0/0
  5101 ;;		Unchanged: 0/0
  5102 ;; Data sizes:     COMMON   BANK0   BANK1   BANK3   BANK2
  5103 ;;      Params:         4       0       0       0       0
  5104 ;;      Locals:         3       0       0       0       0
  5105 ;;      Temps:          1       0       0       0       0
  5106 ;;      Totals:         8       0       0       0       0
  5107 ;;Total ram usage:        8 bytes
  5108 ;; Hardware stack levels used: 1
  5109 ;; Hardware stack levels required when called: 1
  5110 ;; This function calls:
  5111 ;;		Nothing
  5112 ;; This function is called by:
  5113 ;;		_Lcd_Write_Int
  5114 ;; This function uses a non-reentrant model
  5115 ;;
  5116                           
  5117     0B29                     ___lwdiv:	
  5118                           ;psect for function ___lwdiv
  5119                           
  5120     0B29                     l1932:	
  5121                           ;incstack = 0
  5122                           ; Regs used in ___lwdiv: [wreg+status,2+status,0]
  5123                           
  5124     0B29  01F7               	clrf	___lwdiv@quotient
  5125     0B2A  01F8               	clrf	___lwdiv@quotient+1
  5126     0B2B                     l1934:
  5127     0B2B  0872               	movf	___lwdiv@divisor,w
  5128     0B2C  0473               	iorwf	___lwdiv@divisor+1,w
  5129     0B2D  1903               	btfsc	3,2
  5130     0B2E  2B30               	goto	u2481
  5131     0B2F  2B31               	goto	u2480
  5132     0B30                     u2481:
  5133     0B30  2B68               	goto	l1954
  5134     0B31                     u2480:
  5135     0B31                     l1936:
  5136     0B31  01F9               	clrf	___lwdiv@counter
  5137     0B32  0AF9               	incf	___lwdiv@counter,f
  5138     0B33  2B3F               	goto	l1942
  5139     0B34                     l1938:
  5140     0B34  3001               	movlw	1
  5141     0B35                     u2495:
  5142     0B35  1003               	clrc
  5143     0B36  0DF2               	rlf	___lwdiv@divisor,f
  5144     0B37  0DF3               	rlf	___lwdiv@divisor+1,f
  5145     0B38  3EFF               	addlw	-1
  5146     0B39  1D03               	skipz
  5147     0B3A  2B35               	goto	u2495
  5148     0B3B                     l1940:
  5149     0B3B  3001               	movlw	1
  5150     0B3C  00F6               	movwf	??___lwdiv
  5151     0B3D  0876               	movf	??___lwdiv,w
  5152     0B3E  07F9               	addwf	___lwdiv@counter,f
  5153     0B3F                     l1942:
  5154     0B3F  1FF3               	btfss	___lwdiv@divisor+1,7
  5155     0B40  2B42               	goto	u2501
  5156     0B41  2B43               	goto	u2500
  5157     0B42                     u2501:
  5158     0B42  2B34               	goto	l1938
  5159     0B43                     u2500:
  5160     0B43                     l1944:
  5161     0B43  3001               	movlw	1
  5162     0B44                     u2515:
  5163     0B44  1003               	clrc
  5164     0B45  0DF7               	rlf	___lwdiv@quotient,f
  5165     0B46  0DF8               	rlf	___lwdiv@quotient+1,f
  5166     0B47  3EFF               	addlw	-1
  5167     0B48  1D03               	skipz
  5168     0B49  2B44               	goto	u2515
  5169     0B4A  0873               	movf	___lwdiv@divisor+1,w
  5170     0B4B  0275               	subwf	___lwdiv@dividend+1,w
  5171     0B4C  1D03               	skipz
  5172     0B4D  2B50               	goto	u2525
  5173     0B4E  0872               	movf	___lwdiv@divisor,w
  5174     0B4F  0274               	subwf	___lwdiv@dividend,w
  5175     0B50                     u2525:
  5176     0B50  1C03               	skipc
  5177     0B51  2B53               	goto	u2521
  5178     0B52  2B54               	goto	u2520
  5179     0B53                     u2521:
  5180     0B53  2B5B               	goto	l1950
  5181     0B54                     u2520:
  5182     0B54                     l1946:
  5183     0B54  0872               	movf	___lwdiv@divisor,w
  5184     0B55  02F4               	subwf	___lwdiv@dividend,f
  5185     0B56  0873               	movf	___lwdiv@divisor+1,w
  5186     0B57  1C03               	skipc
  5187     0B58  03F5               	decf	___lwdiv@dividend+1,f
  5188     0B59  02F5               	subwf	___lwdiv@dividend+1,f
  5189     0B5A                     l1948:
  5190     0B5A  1477               	bsf	___lwdiv@quotient,0
  5191     0B5B                     l1950:
  5192     0B5B  3001               	movlw	1
  5193     0B5C                     u2535:
  5194     0B5C  1003               	clrc
  5195     0B5D  0CF3               	rrf	___lwdiv@divisor+1,f
  5196     0B5E  0CF2               	rrf	___lwdiv@divisor,f
  5197     0B5F  3EFF               	addlw	-1
  5198     0B60  1D03               	skipz
  5199     0B61  2B5C               	goto	u2535
  5200     0B62                     l1952:
  5201     0B62  3001               	movlw	1
  5202     0B63  02F9               	subwf	___lwdiv@counter,f
  5203     0B64  1D03               	btfss	3,2
  5204     0B65  2B67               	goto	u2541
  5205     0B66  2B68               	goto	u2540
  5206     0B67                     u2541:
  5207     0B67  2B43               	goto	l1944
  5208     0B68                     u2540:
  5209     0B68                     l1954:
  5210     0B68  0878               	movf	___lwdiv@quotient+1,w
  5211     0B69  00F3               	movwf	?___lwdiv+1
  5212     0B6A  0877               	movf	___lwdiv@quotient,w
  5213     0B6B  00F2               	movwf	?___lwdiv
  5214     0B6C                     l536:
  5215     0B6C  0008               	return
  5216     0B6D                     __end_of___lwdiv:
  5217                           
  5218                           	psect	text12
  5219     0791                     __ptext12:	
  5220 ;; *************** function ___awdiv *****************
  5221 ;; Defined at:
  5222 ;;		line 5 in file "C:\Program Files\Microchip\xc8\v2.40\pic\sources\c90\common\awdiv.c"
  5223 ;; Parameters:    Size  Location     Type
  5224 ;;  divisor         2    2[COMMON] int 
  5225 ;;  dividend        2    4[COMMON] int 
  5226 ;; Auto vars:     Size  Location     Type
  5227 ;;  quotient        2    9[COMMON] int 
  5228 ;;  sign            1    8[COMMON] unsigned char 
  5229 ;;  counter         1    7[COMMON] unsigned char 
  5230 ;; Return value:  Size  Location     Type
  5231 ;;                  2    2[COMMON] int 
  5232 ;; Registers used:
  5233 ;;		wreg, status,2, status,0
  5234 ;; Tracked objects:
  5235 ;;		On entry : 0/0
  5236 ;;		On exit  : 0/0
  5237 ;;		Unchanged: 0/0
  5238 ;; Data sizes:     COMMON   BANK0   BANK1   BANK3   BANK2
  5239 ;;      Params:         4       0       0       0       0
  5240 ;;      Locals:         4       0       0       0       0
  5241 ;;      Temps:          1       0       0       0       0
  5242 ;;      Totals:         9       0       0       0       0
  5243 ;;Total ram usage:        9 bytes
  5244 ;; Hardware stack levels used: 1
  5245 ;; Hardware stack levels required when called: 1
  5246 ;; This function calls:
  5247 ;;		Nothing
  5248 ;; This function is called by:
  5249 ;;		_Lcd_Write_Int
  5250 ;; This function uses a non-reentrant model
  5251 ;;
  5252                           
  5253     0791                     ___awdiv:	
  5254                           ;psect for function ___awdiv
  5255                           
  5256     0791                     l1868:	
  5257                           ;incstack = 0
  5258                           ; Regs used in ___awdiv: [wreg+status,2+status,0]
  5259                           
  5260     0791  01F8               	clrf	___awdiv@sign
  5261     0792                     l1870:
  5262     0792  1FF3               	btfss	___awdiv@divisor+1,7
  5263     0793  2F95               	goto	u2311
  5264     0794  2F96               	goto	u2310
  5265     0795                     u2311:
  5266     0795  2F9D               	goto	l1876
  5267     0796                     u2310:
  5268     0796                     l1872:
  5269     0796  09F2               	comf	___awdiv@divisor,f
  5270     0797  09F3               	comf	___awdiv@divisor+1,f
  5271     0798  0AF2               	incf	___awdiv@divisor,f
  5272     0799  1903               	skipnz
  5273     079A  0AF3               	incf	___awdiv@divisor+1,f
  5274     079B                     l1874:
  5275     079B  01F8               	clrf	___awdiv@sign
  5276     079C  0AF8               	incf	___awdiv@sign,f
  5277     079D                     l1876:
  5278     079D  1FF5               	btfss	___awdiv@dividend+1,7
  5279     079E  2FA0               	goto	u2321
  5280     079F  2FA1               	goto	u2320
  5281     07A0                     u2321:
  5282     07A0  2FAA               	goto	l1882
  5283     07A1                     u2320:
  5284     07A1                     l1878:
  5285     07A1  09F4               	comf	___awdiv@dividend,f
  5286     07A2  09F5               	comf	___awdiv@dividend+1,f
  5287     07A3  0AF4               	incf	___awdiv@dividend,f
  5288     07A4  1903               	skipnz
  5289     07A5  0AF5               	incf	___awdiv@dividend+1,f
  5290     07A6                     l1880:
  5291     07A6  3001               	movlw	1
  5292     07A7  00F6               	movwf	??___awdiv
  5293     07A8  0876               	movf	??___awdiv,w
  5294     07A9  06F8               	xorwf	___awdiv@sign,f
  5295     07AA                     l1882:
  5296     07AA  01F9               	clrf	___awdiv@quotient
  5297     07AB  01FA               	clrf	___awdiv@quotient+1
  5298     07AC                     l1884:
  5299     07AC  0872               	movf	___awdiv@divisor,w
  5300     07AD  0473               	iorwf	___awdiv@divisor+1,w
  5301     07AE  1903               	btfsc	3,2
  5302     07AF  2FB1               	goto	u2331
  5303     07B0  2FB2               	goto	u2330
  5304     07B1                     u2331:
  5305     07B1  2FE9               	goto	l1904
  5306     07B2                     u2330:
  5307     07B2                     l1886:
  5308     07B2  01F7               	clrf	___awdiv@counter
  5309     07B3  0AF7               	incf	___awdiv@counter,f
  5310     07B4  2FC0               	goto	l1892
  5311     07B5                     l1888:
  5312     07B5  3001               	movlw	1
  5313     07B6                     u2345:
  5314     07B6  1003               	clrc
  5315     07B7  0DF2               	rlf	___awdiv@divisor,f
  5316     07B8  0DF3               	rlf	___awdiv@divisor+1,f
  5317     07B9  3EFF               	addlw	-1
  5318     07BA  1D03               	skipz
  5319     07BB  2FB6               	goto	u2345
  5320     07BC                     l1890:
  5321     07BC  3001               	movlw	1
  5322     07BD  00F6               	movwf	??___awdiv
  5323     07BE  0876               	movf	??___awdiv,w
  5324     07BF  07F7               	addwf	___awdiv@counter,f
  5325     07C0                     l1892:
  5326     07C0  1FF3               	btfss	___awdiv@divisor+1,7
  5327     07C1  2FC3               	goto	u2351
  5328     07C2  2FC4               	goto	u2350
  5329     07C3                     u2351:
  5330     07C3  2FB5               	goto	l1888
  5331     07C4                     u2350:
  5332     07C4                     l1894:
  5333     07C4  3001               	movlw	1
  5334     07C5                     u2365:
  5335     07C5  1003               	clrc
  5336     07C6  0DF9               	rlf	___awdiv@quotient,f
  5337     07C7  0DFA               	rlf	___awdiv@quotient+1,f
  5338     07C8  3EFF               	addlw	-1
  5339     07C9  1D03               	skipz
  5340     07CA  2FC5               	goto	u2365
  5341     07CB  0873               	movf	___awdiv@divisor+1,w
  5342     07CC  0275               	subwf	___awdiv@dividend+1,w
  5343     07CD  1D03               	skipz
  5344     07CE  2FD1               	goto	u2375
  5345     07CF  0872               	movf	___awdiv@divisor,w
  5346     07D0  0274               	subwf	___awdiv@dividend,w
  5347     07D1                     u2375:
  5348     07D1  1C03               	skipc
  5349     07D2  2FD4               	goto	u2371
  5350     07D3  2FD5               	goto	u2370
  5351     07D4                     u2371:
  5352     07D4  2FDC               	goto	l1900
  5353     07D5                     u2370:
  5354     07D5                     l1896:
  5355     07D5  0872               	movf	___awdiv@divisor,w
  5356     07D6  02F4               	subwf	___awdiv@dividend,f
  5357     07D7  0873               	movf	___awdiv@divisor+1,w
  5358     07D8  1C03               	skipc
  5359     07D9  03F5               	decf	___awdiv@dividend+1,f
  5360     07DA  02F5               	subwf	___awdiv@dividend+1,f
  5361     07DB                     l1898:
  5362     07DB  1479               	bsf	___awdiv@quotient,0
  5363     07DC                     l1900:
  5364     07DC  3001               	movlw	1
  5365     07DD                     u2385:
  5366     07DD  1003               	clrc
  5367     07DE  0CF3               	rrf	___awdiv@divisor+1,f
  5368     07DF  0CF2               	rrf	___awdiv@divisor,f
  5369     07E0  3EFF               	addlw	-1
  5370     07E1  1D03               	skipz
  5371     07E2  2FDD               	goto	u2385
  5372     07E3                     l1902:
  5373     07E3  3001               	movlw	1
  5374     07E4  02F7               	subwf	___awdiv@counter,f
  5375     07E5  1D03               	btfss	3,2
  5376     07E6  2FE8               	goto	u2391
  5377     07E7  2FE9               	goto	u2390
  5378     07E8                     u2391:
  5379     07E8  2FC4               	goto	l1894
  5380     07E9                     u2390:
  5381     07E9                     l1904:
  5382     07E9  0878               	movf	___awdiv@sign,w
  5383     07EA  1903               	btfsc	3,2
  5384     07EB  2FED               	goto	u2401
  5385     07EC  2FEE               	goto	u2400
  5386     07ED                     u2401:
  5387     07ED  2FF3               	goto	l1908
  5388     07EE                     u2400:
  5389     07EE                     l1906:
  5390     07EE  09F9               	comf	___awdiv@quotient,f
  5391     07EF  09FA               	comf	___awdiv@quotient+1,f
  5392     07F0  0AF9               	incf	___awdiv@quotient,f
  5393     07F1  1903               	skipnz
  5394     07F2  0AFA               	incf	___awdiv@quotient+1,f
  5395     07F3                     l1908:
  5396     07F3  087A               	movf	___awdiv@quotient+1,w
  5397     07F4  00F3               	movwf	?___awdiv+1
  5398     07F5  0879               	movf	___awdiv@quotient,w
  5399     07F6  00F2               	movwf	?___awdiv
  5400     07F7                     l417:
  5401     07F7  0008               	return
  5402     07F8                     __end_of___awdiv:
  5403                           
  5404                           	psect	text13
  5405     09D1                     __ptext13:	
  5406 ;; *************** function _Lcd_Write_String *****************
  5407 ;; Defined at:
  5408 ;;		line 105 in file "../00-Librerie.X/lcd.c"
  5409 ;; Parameters:    Size  Location     Type
  5410 ;;  a               1    wreg     PTR unsigned char 
  5411 ;;		 -> Lcd_Write_Int@buffer(50), 
  5412 ;; Auto vars:     Size  Location     Type
  5413 ;;  a               1   10[COMMON] PTR unsigned char 
  5414 ;;		 -> Lcd_Write_Int@buffer(50), 
  5415 ;;  i               2    8[COMMON] int 
  5416 ;; Return value:  Size  Location     Type
  5417 ;;                  1    wreg      void 
  5418 ;; Registers used:
  5419 ;;		wreg, fsr0l, fsr0h, status,2, status,0, pclath, cstack
  5420 ;; Tracked objects:
  5421 ;;		On entry : 0/0
  5422 ;;		On exit  : 0/0
  5423 ;;		Unchanged: 0/0
  5424 ;; Data sizes:     COMMON   BANK0   BANK1   BANK3   BANK2
  5425 ;;      Params:         0       0       0       0       0
  5426 ;;      Locals:         3       0       0       0       0
  5427 ;;      Temps:          1       0       0       0       0
  5428 ;;      Totals:         4       0       0       0       0
  5429 ;;Total ram usage:        4 bytes
  5430 ;; Hardware stack levels used: 1
  5431 ;; Hardware stack levels required when called: 3
  5432 ;; This function calls:
  5433 ;;		_Lcd_Write_Char
  5434 ;; This function is called by:
  5435 ;;		_Lcd_Write_Int
  5436 ;; This function uses a non-reentrant model
  5437 ;;
  5438                           
  5439     09D1                     _Lcd_Write_String:	
  5440                           ;psect for function _Lcd_Write_String
  5441                           
  5442                           
  5443                           ;incstack = 0
  5444                           ; Regs used in _Lcd_Write_String: [wreg-fsr0h+status,2+status,0+pclath+cstack]
  5445                           ;Lcd_Write_String@a stored from wreg
  5446     09D1  00FA               	movwf	Lcd_Write_String@a
  5447     09D2                     l1860:
  5448                           
  5449                           ;../00-Librerie.X/lcd.c: 106:     int i;;../00-Librerie.X/lcd.c: 107:     for (i = 0; a[
      +                          i] != '\0'; i++)
  5450     09D2  01F8               	clrf	Lcd_Write_String@i
  5451     09D3  01F9               	clrf	Lcd_Write_String@i+1
  5452     09D4  29E6               	goto	l1866
  5453     09D5                     l1862:
  5454                           
  5455                           ;../00-Librerie.X/lcd.c: 108:         Lcd_Write_Char(a[i]);
  5456     09D5  0878               	movf	Lcd_Write_String@i,w
  5457     09D6  077A               	addwf	Lcd_Write_String@a,w
  5458     09D7  00F7               	movwf	??_Lcd_Write_String
  5459     09D8  0877               	movf	??_Lcd_Write_String,w
  5460     09D9  0084               	movwf	4
  5461     09DA  0800               	movf	0,w
  5462     09DB  120A  158A  22BA  120A  158A  	fcall	_Lcd_Write_Char
  5463     09E0                     l1864:
  5464     09E0  3001               	movlw	1
  5465     09E1  07F8               	addwf	Lcd_Write_String@i,f
  5466     09E2  1803               	skipnc
  5467     09E3  0AF9               	incf	Lcd_Write_String@i+1,f
  5468     09E4  3000               	movlw	0
  5469     09E5  07F9               	addwf	Lcd_Write_String@i+1,f
  5470     09E6                     l1866:
  5471     09E6  0878               	movf	Lcd_Write_String@i,w
  5472     09E7  077A               	addwf	Lcd_Write_String@a,w
  5473     09E8  00F7               	movwf	??_Lcd_Write_String
  5474     09E9  0877               	movf	??_Lcd_Write_String,w
  5475     09EA  0084               	movwf	4
  5476     09EB  1383               	bcf	3,7	;select IRP bank0
  5477     09EC  0800               	movf	0,w
  5478     09ED  1D03               	btfss	3,2
  5479     09EE  29F0               	goto	u2301
  5480     09EF  29F1               	goto	u2300
  5481     09F0                     u2301:
  5482     09F0  29D5               	goto	l1862
  5483     09F1                     u2300:
  5484     09F1                     l73:
  5485     09F1  0008               	return
  5486     09F2                     __end_of_Lcd_Write_String:
  5487                           
  5488                           	psect	text14
  5489     0ABA                     __ptext14:	
  5490 ;; *************** function _Lcd_Write_Char *****************
  5491 ;; Defined at:
  5492 ;;		line 88 in file "../00-Librerie.X/lcd.c"
  5493 ;; Parameters:    Size  Location     Type
  5494 ;;  a               1    wreg     unsigned char 
  5495 ;; Auto vars:     Size  Location     Type
  5496 ;;  a               1    6[COMMON] unsigned char 
  5497 ;;  y               1    5[COMMON] unsigned char 
  5498 ;;  temp            1    4[COMMON] unsigned char 
  5499 ;; Return value:  Size  Location     Type
  5500 ;;                  1    wreg      void 
  5501 ;; Registers used:
  5502 ;;		wreg, status,2, status,0, pclath, cstack
  5503 ;; Tracked objects:
  5504 ;;		On entry : 0/0
  5505 ;;		On exit  : 0/0
  5506 ;;		Unchanged: 0/0
  5507 ;; Data sizes:     COMMON   BANK0   BANK1   BANK3   BANK2
  5508 ;;      Params:         0       0       0       0       0
  5509 ;;      Locals:         3       0       0       0       0
  5510 ;;      Temps:          1       0       0       0       0
  5511 ;;      Totals:         4       0       0       0       0
  5512 ;;Total ram usage:        4 bytes
  5513 ;; Hardware stack levels used: 1
  5514 ;; Hardware stack levels required when called: 2
  5515 ;; This function calls:
  5516 ;;		_Lcd_Port
  5517 ;; This function is called by:
  5518 ;;		_Lcd_Write_String
  5519 ;; This function uses a non-reentrant model
  5520 ;;
  5521                           
  5522     0ABA                     _Lcd_Write_Char:	
  5523                           ;psect for function _Lcd_Write_Char
  5524                           
  5525                           
  5526                           ;incstack = 0
  5527                           ; Regs used in _Lcd_Write_Char: [wreg+status,2+status,0+pclath+cstack]
  5528                           ;Lcd_Write_Char@a stored from wreg
  5529     0ABA  00F6               	movwf	Lcd_Write_Char@a
  5530     0ABB                     l1618:
  5531                           
  5532                           ;../00-Librerie.X/lcd.c: 89:     char temp, y;;../00-Librerie.X/lcd.c: 90:     temp = a 
      +                          & 0x0F;
  5533     0ABB  0876               	movf	Lcd_Write_Char@a,w
  5534     0ABC  390F               	andlw	15
  5535     0ABD  00F4               	movwf	Lcd_Write_Char@temp
  5536                           
  5537                           ;../00-Librerie.X/lcd.c: 91:     y = a & 0xF0;
  5538     0ABE  0876               	movf	Lcd_Write_Char@a,w
  5539     0ABF  39F0               	andlw	240
  5540     0AC0  00F5               	movwf	Lcd_Write_Char@y
  5541     0AC1                     l1620:
  5542                           
  5543                           ;../00-Librerie.X/lcd.c: 93:     PORTEbits.RE2 = 1;
  5544     0AC1  1283               	bcf	3,5	;RP0=0, select bank0
  5545     0AC2  1303               	bcf	3,6	;RP1=0, select bank0
  5546     0AC3  1509               	bsf	9,2	;volatile
  5547     0AC4                     l1622:
  5548                           
  5549                           ;../00-Librerie.X/lcd.c: 95:     Lcd_Port(y >> 4);
  5550     0AC4  0875               	movf	Lcd_Write_Char@y,w
  5551     0AC5  00F3               	movwf	??_Lcd_Write_Char
  5552     0AC6  3004               	movlw	4
  5553     0AC7                     u1805:
  5554     0AC7  1003               	clrc
  5555     0AC8  0CF3               	rrf	??_Lcd_Write_Char,f
  5556     0AC9  3EFF               	addlw	-1
  5557     0ACA  1D03               	skipz
  5558     0ACB  2AC7               	goto	u1805
  5559     0ACC  0873               	movf	??_Lcd_Write_Char,w
  5560     0ACD  120A  158A  21F2  120A  158A  	fcall	_Lcd_Port
  5561     0AD2                     l1624:
  5562                           
  5563                           ;../00-Librerie.X/lcd.c: 96:     PORTEbits.RE1 = 1;
  5564     0AD2  1283               	bcf	3,5	;RP0=0, select bank0
  5565     0AD3  1303               	bcf	3,6	;RP1=0, select bank0
  5566     0AD4  1489               	bsf	9,1	;volatile
  5567     0AD5                     l1626:
  5568                           
  5569                           ;../00-Librerie.X/lcd.c: 97:     _delay((unsigned long)((4)*(20*1000000/4000000.0)));
  5570     0AD5  3006               	movlw	6
  5571     0AD6  00F3               	movwf	??_Lcd_Write_Char
  5572     0AD7                     u3427:
  5573     0AD7  0BF3               	decfsz	??_Lcd_Write_Char,f
  5574     0AD8  2AD7               	goto	u3427
  5575     0AD9  0000               	nop
  5576     0ADA                     l1628:
  5577                           
  5578                           ;../00-Librerie.X/lcd.c: 98:     PORTEbits.RE1 = 0;
  5579     0ADA  1283               	bcf	3,5	;RP0=0, select bank0
  5580     0ADB  1303               	bcf	3,6	;RP1=0, select bank0
  5581     0ADC  1089               	bcf	9,1	;volatile
  5582     0ADD                     l1630:
  5583                           
  5584                           ;../00-Librerie.X/lcd.c: 99:     Lcd_Port(temp);
  5585     0ADD  0874               	movf	Lcd_Write_Char@temp,w
  5586     0ADE  120A  158A  21F2  120A  158A  	fcall	_Lcd_Port
  5587     0AE3                     l1632:
  5588                           
  5589                           ;../00-Librerie.X/lcd.c: 100:     PORTEbits.RE1 = 1;
  5590     0AE3  1283               	bcf	3,5	;RP0=0, select bank0
  5591     0AE4  1303               	bcf	3,6	;RP1=0, select bank0
  5592     0AE5  1489               	bsf	9,1	;volatile
  5593     0AE6                     l1634:
  5594                           
  5595                           ;../00-Librerie.X/lcd.c: 101:     _delay((unsigned long)((4)*(20*1000000/4000000.0)));
  5596     0AE6  3006               	movlw	6
  5597     0AE7  00F3               	movwf	??_Lcd_Write_Char
  5598     0AE8                     u3437:
  5599     0AE8  0BF3               	decfsz	??_Lcd_Write_Char,f
  5600     0AE9  2AE8               	goto	u3437
  5601     0AEA  0000               	nop
  5602     0AEB                     l1636:
  5603                           
  5604                           ;../00-Librerie.X/lcd.c: 102:     PORTEbits.RE1 = 0;
  5605     0AEB  1283               	bcf	3,5	;RP0=0, select bank0
  5606     0AEC  1303               	bcf	3,6	;RP1=0, select bank0
  5607     0AED  1089               	bcf	9,1	;volatile
  5608     0AEE                     l67:
  5609     0AEE  0008               	return
  5610     0AEF                     __end_of_Lcd_Write_Char:
  5611                           
  5612                           	psect	text15
  5613     0B6D                     __ptext15:	
  5614 ;; *************** function _Lcd_Init *****************
  5615 ;; Defined at:
  5616 ;;		line 41 in file "../00-Librerie.X/lcd.c"
  5617 ;; Parameters:    Size  Location     Type
  5618 ;;		None
  5619 ;; Auto vars:     Size  Location     Type
  5620 ;;		None
  5621 ;; Return value:  Size  Location     Type
  5622 ;;                  1    wreg      void 
  5623 ;; Registers used:
  5624 ;;		wreg, status,2, status,0, pclath, cstack
  5625 ;; Tracked objects:
  5626 ;;		On entry : 0/0
  5627 ;;		On exit  : 0/0
  5628 ;;		Unchanged: 0/0
  5629 ;; Data sizes:     COMMON   BANK0   BANK1   BANK3   BANK2
  5630 ;;      Params:         0       0       0       0       0
  5631 ;;      Locals:         0       0       0       0       0
  5632 ;;      Temps:          2       0       0       0       0
  5633 ;;      Totals:         2       0       0       0       0
  5634 ;;Total ram usage:        2 bytes
  5635 ;; Hardware stack levels used: 1
  5636 ;; Hardware stack levels required when called: 3
  5637 ;; This function calls:
  5638 ;;		_Lcd_Cmd
  5639 ;;		_Lcd_Port
  5640 ;; This function is called by:
  5641 ;;		_main
  5642 ;; This function uses a non-reentrant model
  5643 ;;
  5644                           
  5645     0B6D                     _Lcd_Init:	
  5646                           ;psect for function _Lcd_Init
  5647                           
  5648     0B6D                     l2140:	
  5649                           ;incstack = 0
  5650                           ; Regs used in _Lcd_Init: [wreg+status,2+status,0+pclath+cstack]
  5651                           
  5652                           
  5653                           ;../00-Librerie.X/lcd.c: 42:     TRISD &= ~0xff;
  5654     0B6D  1683               	bsf	3,5	;RP0=1, select bank1
  5655     0B6E  1303               	bcf	3,6	;RP1=0, select bank1
  5656     0B6F  0188               	clrf	8	;volatile
  5657     0B70                     l2142:
  5658                           
  5659                           ;../00-Librerie.X/lcd.c: 43:     TRISE &= ~0x06;
  5660     0B70  30F9               	movlw	249
  5661     0B71  00F6               	movwf	??_Lcd_Init
  5662     0B72  0876               	movf	??_Lcd_Init,w
  5663     0B73  0589               	andwf	9,f	;volatile
  5664     0B74                     l2144:
  5665                           
  5666                           ;../00-Librerie.X/lcd.c: 44:     Lcd_Port(0x00);
  5667     0B74  3000               	movlw	0
  5668     0B75  120A  158A  21F2  120A  158A  	fcall	_Lcd_Port
  5669     0B7A                     l2146:
  5670                           
  5671                           ;../00-Librerie.X/lcd.c: 45:     _delay((unsigned long)((20)*(20*1000000/4000.0)));
  5672     0B7A  3082               	movlw	130
  5673     0B7B  00F7               	movwf	??_Lcd_Init+1
  5674     0B7C  30DD               	movlw	221
  5675     0B7D  00F6               	movwf	??_Lcd_Init
  5676     0B7E                     u3447:
  5677     0B7E  0BF6               	decfsz	??_Lcd_Init,f
  5678     0B7F  2B7E               	goto	u3447
  5679     0B80  0BF7               	decfsz	??_Lcd_Init+1,f
  5680     0B81  2B7E               	goto	u3447
  5681     0B82  2B83               	nop2
  5682     0B83                     l2148:
  5683                           
  5684                           ;../00-Librerie.X/lcd.c: 46:     Lcd_Cmd(0x03);
  5685     0B83  3003               	movlw	3
  5686     0B84  120A  158A  21B0  120A  158A  	fcall	_Lcd_Cmd
  5687     0B89                     l2150:
  5688                           
  5689                           ;../00-Librerie.X/lcd.c: 47:     _delay((unsigned long)((5)*(20*1000000/4000.0)));
  5690     0B89  3021               	movlw	33
  5691     0B8A  00F7               	movwf	??_Lcd_Init+1
  5692     0B8B  3076               	movlw	118
  5693     0B8C  00F6               	movwf	??_Lcd_Init
  5694     0B8D                     u3457:
  5695     0B8D  0BF6               	decfsz	??_Lcd_Init,f
  5696     0B8E  2B8D               	goto	u3457
  5697     0B8F  0BF7               	decfsz	??_Lcd_Init+1,f
  5698     0B90  2B8D               	goto	u3457
  5699     0B91  0000               	nop
  5700     0B92                     l2152:
  5701                           
  5702                           ;../00-Librerie.X/lcd.c: 48:     Lcd_Cmd(0x03);
  5703     0B92  3003               	movlw	3
  5704     0B93  120A  158A  21B0  120A  158A  	fcall	_Lcd_Cmd
  5705     0B98                     l2154:
  5706                           
  5707                           ;../00-Librerie.X/lcd.c: 49:     _delay((unsigned long)((10)*(20*1000000/4000.0)));
  5708     0B98  3041               	movlw	65
  5709     0B99  00F7               	movwf	??_Lcd_Init+1
  5710     0B9A  30EE               	movlw	238
  5711     0B9B  00F6               	movwf	??_Lcd_Init
  5712     0B9C                     u3467:
  5713     0B9C  0BF6               	decfsz	??_Lcd_Init,f
  5714     0B9D  2B9C               	goto	u3467
  5715     0B9E  0BF7               	decfsz	??_Lcd_Init+1,f
  5716     0B9F  2B9C               	goto	u3467
  5717     0BA0  0000               	nop
  5718     0BA1                     l2156:
  5719                           
  5720                           ;../00-Librerie.X/lcd.c: 50:     Lcd_Cmd(0x03);
  5721     0BA1  3003               	movlw	3
  5722     0BA2  120A  158A  21B0  120A  158A  	fcall	_Lcd_Cmd
  5723     0BA7                     l2158:
  5724                           
  5725                           ;../00-Librerie.X/lcd.c: 52:     Lcd_Cmd(0x02);
  5726     0BA7  3002               	movlw	2
  5727     0BA8  120A  158A  21B0  120A  158A  	fcall	_Lcd_Cmd
  5728     0BAD                     l2160:
  5729                           
  5730                           ;../00-Librerie.X/lcd.c: 54:     Lcd_Cmd(0x02);
  5731     0BAD  3002               	movlw	2
  5732     0BAE  120A  158A  21B0  120A  158A  	fcall	_Lcd_Cmd
  5733     0BB3                     l2162:
  5734                           
  5735                           ;../00-Librerie.X/lcd.c: 55:     Lcd_Cmd(0x08);
  5736     0BB3  3008               	movlw	8
  5737     0BB4  120A  158A  21B0  120A  158A  	fcall	_Lcd_Cmd
  5738     0BB9                     l2164:
  5739                           
  5740                           ;../00-Librerie.X/lcd.c: 57:     Lcd_Cmd(0x00);
  5741     0BB9  3000               	movlw	0
  5742     0BBA  120A  158A  21B0  120A  158A  	fcall	_Lcd_Cmd
  5743     0BBF                     l2166:
  5744                           
  5745                           ;../00-Librerie.X/lcd.c: 58:     Lcd_Cmd(0x0C);
  5746     0BBF  300C               	movlw	12
  5747     0BC0  120A  158A  21B0  120A  158A  	fcall	_Lcd_Cmd
  5748     0BC5                     l2168:
  5749                           
  5750                           ;../00-Librerie.X/lcd.c: 60:     Lcd_Cmd(0x00);
  5751     0BC5  3000               	movlw	0
  5752     0BC6  120A  158A  21B0  120A  158A  	fcall	_Lcd_Cmd
  5753     0BCB                     l2170:
  5754                           
  5755                           ;../00-Librerie.X/lcd.c: 61:     Lcd_Cmd(0x06);
  5756     0BCB  3006               	movlw	6
  5757     0BCC  120A  158A  21B0  120A  158A  	fcall	_Lcd_Cmd
  5758     0BD1                     l55:
  5759     0BD1  0008               	return
  5760     0BD2                     __end_of_Lcd_Init:
  5761                           
  5762                           	psect	text16
  5763     09A3                     __ptext16:	
  5764 ;; *************** function _Lcd_Clear *****************
  5765 ;; Defined at:
  5766 ;;		line 64 in file "../00-Librerie.X/lcd.c"
  5767 ;; Parameters:    Size  Location     Type
  5768 ;;		None
  5769 ;; Auto vars:     Size  Location     Type
  5770 ;;		None
  5771 ;; Return value:  Size  Location     Type
  5772 ;;                  1    wreg      void 
  5773 ;; Registers used:
  5774 ;;		wreg, status,2, status,0, pclath, cstack
  5775 ;; Tracked objects:
  5776 ;;		On entry : 0/0
  5777 ;;		On exit  : 0/0
  5778 ;;		Unchanged: 0/0
  5779 ;; Data sizes:     COMMON   BANK0   BANK1   BANK3   BANK2
  5780 ;;      Params:         0       0       0       0       0
  5781 ;;      Locals:         0       0       0       0       0
  5782 ;;      Temps:          0       0       0       0       0
  5783 ;;      Totals:         0       0       0       0       0
  5784 ;;Total ram usage:        0 bytes
  5785 ;; Hardware stack levels used: 1
  5786 ;; Hardware stack levels required when called: 3
  5787 ;; This function calls:
  5788 ;;		_Lcd_Cmd
  5789 ;; This function is called by:
  5790 ;;		_main
  5791 ;; This function uses a non-reentrant model
  5792 ;;
  5793                           
  5794     09A3                     _Lcd_Clear:	
  5795                           ;psect for function _Lcd_Clear
  5796                           
  5797     09A3                     l2172:	
  5798                           ;incstack = 0
  5799                           ; Regs used in _Lcd_Clear: [wreg+status,2+status,0+pclath+cstack]
  5800                           
  5801                           
  5802                           ;../00-Librerie.X/lcd.c: 66:     Lcd_Cmd(0);
  5803     09A3  3000               	movlw	0
  5804     09A4  120A  158A  21B0  120A  158A  	fcall	_Lcd_Cmd
  5805                           
  5806                           ;../00-Librerie.X/lcd.c: 67:     Lcd_Cmd(1);
  5807     09A9  3001               	movlw	1
  5808     09AA  120A  158A  21B0  120A  158A  	fcall	_Lcd_Cmd
  5809     09AF                     l58:
  5810     09AF  0008               	return
  5811     09B0                     __end_of_Lcd_Clear:
  5812                           
  5813                           	psect	text17
  5814     09B0                     __ptext17:	
  5815 ;; *************** function _Lcd_Cmd *****************
  5816 ;; Defined at:
  5817 ;;		line 29 in file "../00-Librerie.X/lcd.c"
  5818 ;; Parameters:    Size  Location     Type
  5819 ;;  a               1    wreg     unsigned char 
  5820 ;; Auto vars:     Size  Location     Type
  5821 ;;  a               1    5[COMMON] unsigned char 
  5822 ;; Return value:  Size  Location     Type
  5823 ;;                  1    wreg      void 
  5824 ;; Registers used:
  5825 ;;		wreg, status,2, status,0, pclath, cstack
  5826 ;; Tracked objects:
  5827 ;;		On entry : 0/0
  5828 ;;		On exit  : 0/0
  5829 ;;		Unchanged: 0/0
  5830 ;; Data sizes:     COMMON   BANK0   BANK1   BANK3   BANK2
  5831 ;;      Params:         0       0       0       0       0
  5832 ;;      Locals:         1       0       0       0       0
  5833 ;;      Temps:          2       0       0       0       0
  5834 ;;      Totals:         3       0       0       0       0
  5835 ;;Total ram usage:        3 bytes
  5836 ;; Hardware stack levels used: 1
  5837 ;; Hardware stack levels required when called: 2
  5838 ;; This function calls:
  5839 ;;		_Lcd_Port
  5840 ;; This function is called by:
  5841 ;;		_Lcd_Init
  5842 ;;		_Lcd_Clear
  5843 ;;		_Lcd_Set_Cursor
  5844 ;;		_Lcd_Shift_Right
  5845 ;;		_Lcd_Shift_Left
  5846 ;; This function uses a non-reentrant model
  5847 ;;
  5848                           
  5849     09B0                     _Lcd_Cmd:	
  5850                           ;psect for function _Lcd_Cmd
  5851                           
  5852                           
  5853                           ;incstack = 0
  5854                           ; Regs used in _Lcd_Cmd: [wreg+status,2+status,0+pclath+cstack]
  5855                           ;Lcd_Cmd@a stored from wreg
  5856     09B0  00F5               	movwf	Lcd_Cmd@a
  5857     09B1                     l1846:
  5858                           
  5859                           ;../00-Librerie.X/lcd.c: 30:     TRISD &= ~0xff;
  5860     09B1  1683               	bsf	3,5	;RP0=1, select bank1
  5861     09B2  1303               	bcf	3,6	;RP1=0, select bank1
  5862     09B3  0188               	clrf	8	;volatile
  5863     09B4                     l1848:
  5864                           
  5865                           ;../00-Librerie.X/lcd.c: 31:     TRISE &= ~0x06;
  5866     09B4  30F9               	movlw	249
  5867     09B5  00F3               	movwf	??_Lcd_Cmd
  5868     09B6  0873               	movf	??_Lcd_Cmd,w
  5869     09B7  0589               	andwf	9,f	;volatile
  5870     09B8                     l1850:
  5871                           
  5872                           ;../00-Librerie.X/lcd.c: 34:     PORTEbits.RE2 = 0;
  5873     09B8  1283               	bcf	3,5	;RP0=0, select bank0
  5874     09B9  1303               	bcf	3,6	;RP1=0, select bank0
  5875     09BA  1109               	bcf	9,2	;volatile
  5876     09BB                     l1852:
  5877                           
  5878                           ;../00-Librerie.X/lcd.c: 35:     Lcd_Port(a);
  5879     09BB  0875               	movf	Lcd_Cmd@a,w
  5880     09BC  120A  158A  21F2  120A  158A  	fcall	_Lcd_Port
  5881     09C1                     l1854:
  5882                           
  5883                           ;../00-Librerie.X/lcd.c: 36:     PORTEbits.RE1 = 1;
  5884     09C1  1283               	bcf	3,5	;RP0=0, select bank0
  5885     09C2  1303               	bcf	3,6	;RP1=0, select bank0
  5886     09C3  1489               	bsf	9,1	;volatile
  5887     09C4                     l1856:
  5888                           
  5889                           ;../00-Librerie.X/lcd.c: 37:     _delay((unsigned long)((4)*(20*1000000/4000.0)));
  5890     09C4  301A               	movlw	26
  5891     09C5  00F4               	movwf	??_Lcd_Cmd+1
  5892     09C6  30F8               	movlw	248
  5893     09C7  00F3               	movwf	??_Lcd_Cmd
  5894     09C8                     u3477:
  5895     09C8  0BF3               	decfsz	??_Lcd_Cmd,f
  5896     09C9  29C8               	goto	u3477
  5897     09CA  0BF4               	decfsz	??_Lcd_Cmd+1,f
  5898     09CB  29C8               	goto	u3477
  5899     09CC  0000               	nop
  5900     09CD                     l1858:
  5901                           
  5902                           ;../00-Librerie.X/lcd.c: 38:     PORTEbits.RE1 = 0;
  5903     09CD  1283               	bcf	3,5	;RP0=0, select bank0
  5904     09CE  1303               	bcf	3,6	;RP1=0, select bank0
  5905     09CF  1089               	bcf	9,1	;volatile
  5906     09D0                     l52:
  5907     09D0  0008               	return
  5908     09D1                     __end_of_Lcd_Cmd:
  5909                           
  5910                           	psect	text18
  5911     09F2                     __ptext18:	
  5912 ;; *************** function _Lcd_Port *****************
  5913 ;; Defined at:
  5914 ;;		line 14 in file "../00-Librerie.X/lcd.c"
  5915 ;; Parameters:    Size  Location     Type
  5916 ;;  a               1    wreg     unsigned char 
  5917 ;; Auto vars:     Size  Location     Type
  5918 ;;  a               1    2[COMMON] unsigned char 
  5919 ;; Return value:  Size  Location     Type
  5920 ;;                  1    wreg      void 
  5921 ;; Registers used:
  5922 ;;		wreg
  5923 ;; Tracked objects:
  5924 ;;		On entry : 0/0
  5925 ;;		On exit  : 0/0
  5926 ;;		Unchanged: 0/0
  5927 ;; Data sizes:     COMMON   BANK0   BANK1   BANK3   BANK2
  5928 ;;      Params:         0       0       0       0       0
  5929 ;;      Locals:         1       0       0       0       0
  5930 ;;      Temps:          0       0       0       0       0
  5931 ;;      Totals:         1       0       0       0       0
  5932 ;;Total ram usage:        1 bytes
  5933 ;; Hardware stack levels used: 1
  5934 ;; Hardware stack levels required when called: 1
  5935 ;; This function calls:
  5936 ;;		Nothing
  5937 ;; This function is called by:
  5938 ;;		_Lcd_Cmd
  5939 ;;		_Lcd_Init
  5940 ;;		_Lcd_Write_Char
  5941 ;; This function uses a non-reentrant model
  5942 ;;
  5943                           
  5944     09F2                     _Lcd_Port:	
  5945                           ;psect for function _Lcd_Port
  5946                           
  5947                           
  5948                           ;incstack = 0
  5949                           ; Regs used in _Lcd_Port: [wreg]
  5950                           ;Lcd_Port@a stored from wreg
  5951     09F2  00F2               	movwf	Lcd_Port@a
  5952     09F3                     l1608:
  5953                           
  5954                           ;../00-Librerie.X/lcd.c: 16:     if (a & 1) PORTDbits.RD4 = 1;
  5955     09F3  1C72               	btfss	Lcd_Port@a,0
  5956     09F4  29F6               	goto	u1761
  5957     09F5  29F7               	goto	u1760
  5958     09F6                     u1761:
  5959     09F6  29FB               	goto	l41
  5960     09F7                     u1760:
  5961     09F7                     l1610:
  5962     09F7  1283               	bcf	3,5	;RP0=0, select bank0
  5963     09F8  1303               	bcf	3,6	;RP1=0, select bank0
  5964     09F9  1608               	bsf	8,4	;volatile
  5965     09FA  29FE               	goto	l42
  5966     09FB                     l41:	
  5967                           ;../00-Librerie.X/lcd.c: 17:     else PORTDbits.RD4 = 0;
  5968                           
  5969     09FB  1283               	bcf	3,5	;RP0=0, select bank0
  5970     09FC  1303               	bcf	3,6	;RP1=0, select bank0
  5971     09FD  1208               	bcf	8,4	;volatile
  5972     09FE                     l42:
  5973                           
  5974                           ;../00-Librerie.X/lcd.c: 19:     if (a & 2) PORTDbits.RD5 = 1;
  5975     09FE  1CF2               	btfss	Lcd_Port@a,1
  5976     09FF  2A01               	goto	u1771
  5977     0A00  2A02               	goto	u1770
  5978     0A01                     u1771:
  5979     0A01  2A04               	goto	l43
  5980     0A02                     u1770:
  5981     0A02                     l1612:
  5982     0A02  1688               	bsf	8,5	;volatile
  5983     0A03  2A05               	goto	l44
  5984     0A04                     l43:	
  5985                           ;../00-Librerie.X/lcd.c: 20:     else PORTDbits.RD5 = 0;
  5986                           
  5987     0A04  1288               	bcf	8,5	;volatile
  5988     0A05                     l44:
  5989                           
  5990                           ;../00-Librerie.X/lcd.c: 22:     if (a & 4) PORTDbits.RD6 = 1;
  5991     0A05  1D72               	btfss	Lcd_Port@a,2
  5992     0A06  2A08               	goto	u1781
  5993     0A07  2A09               	goto	u1780
  5994     0A08                     u1781:
  5995     0A08  2A0B               	goto	l45
  5996     0A09                     u1780:
  5997     0A09                     l1614:
  5998     0A09  1708               	bsf	8,6	;volatile
  5999     0A0A  2A0C               	goto	l46
  6000     0A0B                     l45:	
  6001                           ;../00-Librerie.X/lcd.c: 23:     else PORTDbits.RD6 = 0;
  6002                           
  6003     0A0B  1308               	bcf	8,6	;volatile
  6004     0A0C                     l46:
  6005                           
  6006                           ;../00-Librerie.X/lcd.c: 25:     if (a & 8) PORTDbits.RD7 = 1;
  6007     0A0C  1DF2               	btfss	Lcd_Port@a,3
  6008     0A0D  2A0F               	goto	u1791
  6009     0A0E  2A10               	goto	u1790
  6010     0A0F                     u1791:
  6011     0A0F  2A12               	goto	l47
  6012     0A10                     u1790:
  6013     0A10                     l1616:
  6014     0A10  1788               	bsf	8,7	;volatile
  6015     0A11  2A13               	goto	l49
  6016     0A12                     l47:	
  6017                           ;../00-Librerie.X/lcd.c: 26:     else PORTDbits.RD7 = 0;
  6018                           
  6019     0A12  1388               	bcf	8,7	;volatile
  6020     0A13                     l49:
  6021     0A13  0008               	return
  6022     0A14                     __end_of_Lcd_Port:
  6023                           
  6024                           	psect	text19
  6025     0A8B                     __ptext19:	
  6026 ;; *************** function _Adc_Read *****************
  6027 ;; Defined at:
  6028 ;;		line 10 in file "../00-Librerie.X/Adc.c"
  6029 ;; Parameters:    Size  Location     Type
  6030 ;;  channel         1    wreg     unsigned char 
  6031 ;; Auto vars:     Size  Location     Type
  6032 ;;  channel         1    6[COMMON] unsigned char 
  6033 ;; Return value:  Size  Location     Type
  6034 ;;                  2    2[COMMON] int 
  6035 ;; Registers used:
  6036 ;;		wreg, status,2, status,0
  6037 ;; Tracked objects:
  6038 ;;		On entry : 0/0
  6039 ;;		On exit  : 0/0
  6040 ;;		Unchanged: 0/0
  6041 ;; Data sizes:     COMMON   BANK0   BANK1   BANK3   BANK2
  6042 ;;      Params:         2       0       0       0       0
  6043 ;;      Locals:         1       0       0       0       0
  6044 ;;      Temps:          2       0       0       0       0
  6045 ;;      Totals:         5       0       0       0       0
  6046 ;;Total ram usage:        5 bytes
  6047 ;; Hardware stack levels used: 1
  6048 ;; Hardware stack levels required when called: 1
  6049 ;; This function calls:
  6050 ;;		Nothing
  6051 ;; This function is called by:
  6052 ;;		_main
  6053 ;; This function uses a non-reentrant model
  6054 ;;
  6055                           
  6056     0A8B                     _Adc_Read:	
  6057                           ;psect for function _Adc_Read
  6058                           
  6059                           
  6060                           ;incstack = 0
  6061                           ; Regs used in _Adc_Read: [wreg+status,2+status,0]
  6062                           ;Adc_Read@channel stored from wreg
  6063     0A8B  00F6               	movwf	Adc_Read@channel
  6064     0A8C                     l2128:
  6065                           
  6066                           ;../00-Librerie.X/Adc.c: 11:     TRISA |= 0x01;
  6067     0A8C  1683               	bsf	3,5	;RP0=1, select bank1
  6068     0A8D  1303               	bcf	3,6	;RP1=0, select bank1
  6069     0A8E  1405               	bsf	5,0	;volatile
  6070     0A8F                     l2130:
  6071                           
  6072                           ;../00-Librerie.X/Adc.c: 13:     ADCON0 &= ~0x38;
  6073     0A8F  30C7               	movlw	199
  6074     0A90  00F4               	movwf	??_Adc_Read
  6075     0A91  0874               	movf	??_Adc_Read,w
  6076     0A92  1283               	bcf	3,5	;RP0=0, select bank0
  6077     0A93  1303               	bcf	3,6	;RP1=0, select bank0
  6078     0A94  059F               	andwf	31,f	;volatile
  6079                           
  6080                           ;../00-Librerie.X/Adc.c: 15:     ADCON0 |= channel << 3;
  6081     0A95  0876               	movf	Adc_Read@channel,w	;volatile
  6082     0A96  00F4               	movwf	??_Adc_Read
  6083     0A97  3002               	movlw	2
  6084     0A98                     u2985:
  6085     0A98  1003               	clrc
  6086     0A99  0DF4               	rlf	??_Adc_Read,f
  6087     0A9A  3EFF               	addlw	-1
  6088     0A9B  1D03               	skipz
  6089     0A9C  2A98               	goto	u2985
  6090     0A9D  1003               	clrc
  6091     0A9E  0D74               	rlf	??_Adc_Read,w
  6092     0A9F  00F5               	movwf	??_Adc_Read+1
  6093     0AA0  0875               	movf	??_Adc_Read+1,w
  6094     0AA1  049F               	iorwf	31,f	;volatile
  6095     0AA2                     l2132:
  6096                           
  6097                           ;../00-Librerie.X/Adc.c: 17:     _delay((unsigned long)((1)*(20*10000000/4000.0)));
  6098     0AA2  3041               	movlw	65
  6099     0AA3  00F5               	movwf	??_Adc_Read+1
  6100     0AA4  30EE               	movlw	238
  6101     0AA5  00F4               	movwf	??_Adc_Read
  6102     0AA6                     u3487:
  6103     0AA6  0BF4               	decfsz	??_Adc_Read,f
  6104     0AA7  2AA6               	goto	u3487
  6105     0AA8  0BF5               	decfsz	??_Adc_Read+1,f
  6106     0AA9  2AA6               	goto	u3487
  6107     0AAA  0000               	nop
  6108     0AAB                     l2134:
  6109                           
  6110                           ;../00-Librerie.X/Adc.c: 19:     ADCON0 |= 1 << 2;
  6111     0AAB  1283               	bcf	3,5	;RP0=0, select bank0
  6112     0AAC  1303               	bcf	3,6	;RP1=0, select bank0
  6113     0AAD  151F               	bsf	31,2	;volatile
  6114     0AAE                     l25:	
  6115                           ;../00-Librerie.X/Adc.c: 21:     while(ADCON0 & 0x04) { }
  6116                           
  6117     0AAE  191F               	btfsc	31,2	;volatile
  6118     0AAF  2AB1               	goto	u2991
  6119     0AB0  2AB2               	goto	u2990
  6120     0AB1                     u2991:
  6121     0AB1  2AAE               	goto	l25
  6122     0AB2                     u2990:
  6123     0AB2                     l27:
  6124                           
  6125                           ;../00-Librerie.X/Adc.c: 23:     ADCON0 |= 0x04;
  6126     0AB2  151F               	bsf	31,2	;volatile
  6127     0AB3                     l2136:
  6128                           
  6129                           ;../00-Librerie.X/Adc.c: 25:     return ADRESL + (ADRESH << 8);
  6130     0AB3  081E               	movf	30,w	;volatile
  6131     0AB4  00F3               	movwf	?_Adc_Read+1
  6132     0AB5  1683               	bsf	3,5	;RP0=1, select bank1
  6133     0AB6  1303               	bcf	3,6	;RP1=0, select bank1
  6134     0AB7  081E               	movf	30,w	;volatile
  6135     0AB8  00F2               	movwf	?_Adc_Read
  6136     0AB9                     l28:
  6137     0AB9  0008               	return
  6138     0ABA                     __end_of_Adc_Read:
  6139                           
  6140                           	psect	text20
  6141     099A                     __ptext20:	
  6142 ;; *************** function _Adc_Init *****************
  6143 ;; Defined at:
  6144 ;;		line 5 in file "../00-Librerie.X/Adc.c"
  6145 ;; Parameters:    Size  Location     Type
  6146 ;;		None
  6147 ;; Auto vars:     Size  Location     Type
  6148 ;;		None
  6149 ;; Return value:  Size  Location     Type
  6150 ;;                  1    wreg      void 
  6151 ;; Registers used:
  6152 ;;		wreg
  6153 ;; Tracked objects:
  6154 ;;		On entry : 0/0
  6155 ;;		On exit  : 0/0
  6156 ;;		Unchanged: 0/0
  6157 ;; Data sizes:     COMMON   BANK0   BANK1   BANK3   BANK2
  6158 ;;      Params:         0       0       0       0       0
  6159 ;;      Locals:         0       0       0       0       0
  6160 ;;      Temps:          0       0       0       0       0
  6161 ;;      Totals:         0       0       0       0       0
  6162 ;;Total ram usage:        0 bytes
  6163 ;; Hardware stack levels used: 1
  6164 ;; Hardware stack levels required when called: 1
  6165 ;; This function calls:
  6166 ;;		Nothing
  6167 ;; This function is called by:
  6168 ;;		_main
  6169 ;; This function uses a non-reentrant model
  6170 ;;
  6171                           
  6172     099A                     _Adc_Init:	
  6173                           ;psect for function _Adc_Init
  6174                           
  6175     099A                     l2126:	
  6176                           ;incstack = 0
  6177                           ; Regs used in _Adc_Init: [wreg]
  6178                           
  6179                           
  6180                           ;../00-Librerie.X/Adc.c: 6:     ADCON0 = 0x81;
  6181     099A  3081               	movlw	129
  6182     099B  1283               	bcf	3,5	;RP0=0, select bank0
  6183     099C  1303               	bcf	3,6	;RP1=0, select bank0
  6184     099D  009F               	movwf	31	;volatile
  6185                           
  6186                           ;../00-Librerie.X/Adc.c: 7:     ADCON1 = 0x80;
  6187     099E  3080               	movlw	128
  6188     099F  1683               	bsf	3,5	;RP0=1, select bank1
  6189     09A0  1303               	bcf	3,6	;RP1=0, select bank1
  6190     09A1  009F               	movwf	31	;volatile
  6191     09A2                     l22:
  6192     09A2  0008               	return
  6193     09A3                     __end_of_Adc_Init:
  6194                           
  6195                           	psect	text21
  6196     0A5F                     __ptext21:	
  6197 ;; *************** function _ISR *****************
  6198 ;; Defined at:
  6199 ;;		line 64 in file "main.c"
  6200 ;; Parameters:    Size  Location     Type
  6201 ;;		None
  6202 ;; Auto vars:     Size  Location     Type
  6203 ;;		None
  6204 ;; Return value:  Size  Location     Type
  6205 ;;                  1    wreg      void 
  6206 ;; Registers used:
  6207 ;;		wreg, status,0
  6208 ;; Tracked objects:
  6209 ;;		On entry : 0/0
  6210 ;;		On exit  : 0/0
  6211 ;;		Unchanged: 0/0
  6212 ;; Data sizes:     COMMON   BANK0   BANK1   BANK3   BANK2
  6213 ;;      Params:         0       0       0       0       0
  6214 ;;      Locals:         0       0       0       0       0
  6215 ;;      Temps:          2       0       0       0       0
  6216 ;;      Totals:         2       0       0       0       0
  6217 ;;Total ram usage:        2 bytes
  6218 ;; Hardware stack levels used: 1
  6219 ;; This function calls:
  6220 ;;		Nothing
  6221 ;; This function is called by:
  6222 ;;		Interrupt level 1
  6223 ;; This function uses a non-reentrant model
  6224 ;;
  6225                           
  6226     0A5F                     _ISR:	
  6227                           ;psect for function _ISR
  6228                           
  6229     0A5F                     i1l2374:
  6230                           
  6231                           ;main.c: 65:     if (T0IF) {
  6232     0A5F  1D0B               	btfss	11,2	;volatile
  6233     0A60  2A62               	goto	u338_21
  6234     0A61  2A63               	goto	u338_20
  6235     0A62                     u338_21:
  6236     0A62  2A84               	goto	i1l168
  6237     0A63                     u338_20:
  6238     0A63                     i1l2376:
  6239                           
  6240                           ;main.c: 66:         PORTCbits.RC5 = ~PORTCbits.RC5;
  6241     0A63  1003               	clrc
  6242     0A64  1283               	bcf	3,5	;RP0=0, select bank0
  6243     0A65  1303               	bcf	3,6	;RP1=0, select bank0
  6244     0A66  1E87               	btfss	7,5	;volatile
  6245     0A67  1403               	setc
  6246     0A68  1803               	btfsc	3,0
  6247     0A69  2A6B               	goto	u339_21
  6248     0A6A  2A6F               	goto	u339_20
  6249     0A6B                     u339_21:
  6250     0A6B  1283               	bcf	3,5	;RP0=0, select bank0
  6251     0A6C  1303               	bcf	3,6	;RP1=0, select bank0
  6252     0A6D  1687               	bsf	7,5	;volatile
  6253     0A6E  2A72               	goto	u340_24
  6254     0A6F                     u339_20:
  6255     0A6F  1283               	bcf	3,5	;RP0=0, select bank0
  6256     0A70  1303               	bcf	3,6	;RP1=0, select bank0
  6257     0A71  1287               	bcf	7,5	;volatile
  6258     0A72                     u340_24:
  6259     0A72                     i1l2378:
  6260                           
  6261                           ;main.c: 67:         T0IF = 0;
  6262     0A72  110B               	bcf	11,2	;volatile
  6263     0A73                     i1l2380:
  6264                           
  6265                           ;main.c: 68:         if (PORTCbits.RC5) TMR0 = high_time;
  6266     0A73  1E87               	btfss	7,5	;volatile
  6267     0A74  2A76               	goto	u341_21
  6268     0A75  2A77               	goto	u341_20
  6269     0A76                     u341_21:
  6270     0A76  2A7E               	goto	i1l2384
  6271     0A77                     u341_20:
  6272     0A77                     i1l2382:
  6273     0A77  1683               	bsf	3,5	;RP0=1, select bank1
  6274     0A78  1303               	bcf	3,6	;RP1=0, select bank1
  6275     0A79  084B               	movf	_high_time^(0+128),w
  6276     0A7A  1283               	bcf	3,5	;RP0=0, select bank0
  6277     0A7B  1303               	bcf	3,6	;RP1=0, select bank0
  6278     0A7C  0081               	movwf	1	;volatile
  6279     0A7D  2A84               	goto	i1l168
  6280     0A7E                     i1l2384:
  6281     0A7E  1683               	bsf	3,5	;RP0=1, select bank1
  6282     0A7F  1303               	bcf	3,6	;RP1=0, select bank1
  6283     0A80  084A               	movf	_low_time^(0+128),w
  6284     0A81  1283               	bcf	3,5	;RP0=0, select bank0
  6285     0A82  1303               	bcf	3,6	;RP1=0, select bank0
  6286     0A83  0081               	movwf	1	;volatile
  6287     0A84                     i1l168:
  6288     0A84  0871               	movf	??_ISR+1,w
  6289     0A85  008A               	movwf	10
  6290     0A86  0E70               	swapf	??_ISR,w
  6291     0A87  0083               	movwf	3
  6292     0A88  0EFE               	swapf	btemp,f
  6293     0A89  0E7E               	swapf	btemp,w
  6294     0A8A  0009               	retfie
  6295     0A8B                     __end_of_ISR:
  6296     007E                     btemp	set	126	;btemp
  6297     007E                     wtemp0	set	126
  6298                           
  6299                           	psect	intentry
  6300     0004                     __pintentry:	
  6301                           ;incstack = 0
  6302                           ; Regs used in _ISR: [wreg+status,0]
  6303                           
  6304     0004                     interrupt_function:
  6305     007E                     saved_w	set	btemp
  6306     0004  00FE               	movwf	btemp
  6307     0005  0E03               	swapf	3,w
  6308     0006  00F0               	movwf	??_ISR
  6309     0007  080A               	movf	10,w
  6310     0008  00F1               	movwf	??_ISR+1
  6311     0009  120A  158A  2A5F   	ljmp	_ISR
  6312                           
  6313                           	psect	idloc
  6314                           
  6315                           ;Config register IDLOC0 @ 0x2000
  6316                           ;	unspecified, using default values
  6317     2000                     	org	8192
  6318     2000  3FFF               	dw	16383
  6319                           
  6320                           ;Config register IDLOC1 @ 0x2001
  6321                           ;	unspecified, using default values
  6322     2001                     	org	8193
  6323     2001  3FFF               	dw	16383
  6324                           
  6325                           ;Config register IDLOC2 @ 0x2002
  6326                           ;	unspecified, using default values
  6327     2002                     	org	8194
  6328     2002  3FFF               	dw	16383
  6329                           
  6330                           ;Config register IDLOC3 @ 0x2003
  6331                           ;	unspecified, using default values
  6332     2003                     	org	8195
  6333     2003  3FFF               	dw	16383
  6334                           
  6335                           	psect	config
  6336                           
  6337                           ;Config register CONFIG @ 0x2007
  6338                           ;	Oscillator Selection bits
  6339                           ;	FOSC = HS, HS oscillator
  6340                           ;	Watchdog Timer Enable bit
  6341                           ;	WDTE = OFF, WDT disabled
  6342                           ;	Power-up Timer Enable bit
  6343                           ;	PWRTE = ON, PWRT enabled
  6344                           ;	Brown-out Reset Enable bit
  6345                           ;	BOREN = ON, BOR enabled
  6346                           ;	Low-Voltage (Single-Supply) In-Circuit Serial Programming Enable bit
  6347                           ;	LVP = ON, RB3/PGM pin has PGM function; low-voltage programming enabled
  6348                           ;	Data EEPROM Memory Code Protection bit
  6349                           ;	CPD = OFF, Data EEPROM code protection off
  6350                           ;	Flash Program Memory Write Enable bits
  6351                           ;	WRT = OFF, Write protection off; all program memory may be written to by EECON control
  6352                           ;	In-Circuit Debugger Mode bit
  6353                           ;	DEBUG = 0x1, unprogrammed default
  6354                           ;	Flash Program Memory Code Protection bit
  6355                           ;	CP = OFF, Code protection off
  6356     2007                     	org	8199
  6357     2007  3FF2               	dw	16370

Data Sizes:
    Strings     0
    Constant    22
    Data        0
    BSS         12
    Persistent  0
    Stack       0

Auto Spaces:
    Space          Size  Autos    Used
    COMMON           14     11      12
    BANK0            80     80      80
    BANK1            80     34      45
    BANK3            96      0       0
    BANK2            96      0       0

Pointer List with Targets:

    Lcd_Write_String@a	PTR unsigned char  size(1) Largest target is 50
		 -> Lcd_Write_Int@buffer(BANK0[50]), 


Critical Paths under _main in COMMON

    ___flmul->__Umul8_16
    _Lcd_Write_Int->_Lcd_Write_String
    _Lcd_Write_Int->___awdiv
    _Lcd_Write_String->_Lcd_Write_Char
    _Lcd_Write_Char->_Lcd_Port
    _Lcd_Init->_Lcd_Cmd
    _Lcd_Clear->_Lcd_Cmd
    _Lcd_Cmd->_Lcd_Port

Critical Paths under _ISR in COMMON

    None.

Critical Paths under _main in BANK0

    _main->___fltol
    _pid_controller->___flsub
    ___flsub->___fladd
    ___fladd->___flmul
    ___fltol->_pid_controller

Critical Paths under _ISR in BANK0

    None.

Critical Paths under _main in BANK1

    _main->_pid_controller
    ___fltol->_pid_controller

Critical Paths under _ISR in BANK1

    None.

Critical Paths under _main in BANK3

    None.

Critical Paths under _ISR in BANK3

    None.

Critical Paths under _main in BANK2

    None.

Critical Paths under _ISR in BANK2

    None.

Call Graph Tables:

 ---------------------------------------------------------------------------------
 (Depth) Function   	        Calls       Base Space   Used Autos Params    Refs
 ---------------------------------------------------------------------------------
 (0) _main                                                 8     8      0   13400
                                             28 BANK1      6     6      0
                           _Adc_Init
                           _Adc_Read
                          _Lcd_Clear
                           _Lcd_Init
                      _Lcd_Write_Int
                            ___fltol
                           ___xxtofl
                     _pid_controller
 ---------------------------------------------------------------------------------
 (1) _pid_controller                                      44    16     28   10022
                                             54 BANK0     16    16      0
                                              0 BANK1     28     0     28
                            ___fladd
                             ___flge
                            ___flmul
                            ___flsub
                           ___xxtofl (ARG)
 ---------------------------------------------------------------------------------
 (2) ___flsub                                              8     0      8    3245
                                             46 BANK0      8     0      8
                            ___fladd
 ---------------------------------------------------------------------------------
 (3) ___fladd                                             20    12      8    2592
                                             26 BANK0     20    12      8
                            ___flmul (ARG)
 ---------------------------------------------------------------------------------
 (2) ___flmul                                             26    18      8    2721
                                              0 BANK0     26    18      8
                          __Umul8_16
 ---------------------------------------------------------------------------------
 (3) __Umul8_16                                            9     7      2     799
                                              2 COMMON     9     7      2
 ---------------------------------------------------------------------------------
 (2) ___flge                                              12     4      8     486
                                              2 COMMON     8     0      8
                                              0 BANK0      4     4      0
 ---------------------------------------------------------------------------------
 (1) ___xxtofl                                            14    10      4     398
                                              2 COMMON     8     4      4
                                              0 BANK0      6     6      0
 ---------------------------------------------------------------------------------
 (1) ___fltol                                             10     6      4     305
                                             70 BANK0     10     6      4
                           ___xxtofl (ARG)
                     _pid_controller (ARG)
 ---------------------------------------------------------------------------------
 (1) _Lcd_Write_Int                                       64    62      2    2254
                                              0 BANK0     64    62      2
                   _Lcd_Write_String
                            ___awdiv
                            ___lwdiv
                            ___lwmod
 ---------------------------------------------------------------------------------
 (2) ___lwmod                                              6     2      4     311
                                              2 COMMON     6     2      4
 ---------------------------------------------------------------------------------
 (2) ___lwdiv                                              8     4      4     314
                                              2 COMMON     8     4      4
 ---------------------------------------------------------------------------------
 (2) ___awdiv                                              9     5      4     452
                                              2 COMMON     9     5      4
 ---------------------------------------------------------------------------------
 (2) _Lcd_Write_String                                     4     4      0     301
                                              7 COMMON     4     4      0
                     _Lcd_Write_Char
 ---------------------------------------------------------------------------------
 (3) _Lcd_Write_Char                                       4     4      0     178
                                              3 COMMON     4     4      0
                           _Lcd_Port
 ---------------------------------------------------------------------------------
 (1) _Lcd_Init                                             2     2      0     198
                                              6 COMMON     2     2      0
                            _Lcd_Cmd
                           _Lcd_Port
 ---------------------------------------------------------------------------------
 (1) _Lcd_Clear                                            0     0      0     110
                            _Lcd_Cmd
 ---------------------------------------------------------------------------------
 (2) _Lcd_Cmd                                              3     3      0     110
                                              3 COMMON     3     3      0
                           _Lcd_Port
 ---------------------------------------------------------------------------------
 (4) _Lcd_Port                                             1     1      0      88
                                              2 COMMON     1     1      0
 ---------------------------------------------------------------------------------
 (1) _Adc_Read                                             5     3      2      22
                                              2 COMMON     5     3      2
 ---------------------------------------------------------------------------------
 (1) _Adc_Init                                             0     0      0       0
 ---------------------------------------------------------------------------------
 Estimated maximum stack depth 4
 ---------------------------------------------------------------------------------
 (Depth) Function   	        Calls       Base Space   Used Autos Params    Refs
 ---------------------------------------------------------------------------------
 (5) _ISR                                                  2     2      0       0
                                              0 COMMON     2     2      0
 ---------------------------------------------------------------------------------
 Estimated maximum stack depth 5
 ---------------------------------------------------------------------------------

 Call Graph Graphs:

 _main (ROOT)
   _Adc_Init
   _Adc_Read
   _Lcd_Clear
     _Lcd_Cmd
       _Lcd_Port
   _Lcd_Init
     _Lcd_Cmd
     _Lcd_Port
   _Lcd_Write_Int
     _Lcd_Write_String
       _Lcd_Write_Char
         _Lcd_Port
     ___awdiv
     ___lwdiv
     ___lwmod
   ___fltol
     ___xxtofl (ARG)
     _pid_controller (ARG)
       ___fladd
         ___flmul (ARG)
           __Umul8_16
       ___flge
       ___flmul
       ___flsub
         ___fladd
       ___xxtofl (ARG)
   ___xxtofl
   _pid_controller

 _ISR (ROOT)

 Address spaces:
Name               Size   Autos  Total    Cost      Usage
BITCOMMON            E      0       0       0        0.0%
EEDATA             100      0       0       0        0.0%
NULL                 0      0       0       0        0.0%
CODE                 0      0       0       0        0.0%
COMMON               E      B       C       1       85.7%
BITSFR0              0      0       0       1        0.0%
SFR0                 0      0       0       1        0.0%
BITSFR1              0      0       0       2        0.0%
SFR1                 0      0       0       2        0.0%
STACK                0      0       0       2        0.0%
ABS                  0      0      89       3        0.0%
BITBANK0            50      0       0       4        0.0%
BITSFR3              0      0       0       4        0.0%
SFR3                 0      0       0       4        0.0%
BANK0               50     50      50       5      100.0%
BITSFR2              0      0       0       5        0.0%
SFR2                 0      0       0       5        0.0%
BITBANK1            50      0       0       6        0.0%
BANK1               50     22      2D       7       56.2%
BITBANK3            60      0       0       8        0.0%
BANK3               60      0       0       9        0.0%
BITBANK2            60      0       0      10        0.0%
BANK2               60      0       0      11        0.0%
DATA                 0      0      89      12        0.0%


Microchip Technology PIC Macro Assembler V2.40 build 20220703182018 
Symbol Table                                                                                   Thu Jan 19 09:28:11 2023

                                   pc 0002                                    l22 09A2  
                                  l25 0AAE                                    l41 09FB  
                                  l42 09FE                                    l27 0AB2  
                                  l43 0A04                                    l28 0AB9  
                                  l44 0A05                                    l52 09D0  
                                  l45 0A0B                                    l46 0A0C  
                                  l47 0A12                                    l55 0BD1  
                                  l49 0A13                                    l73 09F1  
                                  l58 09AF                                    l67 0AEE  
                                  l94 06C3  __end_ofSevenSeg_Write@displayPattern 081C  
        SevenSeg_Write@displayPattern 0812                          ___awdiv@sign 0078  
                                  fsr 0004                   __Umul8_16@word_mpld 0078  
                                 l260 05E5                                   l600 0FFF  
                                 l417 07F7                                   l441 0CD4  
                                 l450 0C49                                   l442 0CED  
                                 l603 0A37                                   l460 0C49  
                                 l710 0D71                                   l438 0C68  
                                 l711 0D7D                                   l703 0D55  
                                 l536 0B6C                                   l457 0C34  
                                 l561 0E86                                   l546 0B28  
                                 l570 0FFF                                   l563 0E5F  
                                 l653 0365                                   l557 0E03  
                                 l582 0F73                                   l591 0FD3  
                                 l672 0A4C                                   l665 0359  
                                 l674 0A5E                                   l578 0F4F  
                                 l659 02D5                                   l588 0F95  
                                 l599 0FF5                                   l697 0D12  
                                 l699 0DA7                                   _ISR 0A5F  
                                 fsr0 0004                                   indf 0000  
                        ___flmul@aexp 0032                          ___flmul@bexp 0033  
                        ___flmul@sign 002D                          ___flmul@temp 0038  
                        ___flmul@prod 0034                                  ?_ISR 0070  
                        ___fltol@exp1 006F                                  l2000 0041  
                                l2010 0058                                  l2002 0043  
                                l2100 02F1                                  l2020 006D  
                                l2012 0059                                  l2004 004B  
                                l2110 0337                                  l2102 030A  
                                l2030 0088                                  l2022 0075  
                                l2014 005E                                  l2006 0050  
                                l2200 0651                                  l2120 0354  
                                l2112 0341                                  l2104 0310  
                                l2040 0104                                  l2032 0096  
                                l2024 007A                                  l2016 0063  
                                l2008 0054                                  l2130 0A8F  
                                l2210 06B2                                  l2202 0656  
                                l2122 035D                                  l2114 0343  
                                l2106 031D                                  l2050 0170  
                                l2042 0120                                  l2034 00A3  
                                l2026 007F                                  l2018 006B  
                                l2132 0AA2                                  l2140 0B6D  
                                l2212 06BA                                  l2204 0659  
                                l2300 0D67                                  l2116 034F  
                                l2108 0328                                  l2060 01FA  
                                l2052 017E                                  l2044 013C  
                                l2036 00BE                                  l2220 04D2  
                                l2126 099A                                  l2134 0AAB  
                                l2150 0B89                                  l2142 0B70  
                                l2214 06BC                                  l2206 068F  
                                l2310 0D9A                                  l2302 0D6B  
                                l2118 0353                                  l2070 028A  
                                l2062 0208                                  l2054 019B  
                                l2046 0145                                  l2038 00DA  
                                l2230 059F                                  l2222 04ED  
                                l2136 0AB3                                  l2128 0A8C  
                                l2160 0BAD                                  l2152 0B92  
                                l2144 0B74                                  l2216 06BD  
                                l2208 0695                                  l2240 0BDD  
                                l2312 0D9E                                  l2304 0D75  
                                l2080 02AF                                  l2072 0298  
                                l2064 0233                                  l2056 01B2  
                                l2048 0153                                  l2232 05B5  
                                l2224 052C                                  l1610 09F7  
                                l2170 0BCB                                  l2162 0BB3  
                                l2154 0B98                                  l2146 0B7A  
                                l2250 0C02                                  l2314 0D9F  
                                l2306 0D7F                                  l2090 02D2  
                                l2074 02A1                                  l2082 02B5  
                                l2066 0259                                  l2058 01CF  
                                l2234 05CD                                  l2226 0543  
                                l2218 0366                                  l1612 0A02  
                                l2172 09A3                                  l2164 0BB9  
                                l2156 0BA1                                  l2148 0B83  
                                l1620 0AC1                                  l2180 05F5  
                                l2260 0C10                                  l2252 0C04  
                                l2244 0BE6                                  l2308 0D95  
                                l2084 02B9                                  l2076 02A5  
                                l2068 0281                                  l1700 0E1F  
                                l2228 0560                                  l1614 0A09  
                                l2166 0BBF                                  l2158 0BA7  
                                l1630 0ADD                                  l1622 0AC4  
                                l2190 0627                                  l2182 05FA  
                                l2174 05E6                                  l2270 0C39  
                                l2254 0C08                                  l2262 0C22  
                                l2246 0BF9                                  l2238 0BD2  
                                l2094 02DA                                  l2086 02BA  
                                l2078 02A6                                  l1710 0E29  
                                l1702 0E21                                  l2350 06D6  
                                l2342 06C4                                  l1616 0A10  
                                l1608 09F3                                  l2168 0BC5  
                                l1632 0AE3                                  l1624 0AD2  
                                l2192 063A                                  l2184 05FF  
                                l2176 05EC                                  l2272 0C3E  
                                l2248 0BFA                                  l2280 0D0A  
                                l2096 02DF                                  l2088 02BE  
                                l1800 0F92                                  l1720 0E47  
                                l1712 0E2B                                  l1704 0E23  
                                l1640 0DAD                                  l2352 06DA  
                                l2344 06CE                                  l1634 0AE6  
                                l1626 0AD5                                  l1618 0ABB  
                                l2194 0640                                  l2186 060B  
                                l2178 05EE                                  l2290 0D33  
                                l2282 0D1A                                  l2274 0CF1  
                                l2098 02ED                                  l1810 0FB1  
                                l1730 0E71                                  l1722 0E63  
                                l1714 0E2D                                  l1706 0E25  
                                l1650 0DC0                                  l1642 0DB1  
                                l2370 0775                                  l2362 06FB  
                                l2354 06DC                                  l2346 06D1  
                                l1636 0AEB                                  l1628 0ADA  
                                l1900 07DC                                  l2196 0645  
                                l2188 061F                                  l2268 0C29  
                                l2292 0D3A                                  l2276 0CF6  
                                l1820 0FEA                                  l1812 0FCF  
                                l1804 0F9A                                  l1732 0E7A  
                                l1724 0E6A                                  l1708 0E27  
                                l1716 0E2F                                  l1660 0DD6  
                                l1652 0DC8                                  l1644 0DB5  
                                l2372 077B                                  l2364 076C  
                                l2356 06E0                                  l2348 06D4  
                                l1902 07E3                                  l2198 064B  
                                l2294 0D3E                                  l2286 0D23  
                                l2278 0CFA                                  l1830 0FFE  
                                l1822 0FEB                                  l1814 0FD8  
                                l1806 0F9F                                  l1750 0EBE  
                                l1742 0E98                                  l1726 0E6C  
                                l1734 0E7E                                  l1718 0E30  
                                l1670 0DE6                                  l1662 0DDC  
                                l1654 0DC9                                  l1646 0DB6  
                                l1638 0DA8                                  l2366 076E  
                                l2358 06F0                                  l1904 07E9  
                                l2296 0D4C                                  l2288 0D26  
                                l1920 0C88                                  l1912 0C4A  
                                l1840 0A55                                  l1832 0A39  
                                l1824 0FEF                                  l1816 0FDD  
                                l1808 0FAD                                  l1752 0EC0  
                                l1744 0EAF                                  l1736 0E8A  
                                l1760 0ED3                                  l1728 0E70  
                                l1672 0DEB                                  l1680 0DFB  
                                l1664 0DDD                                  l1648 0DBB  
                                l1656 0DCB                                  l2368 0770  
                                l1850 09B8                                  l1906 07EE  
                                l2298 0D5C                                  l1922 0CAC  
                                l1914 0C60                                  l1842 0A5A  
                                l1834 0A3B                                  l1826 0FF1  
                                l1818 0FE5                                  l1762 0EE9  
                                l1770 0F41                                  l1754 0EC4  
                                l1746 0EB3                                  l1738 0E8F  
                                l1690 0E15                                  l1682 0E09  
                                l1674 0DF0                                  l1666 0DE1  
                                l1658 0DD3                                  l1852 09BB  
                                l1860 09D2                                  l1908 07F3  
                                l1940 0B3B                                  l1932 0B29  
                                l1924 0CB0                                  l1916 0C7C  
                                l1836 0A42                                  l1828 0FFA  
                                l1780 0F6E                                  l1772 0F57  
                                l1764 0F27                                  l1756 0EC5  
                                l1748 0EB7                                  l1692 0E17  
                                l1684 0E0D                                  l1676 0DF8  
                                l1668 0DE5                                  l1854 09C1  
                                l1846 09B1                                  l1862 09D5  
                                l1870 0792                                  l1950 0B5B  
                                l1942 0B3F                                  l1934 0B2B  
                                l1926 0CEA                                  l1918 0C84  
                                l1838 0A46                                  l1790 0F81  
                                l1782 0F72                                  l1774 0F5C  
                                l1766 0F2D                                  l1758 0ECE  
                                l1694 0E19                                  l1686 0E11  
                                l1678 0DF9                                  l1856 09C4  
                                l1848 09B4                                  l1864 09E0  
                                l1880 07A6                                  l1872 0796  
                                l1952 0B62                                  l1944 0B43  
                                l1936 0B31                                  l1960 0AF5  
                                l1928 0CEC                                  l1784 0F77  
                                l1792 0F83                                  l1768 0F32  
                                l1696 0E1B                                  l1688 0E13  
                                l1858 09CD                                  l1866 09E6  
                                l1890 07BC                                  l1882 07AA  
                                l1874 079B                                  l1946 0B54  
                                l1938 0B34                                  l1954 0B68  
                                l1970 0B11                                  l1962 0AF8  
                                l1786 0F7A                                  l1778 0F65  
                                l1794 0F87                                  l1698 0E1D  
                                l1892 07C0                                  l1884 07AC  
                                l1876 079D                                  l1868 0791  
                                l1948 0B5A                                  l1972 0B17  
                                l1964 0AFF                                  l1796 0F88  
                                l1788 0F7C                                  l1980 0A14  
                                l1894 07C4                                  l1886 07B2  
                                l1878 07A1                                  l1974 0B1E  
                                l1966 0B03                                  l1958 0AEF  
                                l1990 002A                                  l1798 0F8C  
                                l1982 0A18                                  l1896 07D5  
                                l1888 07B5                                  l1968 0B07  
                                l1976 0B24                                  l1992 002E  
                                l1898 07DB                                  l1994 002F  
                                l1986 0021                                  l1996 0034  
                                l1988 0026                                  l1998 0039  
                                _T0IF 005A                                  u2000 0EB3  
                                u2001 0EB2                                  u2010 0EB7  
                                u2011 0EB6                                  u2020 0EC4  
                                u2021 0EC3                                  u2110 0F72  
                                u2111 0F71                                  u3000 05F3  
                                u2200 0FC0                                  u2120 0F77  
                                u2040 0EE9                                  u3001 05F1  
                                u2121 0F76                                  u2105 0F67  
                                u2041 0EE8                                  u3010 05F4  
                                u2210 0FCF                                  u2130 0F81  
                                u2211 0FCE                                  u2131 0F80  
                                u2051 0F00                                  u2043 0EE5  
                                u2035 0EC7                                  u2300 09F1  
                                u3020 05FA                                  u3100 0BF4  
                                u2220 0FD8                                  u2140 0F87  
                                u2060 0F14                                  u2052 0F01  
                                u2301 09F0                                  u3021 05F9  
                                u2221 0FD7                                  u2205 0FBB  
                                u2141 0F86                                  u2061 0F15  
                                u2053 0F06                                  u2310 0796  
                                u3030 0640                                  u3110 0C08  
                                u2230 0FDD                                  u2150 0F8C  
                                u2070 0F32                                  u2062 0F1A  
                                u2054 0F07                                  u2311 0795  
                                u3031 063F                                  u3111 0C07  
                                u2231 0FDC                                  u2151 0F8B  
                                u2071 0F31                                  u2063 0F1B  
                                u2055 0F0C                                  u2400 07EE  
                                u2320 07A1                                  u3040 0645  
                                u3120 0C0F                                  u3200 0CFA  
                                u2240 0FEA                                  u2160 0F92  
                                u2080 0F57                                  u2056 0F0D  
                                u2401 07ED                                  u2321 07A0  
                                u3041 0644                                  u3121 0C0E  
                                u3105 0BEF                                  u3201 0CF9  
                                u2241 0FE9                                  u2161 0F91  
                                u2081 0F56                                  u2330 07B2  
                                u3050 06B2                                  u3210 0D1A  
                                u2410 0C60                                  u2250 0FEF  
                                u2170 0F99                                  u2090 0F5C  
                                u2331 07B1                                  u3051 06B1  
                                u3211 0D19                                  u2411 0C5F  
                                u2251 0FEE                                  u2171 0F98  
                                u2091 0F5B                                  u2500 0B43  
                                u3060 06BA                                  u3140 0C21  
                                u3300 0D8A                                  u2420 0C7C  
                                u2260 0FFE                                  u2180 0F9F  
                                u2501 0B42                                  u3061 06B9  
                                u3141 0C20                                  u2421 0C7B  
                                u2261 0FFD                                  u2181 0F9E  
                                u2350 07C4                                  u3150 0C28  
                                u3310 0D9A                                  u3230 0D39  
                                u2430 0C88                                  u2270 0A46  
                                u2190 0FB1                                  u3070 04ED  
                                u2351 07C3                                  u3055 06AE  
                                u3151 0C27                                  u3135 0C11  
                                u3311 0D99                                  u3231 0D38  
                                u2431 0C87                                  u2271 0A45  
                                u2191 0FB0                                  u3071 04EC  
                                u2520 0B54                                  u2600 0B24  
                                u3320 0D9E                                  u3080 0560  
                                u2345 07B6                                  u2521 0B53  
                                u2601 0B23                                  u3321 0D9D  
                                u3305 0D85                                  u3225 0D2B  
                                u2441 0C97                                  u3081 055F  
                                u2370 07D5                                  u3170 0C39  
                                u3090 0BDD                                  u3250 0D5B  
                                u2450 0CB0                                  u2442 0C98  
                                u2290 0A5A                                  u2610 002E  
                                u1810 0DB5                                  u2371 07D4  
                                u2515 0B44                                  u3171 0C38  
                                u3091 0BDC                                  u3251 0D5A  
                                u2451 0CAF                                  u2443 0C9D  
                                u2291 0A59                                  u2611 002D  
                                u1811 0DB4                                  u2540 0B68  
                                u3180 0C3E                                  u2444 0C9E  
                                u2620 0034                                  u1900 0E47  
                                u1820 0DBB                                  u1805 0AC7  
                                u2365 07C5                                  u2541 0B67  
                                u2525 0B50                                  u3181 0C3D  
                                u3165 0C2B                                  u3245 0D4D  
                                u2461 0CBF                                  u2445 0CA3  
                                u2285 0A4D                                  u2701 00E8  
                                u2621 0033                                  u1901 0E46  
                                u1821 0DBA                                  u2390 07E9  
                                u2550 0AF5                                  u3270 0D6B  
                                u3190 0CF6                                  u2470 0CEA  
                                u2462 0CC0                                  u2446 0CA4  
                                u2702 00EF                                  u2630 0039  
                                u1910 0E52                                  u1830 0DC0  
                                u2391 07E8                                  u2375 07D1  
                                u2535 0B5C                                  u2551 0AF4  
                                u3271 0D6A                                  u3191 0CF5  
                                u2471 0CE9                                  u2463 0CC5  
                                u2711 0112                                  u2703 00F6  
                                u2631 0038                                  u1911 0E50  
                                u1831 0DBF                                  u1760 09F7  
                                u2480 0B31                                  u3280 0D71  
                                u2464 0CC6                                  u2800 023F  
                                u2712 0119                                  u2640 0058  
                                u1920 0E53                                  u1840 0DDC  
                                u1761 09F6                                  u2385 07DD  
                                u2481 0B30                                  u3281 0D70  
                                u3265 0D60                                  u2465 0CCB  
                                u2721 012E                                  u2713 0120  
                                u2641 0057                                  u1905 0E43  
                                u1841 0DDB                                  u1770 0A02  
                                u2570 0B07                                  u3290 0D75  
                                u2466 0CCC                                  u2722 0135  
                                u2650 005E                                  u1930 0E63  
                                u1850 0DE5                                  u3370 06FA  
                                u1771 0A01                                  u3427 0AD7  
                                u2571 0B06                                  u3291 0D74  
                                u2475 0CE6                                  u2811 024B  
                                u2723 013C                                  u2651 005D  
                                u1931 0E62                                  u1851 0DE4  
                                u3371 06F9                                  u1780 0A09  
                                u2580 0B11                                  u2900 02D2  
                                u2820 0267                                  u2812 0252  
                                u2660 0063                                  u1940 0E70  
                                u1860 0DEB                                  u1781 0A08  
                                u3437 0AE8                                  u2581 0B10  
                                u2565 0AF9                                  u2901 02D1  
                                u2813 0259                                  u2805 023A  
                                u2741 0162                                  u2661 0062  
                                u1941 0E6F                                  u1861 0DEA  
                                u1790 0A10                                  u2910 02D9  
                                u2742 0169                                  u2670 007A  
                                u1870 0DF0                                  u1791 0A0F  
                                u3447 0B7E                                  u2495 0B35  
                                u2911 02D8                                  u2831 0273  
                                u2751 018D                                  u2743 0170  
                                u2735 013E                                  u2671 0079  
                                u1871 0DEF                                  u3375 06F6  
                                u2920 02DF                                  u2832 027A  
                                u2752 0194                                  u2680 007F  
                                u1960 0E86                                  u1880 0E09  
                                u3457 0B8D                                  u2585 0B0D  
                                u2921 02DE                                  u2833 0281  
                                u2825 0262                                  u2753 019B  
                                u2681 007E                                  u1961 0E85  
                                u1881 0E08                                  u2930 02F1  
                                u1970 0E8A                                  u1890 0E0D  
                                u3467 0B9C                                  u2595 0B18  
                                u2931 02F0                                  u2771 01C1  
                                u2691 00CC                                  u1971 0E89  
                                u1955 0E73                                  u1891 0E0C  
                                u2940 0300                                  u2860 02A5  
                                u2772 01C8                                  u2692 00D3  
                                u1980 0E8F                                  u3477 09C8  
                                u2861 02A4                                  u2845 0283  
                                u2781 01EC                                  u2773 01CF  
                                u2765 019D                                  u2693 00DA  
                                u1981 0E8E                                  u2950 031D  
                                u2782 01F3                                  u3487 0AA6  
                                u2951 031C                                  u2855 029A  
                                u2791 0217                                  u2783 01FA  
                                u1991 0EA1                                  u2960 0337  
                                u2880 02B9                                  u2792 021E  
                                u1992 0EA8                                  u2961 0336  
                                u2945 02FB                                  u2881 02B8  
                                u2793 0225                                  u1993 0EAF  
                                u2970 0353                                  u2890 02BE  
                                u2971 0352                                  u2955 0319  
                                u2891 02BD                                  u2875 02A8  
                                u2965 0333                                  u2990 0AB2  
                                u2991 0AB1                                  u2985 0A98  
                                _TMR0 0001                           main@old_val 00BE  
                   ?_Lcd_Write_String 0070                                  _main 06C4  
                                _duty 00CC                                  btemp 007E  
                                start 000C                    ??_Lcd_Write_String 0077  
                     __end_of_Lcd_Cmd 09D1                                 ??_ISR 0070  
                       ___fltol@sign1 006E                       __end_of___fladd 1000  
                               ?_main 0070                       __end_of___awdiv 07F8  
                     __end_of___flmul 0366                       __end_of___flsub 0A38  
                     __end_of___fltol 0C4A                       ___awdiv@divisor 0072  
                     __end_of___lwdiv 0B6D                                 i1l168 0A84  
                     __end_of___lwmod 0B29                       ___awdiv@counter 0077  
                               _PORTB 0006                                 _PORTC 0007  
                               _PORTD 0008                                 _TRISA 0085  
                               _TRISB 0086                                 _TRISC 0087  
                               _TRISD 0088                                 _TRISE 0089  
               pid_controller@control 005E                      __end_of_Adc_Init 09A3  
                    __end_of_Adc_Read 0ABA                                 pclath 000A  
                               status 0003                                 wtemp0 007E  
      pid_controller@process_variable 00A4                      __end_of_Lcd_Init 0BD2  
                    __end_of_Lcd_Port 0A14                       __initialization 000F  
                        __end_of_main 0791          pid_controller@previous_error 00C6  
                              ??_main 00BC                      ??_pid_controller 007B  
                              _ADCON0 001F                                _ADCON1 009F  
                              _ADRESH 001E                                _ADRESL 009E  
                    ___awdiv@dividend 0074                                i1l2380 0A73  
                              i1l2382 0A77                                i1l2374 0A5F  
                              i1l2384 0A7E                                i1l2376 0A63  
                              i1l2378 0A72                                _INTCON 000B  
                              u340_24 0A72                                u341_20 0A77  
                              u341_21 0A76                                u338_20 0A63  
                              u338_21 0A62                                u339_20 0A6F  
                              u339_21 0A6B                             ??_Lcd_Cmd 0073  
                    __end_of___xxtofl 0DA8             pid_controller@control_max 00B8  
           pid_controller@control_min 00B4                                ___flge 0C4A  
                           ??___fladd 0042                             ??___awdiv 0076  
                           ??___flmul 0028                             ??___flsub 007B  
                           ??___fltol 006A                             ??___lwdiv 0076  
              pid_controller@integral 00C2                             ??___lwmod 0076  
                     Adc_Read@channel 0076                                _keypad 0806  
                    ___awdiv@quotient 0079                 __end_of_Lcd_Write_Int 06C4  
              pid_controller@setpoint 00A0                                saved_w 007E  
                    Lcd_Write_Int@val 0020                            ___flge@ff1 0072  
                          ___flge@ff2 0076                          ___xxtofl@arg 0022  
                        ___xxtofl@exp 0021                          ___xxtofl@val 0072  
             __end_of__initialization 001D                     __end_of_Lcd_Clear 09B0  
                          ___fltol@f1 0066                        __pcstackCOMMON 0070  
                 pid_controller@error 0062                             ?_Adc_Init 0070  
                           ?_Adc_Read 0072                             ?_Lcd_Init 0070  
                           ?_Lcd_Port 0070                        Lcd_Write_Int@i 005E  
                      Lcd_Write_Int@n 005A                        Lcd_Write_Int@t 005C  
                          __pbssBANK1 00C2                     __end_of__Umul8_16 0A5F  
                          __pmaintext 06C4                               ?___flge 0072  
                          __pintentry 0004                            ??_Adc_Init 0072  
                          ??_Adc_Read 0074                             ?___xxtofl 0072  
                          ??_Lcd_Init 0076                            ??_Lcd_Port 0072  
                          __stringtab 0800                        _Lcd_Write_Char 0ABA  
                             _Lcd_Cmd 09B0                               ___fladd 0DA8  
                             ___awdiv 0791                               ___flmul 0021  
                             ___flsub 0A14                               ___fltol 0BD2  
                    pid_controller@kd 00B0                      pid_controller@ki 00AC  
                    pid_controller@kp 00A8                               ___lwdiv 0B29  
                             ___lwmod 0AEF                               __ptext1 0366  
                             __ptext2 0A14                               __ptext3 0DA8  
                             __ptext4 0021                               __ptext5 0A38  
                             __ptext6 0C4A                               __ptext7 0CEE  
                             __ptext8 0BD2                               __ptext9 05E6  
                          ??___xxtofl 0076                  Numpad_Read@oldKeyVal 007B  
                             main@val 00C0                __end_of_Lcd_Write_Char 0AEF  
                end_of_initialization 001D                             Lcd_Port@a 0072  
                           _PORTCbits 0007                             _PORTDbits 0008  
                           _PORTEbits 0009                    _pid_controller$855 005A  
                         ___fladd@grs 004D                         ___xxtofl@sign 0020  
                     ?_Lcd_Write_Char 0070                     Lcd_Write_String@a 007A  
                   Lcd_Write_String@i 0078                           ___flmul@grs 002E  
                           _Lcd_Clear 09A3                        __end_of___flge 0CEE  
                    _Lcd_Write_String 09D1                        __end_of_keypad 0812  
                 start_initialization 000F                           __end_of_ISR 0A8B  
                          ?_Lcd_Clear 0070                              ??___flge 0020  
                           __Umul8_16 0A38                       Lcd_Write_Char@a 0076  
                     Lcd_Write_Char@y 0075                       Lcd_Write_Int@n1 0058  
                           ___fladd@a 003E                             ___fladd@b 003A  
                           ___flmul@a 0024                             ___flmul@b 0020  
                         __pbssCOMMON 007B                             ___flsub@a 004E  
                           ___flsub@b 0052                             ___latbits 0002  
                       __pcstackBANK0 0020                         __pcstackBANK1 00A0  
                            ?_Lcd_Cmd 0070                      ___lwdiv@dividend 0074  
                            ?___fladd 003A                              ?___awdiv 0072  
                            ?___flmul 0020                              ?___flsub 004E  
                            ?___fltol 0066                            ?__Umul8_16 0072  
                            ?___lwdiv 0072                              ?___lwmod 0072  
                           __pstrings 0800                             _high_time 00CB  
                       _Lcd_Write_Int 05E6                      ___lwdiv@quotient 0077  
                   interrupt_function 0004                              Lcd_Cmd@a 0075  
                         ??_Lcd_Clear 0076                              _Adc_Init 099A  
                            _Adc_Read 0A8B                           __stringbase 0805  
                      ?_Lcd_Write_Int 0020                      ??_Lcd_Write_Char 0073  
            pid_controller@derivative 0056                              _Lcd_Init 0B6D  
                            _Lcd_Port 09F2                        _pid_controller 0366  
            __end_of_Lcd_Write_String 09F2                           ??__Umul8_16 0074  
                  __end_of__stringtab 0806                              ___xxtofl 0CEE  
                     ___lwdiv@divisor 0072                       ___lwdiv@counter 0079  
                            __ptext10 0AEF                              __ptext11 0B29  
                            __ptext20 099A                              __ptext12 0791  
                            __ptext21 0A5F                              __ptext13 09D1  
                            __ptext14 0ABA                              __ptext15 0B6D  
                            __ptext16 09A3                              __ptext17 09B0  
                            __ptext18 09F2                              __ptext19 0A8B  
              __end_of_pid_controller 05E6                              _low_time 00CA  
                     ??_Lcd_Write_Int 0022                   Lcd_Write_Int@buffer 0025  
                     ?_pid_controller 00A0                    Lcd_Write_Char@temp 0074  
                            intlevel1 0000                      ___lwmod@dividend 0074  
                           stringcode 0800                    Lcd_Write_Int@isNeg 0057  
              __Umul8_16@multiplicand 0072                            _OPTION_REG 0081  
                     ___lwmod@divisor 0072                       ___lwmod@counter 0077  
                            stringdir 0800                              stringtab 0800  
                       ___fladd@signs 004A                          ___fladd@aexp 004B  
                        ___fladd@bexp 004C                  __Umul8_16@multiplier 007A  
                   __Umul8_16@product 0076  
