

Microchip MPLAB XC8 Assembler V2.40 build 20220703182018 
                                                                                               Wed Jan 18 22:37:39 2023

Microchip MPLAB XC8 C Compiler v2.40 (Free license) build 20220703182018 Og1 
     1                           	processor	16F877A
     2                           	pagewidth 120
     3                           	opt	flic
     4                           	psect	strings,global,class=STRING,delta=2,noexec
     5                           	psect	cinit,global,class=CODE,merge=1,delta=2
     6                           	psect	bssBANK0,global,class=BANK0,space=1,delta=1,noexec
     7                           	psect	bssBANK1,global,class=BANK1,space=1,delta=1,noexec
     8                           	psect	cstackBANK1,global,class=BANK1,space=1,delta=1,noexec
     9                           	psect	cstackCOMMON,global,class=COMMON,space=1,delta=1,noexec
    10                           	psect	cstackBANK0,global,class=BANK0,space=1,delta=1,noexec
    11                           	psect	maintext,global,class=CODE,split=1,delta=2
    12                           	psect	text1,local,class=CODE,merge=1,delta=2,group=1
    13                           	psect	text2,local,class=CODE,merge=1,delta=2,group=2
    14                           	psect	text3,local,class=CODE,merge=1,delta=2,group=2
    15                           	psect	text4,local,class=CODE,merge=1,delta=2,group=2
    16                           	psect	text5,local,class=CODE,merge=1,delta=2,group=2
    17                           	psect	text6,local,class=CODE,merge=1,delta=2,group=2
    18                           	psect	text7,local,class=CODE,merge=1,delta=2,group=2
    19                           	psect	text8,local,class=CODE,merge=1,delta=2,group=2
    20                           	psect	text9,local,class=CODE,merge=1,delta=2
    21                           	psect	text10,local,class=CODE,merge=1,delta=2,group=2
    22                           	psect	text11,local,class=CODE,merge=1,delta=2,group=2
    23                           	psect	text12,local,class=CODE,merge=1,delta=2,group=2
    24                           	psect	text13,local,class=CODE,merge=1,delta=2
    25                           	psect	text14,local,class=CODE,merge=1,delta=2
    26                           	psect	text15,local,class=CODE,merge=1,delta=2
    27                           	psect	text16,local,class=CODE,merge=1,delta=2
    28                           	psect	text17,local,class=CODE,merge=1,delta=2
    29                           	psect	text18,local,class=CODE,merge=1,delta=2
    30                           	psect	text19,local,class=CODE,merge=1,delta=2
    31                           	psect	text20,local,class=CODE,merge=1,delta=2
    32                           	psect	idloc,global,abs,ovrld,class=IDLOC,space=5,delta=2,noexec
    33                           	psect	config,global,abs,ovrld,class=CONFIG,space=4,delta=2,noexec
    34                           	dabs	1,0x7E,2
    35     0000                     
    36                           ; Version 2.40
    37                           ; Generated 17/11/2021 GMT
    38                           ; 
    39                           ; Copyright © 2021, Microchip Technology Inc. and its subsidiaries ("Microchip")
    40                           ; All rights reserved.
    41                           ; 
    42                           ; This software is developed by Microchip Technology Inc. and its subsidiaries ("Microch
      +                          ip").
    43                           ; 
    44                           ; Redistribution and use in source and binary forms, with or without modification, are
    45                           ; permitted provided that the following conditions are met:
    46                           ; 
    47                           ;     1. Redistributions of source code must retain the above copyright notice, this lis
      +                          t of
    48                           ;        conditions and the following disclaimer.
    49                           ; 
    50                           ;     2. Redistributions in binary form must reproduce the above copyright notice, this 
      +                          list
    51                           ;        of conditions and the following disclaimer in the documentation and/or other
    52                           ;        materials provided with the distribution. Publication is not required when
    53                           ;        this file is used in an embedded application.
    54                           ; 
    55                           ;     3. Microchip's name may not be used to endorse or promote products derived from th
      +                          is
    56                           ;        software without specific prior written permission.
    57                           ; 
    58                           ; THIS SOFTWARE IS PROVIDED BY MICROCHIP "AS IS" AND ANY EXPRESS OR IMPLIED WARRANTIES,
    59                           ; INCLUDING, BUT NOT LIMITED TO, THE IMPLIED WARRANTIES OF MERCHANTABILITY AND FITNESS F
      +                          OR
    60                           ; PURPOSE ARE DISCLAIMED.  IN NO EVENT SHALL MICROCHIP BE LIABLE FOR ANY DIRECT, INDIREC
      +                          T,
    61                           ; INCIDENTAL, SPECIAL, EXEMPLARY, OR CONSEQUENTIAL DAMAGES (INCLUDING BUT NOT LIMITED TO
    62                           ; PROCUREMENT OF SUBSTITUTE GOODS OR SERVICES; LOSS OF USE, DATA OR PROFITS; OR BUSINESS
    63                           ; INTERRUPTION) HOWSOEVER CAUSED AND ON ANY THEORY OF LIABILITY, WHETHER IN CONTRACT, ST
      +                          RICT
    64                           ; LIABILITY, OR TORT (INCLUDING NEGLIGENCE OR OTHERWISE) ARISING IN ANY WAY OUT OF THE U
      +                          SE OF
    65                           ; THIS SOFTWARE, EVEN IF ADVISED OF THE POSSIBILITY OF SUCH DAMAGE.
    66                           ; 
    67                           ; 
    68                           ; Code-generator required, PIC16F877A Definitions
    69                           ; 
    70                           ; SFR Addresses
    71     0000                     	;# 
    72     0001                     	;# 
    73     0002                     	;# 
    74     0003                     	;# 
    75     0004                     	;# 
    76     0005                     	;# 
    77     0006                     	;# 
    78     0007                     	;# 
    79     0008                     	;# 
    80     0009                     	;# 
    81     000A                     	;# 
    82     000B                     	;# 
    83     000C                     	;# 
    84     000D                     	;# 
    85     000E                     	;# 
    86     000E                     	;# 
    87     000F                     	;# 
    88     0010                     	;# 
    89     0011                     	;# 
    90     0012                     	;# 
    91     0013                     	;# 
    92     0014                     	;# 
    93     0015                     	;# 
    94     0015                     	;# 
    95     0016                     	;# 
    96     0017                     	;# 
    97     0018                     	;# 
    98     0019                     	;# 
    99     001A                     	;# 
   100     001B                     	;# 
   101     001B                     	;# 
   102     001C                     	;# 
   103     001D                     	;# 
   104     001E                     	;# 
   105     001F                     	;# 
   106     0081                     	;# 
   107     0085                     	;# 
   108     0086                     	;# 
   109     0087                     	;# 
   110     0088                     	;# 
   111     0089                     	;# 
   112     008C                     	;# 
   113     008D                     	;# 
   114     008E                     	;# 
   115     0091                     	;# 
   116     0092                     	;# 
   117     0093                     	;# 
   118     0094                     	;# 
   119     0098                     	;# 
   120     0099                     	;# 
   121     009C                     	;# 
   122     009D                     	;# 
   123     009E                     	;# 
   124     009F                     	;# 
   125     010C                     	;# 
   126     010D                     	;# 
   127     010E                     	;# 
   128     010F                     	;# 
   129     018C                     	;# 
   130     018D                     	;# 
   131     0000                     	;# 
   132     0001                     	;# 
   133     0002                     	;# 
   134     0003                     	;# 
   135     0004                     	;# 
   136     0005                     	;# 
   137     0006                     	;# 
   138     0007                     	;# 
   139     0008                     	;# 
   140     0009                     	;# 
   141     000A                     	;# 
   142     000B                     	;# 
   143     000C                     	;# 
   144     000D                     	;# 
   145     000E                     	;# 
   146     000E                     	;# 
   147     000F                     	;# 
   148     0010                     	;# 
   149     0011                     	;# 
   150     0012                     	;# 
   151     0013                     	;# 
   152     0014                     	;# 
   153     0015                     	;# 
   154     0015                     	;# 
   155     0016                     	;# 
   156     0017                     	;# 
   157     0018                     	;# 
   158     0019                     	;# 
   159     001A                     	;# 
   160     001B                     	;# 
   161     001B                     	;# 
   162     001C                     	;# 
   163     001D                     	;# 
   164     001E                     	;# 
   165     001F                     	;# 
   166     0081                     	;# 
   167     0085                     	;# 
   168     0086                     	;# 
   169     0087                     	;# 
   170     0088                     	;# 
   171     0089                     	;# 
   172     008C                     	;# 
   173     008D                     	;# 
   174     008E                     	;# 
   175     0091                     	;# 
   176     0092                     	;# 
   177     0093                     	;# 
   178     0094                     	;# 
   179     0098                     	;# 
   180     0099                     	;# 
   181     009C                     	;# 
   182     009D                     	;# 
   183     009E                     	;# 
   184     009F                     	;# 
   185     010C                     	;# 
   186     010D                     	;# 
   187     010E                     	;# 
   188     010F                     	;# 
   189     018C                     	;# 
   190     018D                     	;# 
   191     0000                     	;# 
   192     0001                     	;# 
   193     0002                     	;# 
   194     0003                     	;# 
   195     0004                     	;# 
   196     0005                     	;# 
   197     0006                     	;# 
   198     0007                     	;# 
   199     0008                     	;# 
   200     0009                     	;# 
   201     000A                     	;# 
   202     000B                     	;# 
   203     000C                     	;# 
   204     000D                     	;# 
   205     000E                     	;# 
   206     000E                     	;# 
   207     000F                     	;# 
   208     0010                     	;# 
   209     0011                     	;# 
   210     0012                     	;# 
   211     0013                     	;# 
   212     0014                     	;# 
   213     0015                     	;# 
   214     0015                     	;# 
   215     0016                     	;# 
   216     0017                     	;# 
   217     0018                     	;# 
   218     0019                     	;# 
   219     001A                     	;# 
   220     001B                     	;# 
   221     001B                     	;# 
   222     001C                     	;# 
   223     001D                     	;# 
   224     001E                     	;# 
   225     001F                     	;# 
   226     0081                     	;# 
   227     0085                     	;# 
   228     0086                     	;# 
   229     0087                     	;# 
   230     0088                     	;# 
   231     0089                     	;# 
   232     008C                     	;# 
   233     008D                     	;# 
   234     008E                     	;# 
   235     0091                     	;# 
   236     0092                     	;# 
   237     0093                     	;# 
   238     0094                     	;# 
   239     0098                     	;# 
   240     0099                     	;# 
   241     009C                     	;# 
   242     009D                     	;# 
   243     009E                     	;# 
   244     009F                     	;# 
   245     010C                     	;# 
   246     010D                     	;# 
   247     010E                     	;# 
   248     010F                     	;# 
   249     018C                     	;# 
   250     018D                     	;# 
   251     0000                     	;# 
   252     0001                     	;# 
   253     0002                     	;# 
   254     0003                     	;# 
   255     0004                     	;# 
   256     0005                     	;# 
   257     0006                     	;# 
   258     0007                     	;# 
   259     0008                     	;# 
   260     0009                     	;# 
   261     000A                     	;# 
   262     000B                     	;# 
   263     000C                     	;# 
   264     000D                     	;# 
   265     000E                     	;# 
   266     000E                     	;# 
   267     000F                     	;# 
   268     0010                     	;# 
   269     0011                     	;# 
   270     0012                     	;# 
   271     0013                     	;# 
   272     0014                     	;# 
   273     0015                     	;# 
   274     0015                     	;# 
   275     0016                     	;# 
   276     0017                     	;# 
   277     0018                     	;# 
   278     0019                     	;# 
   279     001A                     	;# 
   280     001B                     	;# 
   281     001B                     	;# 
   282     001C                     	;# 
   283     001D                     	;# 
   284     001E                     	;# 
   285     001F                     	;# 
   286     0081                     	;# 
   287     0085                     	;# 
   288     0086                     	;# 
   289     0087                     	;# 
   290     0088                     	;# 
   291     0089                     	;# 
   292     008C                     	;# 
   293     008D                     	;# 
   294     008E                     	;# 
   295     0091                     	;# 
   296     0092                     	;# 
   297     0093                     	;# 
   298     0094                     	;# 
   299     0098                     	;# 
   300     0099                     	;# 
   301     009C                     	;# 
   302     009D                     	;# 
   303     009E                     	;# 
   304     009F                     	;# 
   305     010C                     	;# 
   306     010D                     	;# 
   307     010E                     	;# 
   308     010F                     	;# 
   309     018C                     	;# 
   310     018D                     	;# 
   311     0000                     	;# 
   312     0001                     	;# 
   313     0002                     	;# 
   314     0003                     	;# 
   315     0004                     	;# 
   316     0005                     	;# 
   317     0006                     	;# 
   318     0007                     	;# 
   319     0008                     	;# 
   320     0009                     	;# 
   321     000A                     	;# 
   322     000B                     	;# 
   323     000C                     	;# 
   324     000D                     	;# 
   325     000E                     	;# 
   326     000E                     	;# 
   327     000F                     	;# 
   328     0010                     	;# 
   329     0011                     	;# 
   330     0012                     	;# 
   331     0013                     	;# 
   332     0014                     	;# 
   333     0015                     	;# 
   334     0015                     	;# 
   335     0016                     	;# 
   336     0017                     	;# 
   337     0018                     	;# 
   338     0019                     	;# 
   339     001A                     	;# 
   340     001B                     	;# 
   341     001B                     	;# 
   342     001C                     	;# 
   343     001D                     	;# 
   344     001E                     	;# 
   345     001F                     	;# 
   346     0081                     	;# 
   347     0085                     	;# 
   348     0086                     	;# 
   349     0087                     	;# 
   350     0088                     	;# 
   351     0089                     	;# 
   352     008C                     	;# 
   353     008D                     	;# 
   354     008E                     	;# 
   355     0091                     	;# 
   356     0092                     	;# 
   357     0093                     	;# 
   358     0094                     	;# 
   359     0098                     	;# 
   360     0099                     	;# 
   361     009C                     	;# 
   362     009D                     	;# 
   363     009E                     	;# 
   364     009F                     	;# 
   365     010C                     	;# 
   366     010D                     	;# 
   367     010E                     	;# 
   368     010F                     	;# 
   369     018C                     	;# 
   370     018D                     	;# 
   371     0000                     	;# 
   372     0001                     	;# 
   373     0002                     	;# 
   374     0003                     	;# 
   375     0004                     	;# 
   376     0005                     	;# 
   377     0006                     	;# 
   378     0007                     	;# 
   379     0008                     	;# 
   380     0009                     	;# 
   381     000A                     	;# 
   382     000B                     	;# 
   383     000C                     	;# 
   384     000D                     	;# 
   385     000E                     	;# 
   386     000E                     	;# 
   387     000F                     	;# 
   388     0010                     	;# 
   389     0011                     	;# 
   390     0012                     	;# 
   391     0013                     	;# 
   392     0014                     	;# 
   393     0015                     	;# 
   394     0015                     	;# 
   395     0016                     	;# 
   396     0017                     	;# 
   397     0018                     	;# 
   398     0019                     	;# 
   399     001A                     	;# 
   400     001B                     	;# 
   401     001B                     	;# 
   402     001C                     	;# 
   403     001D                     	;# 
   404     001E                     	;# 
   405     001F                     	;# 
   406     0081                     	;# 
   407     0085                     	;# 
   408     0086                     	;# 
   409     0087                     	;# 
   410     0088                     	;# 
   411     0089                     	;# 
   412     008C                     	;# 
   413     008D                     	;# 
   414     008E                     	;# 
   415     0091                     	;# 
   416     0092                     	;# 
   417     0093                     	;# 
   418     0094                     	;# 
   419     0098                     	;# 
   420     0099                     	;# 
   421     009C                     	;# 
   422     009D                     	;# 
   423     009E                     	;# 
   424     009F                     	;# 
   425     010C                     	;# 
   426     010D                     	;# 
   427     010E                     	;# 
   428     010F                     	;# 
   429     018C                     	;# 
   430     018D                     	;# 
   431                           
   432                           	psect	strings
   433     0800                     __pstrings:
   434     0800                     stringtab:
   435     0800                     __stringtab:
   436                           
   437                           ;	String table - string pointers are 1 byte each
   438     0800  1BFF               	btfsc	btemp+1,7
   439     0801  280A               	ljmp	stringcode
   440     0802  1383               	bcf	3,7
   441     0803  187F               	btfsc	btemp+1,0
   442     0804  1783               	bsf	3,7
   443     0805  0800               	movf	0,w
   444     0806  0A84               	incf	4,f
   445     0807  1903               	skipnz
   446     0808  0AFF               	incf	btemp+1,f
   447     0809  0008               	return
   448     080A                     stringcode:
   449     080A                     stringdir:
   450     080A  3008               	movlw	high stringdir
   451     080B  008A               	movwf	10
   452     080C  0804               	movf	4,w
   453     080D  0A84               	incf	4,f
   454     080E  0782               	addwf	2,f
   455     080F                     __stringbase:
   456     080F  3400               	retlw	0
   457     0810                     __end_of__stringtab:
   458     0810                     _keypad:
   459     0810  342A               	retlw	42
   460     0811  3407               	retlw	7
   461     0812  3404               	retlw	4
   462     0813  3401               	retlw	1
   463     0814  3400               	retlw	0
   464     0815  3408               	retlw	8
   465     0816  3405               	retlw	5
   466     0817  3402               	retlw	2
   467     0818  3423               	retlw	35
   468     0819  3409               	retlw	9
   469     081A  3406               	retlw	6
   470     081B  3403               	retlw	3
   471     081C                     __end_of_keypad:
   472     081C                     SevenSeg_Write@displayPattern:
   473     081C  34EE               	retlw	238
   474     081D  3428               	retlw	40
   475     081E  34CD               	retlw	205
   476     081F  346D               	retlw	109
   477     0820  342B               	retlw	43
   478     0821  3467               	retlw	103
   479     0822  34E7               	retlw	231
   480     0823  342C               	retlw	44
   481     0824  34EF               	retlw	239
   482     0825  346F               	retlw	111
   483     0826                     __end_ofSevenSeg_Write@displayPattern:
   484     000E                     _TMR1	set	14
   485     0008                     _PORTD	set	8
   486     0009                     _PORTEbits	set	9
   487     0008                     _PORTDbits	set	8
   488     001E                     _ADRESH	set	30
   489     001F                     _ADCON0	set	31
   490     0006                     _PORTB	set	6
   491     0007                     _PORTC	set	7
   492     0017                     _CCP1CON	set	23
   493     0015                     _CCPR1L	set	21
   494     0010                     _T1CON	set	16
   495     0086                     _TRISB	set	134
   496     0089                     _TRISE	set	137
   497     0088                     _TRISD	set	136
   498     009E                     _ADRESL	set	158
   499     0085                     _TRISA	set	133
   500     009F                     _ADCON1	set	159
   501     0087                     _TRISC	set	135
   502     0092                     _PR2	set	146
   503     0826                     STR_1:
   504     0826  342E               	retlw	46	;'.'
   505     0827  3435               	retlw	53	;'5'
   506     0828  3400               	retlw	0
   507                           
   508                           	psect	cinit
   509     07EF                     start_initialization:	
   510                           ; #config settings
   511                           
   512     07EF                     __initialization:
   513                           
   514                           ; Clear objects allocated to BANK0
   515     07EF  1283               	bcf	3,5	;RP0=0, select bank0
   516     07F0  1303               	bcf	3,6	;RP1=0, select bank0
   517     07F1  01EA               	clrf	__pbssBANK0& (0+127)
   518                           
   519                           ; Clear objects allocated to BANK1
   520     07F2  1683               	bsf	3,5	;RP0=1, select bank1
   521     07F3  1303               	bcf	3,6	;RP1=0, select bank1
   522     07F4  01DB               	clrf	__pbssBANK1& (0+127)
   523     07F5  01DC               	clrf	(__pbssBANK1+1)& (0+127)
   524     07F6  01DD               	clrf	(__pbssBANK1+2)& (0+127)
   525     07F7  01DE               	clrf	(__pbssBANK1+3)& (0+127)
   526     07F8  01DF               	clrf	(__pbssBANK1+4)& (0+127)
   527     07F9  01E0               	clrf	(__pbssBANK1+5)& (0+127)
   528     07FA  01E1               	clrf	(__pbssBANK1+6)& (0+127)
   529     07FB  01E2               	clrf	(__pbssBANK1+7)& (0+127)
   530     07FC                     end_of_initialization:	
   531                           ;End of C runtime variable initialization code
   532                           
   533     07FC                     __end_of__initialization:
   534     07FC  0183               	clrf	3
   535     07FD  120A  158A  2DFC   	ljmp	_main	;jump to C main() function
   536                           
   537                           	psect	bssBANK0
   538     006A                     __pbssBANK0:
   539     006A                     Numpad_Read@oldKeyVal:
   540     006A                     	ds	1
   541                           
   542                           	psect	bssBANK1
   543     00DB                     __pbssBANK1:
   544     00DB                     pid_controller@integral:
   545     00DB                     	ds	4
   546     00DF                     pid_controller@previous_error:
   547     00DF                     	ds	4
   548                           
   549                           	psect	cstackBANK1
   550     00A0                     __pcstackBANK1:
   551     00A0                     ?_pid_controller:
   552     00A0                     pid_controller@setpoint:	
   553                           ; 4 bytes @ 0x0
   554                           
   555     00A0                     Lcd_Write_Int@buffer:	
   556                           ; 4 bytes @ 0x0
   557                           
   558                           
   559                           ; 50 bytes @ 0x0
   560     00A0                     	ds	4
   561     00A4                     pid_controller@process_variable:
   562                           
   563                           ; 4 bytes @ 0x4
   564     00A4                     	ds	4
   565     00A8                     pid_controller@kp:
   566                           
   567                           ; 4 bytes @ 0x8
   568     00A8                     	ds	4
   569     00AC                     pid_controller@ki:
   570                           
   571                           ; 4 bytes @ 0xC
   572     00AC                     	ds	4
   573     00B0                     pid_controller@kd:
   574                           
   575                           ; 4 bytes @ 0x10
   576     00B0                     	ds	4
   577     00B4                     pid_controller@control_min:
   578                           
   579                           ; 4 bytes @ 0x14
   580     00B4                     	ds	4
   581     00B8                     pid_controller@control_max:
   582                           
   583                           ; 4 bytes @ 0x18
   584     00B8                     	ds	26
   585     00D2                     Lcd_Write_Int@isNeg:
   586                           
   587                           ; 1 bytes @ 0x32
   588     00D2                     	ds	1
   589     00D3                     Lcd_Write_Int@n1:
   590                           
   591                           ; 2 bytes @ 0x33
   592     00D3                     	ds	2
   593     00D5                     Lcd_Write_Int@n:
   594                           
   595                           ; 2 bytes @ 0x35
   596     00D5                     	ds	2
   597     00D7                     Lcd_Write_Int@t:
   598                           
   599                           ; 2 bytes @ 0x37
   600     00D7                     	ds	2
   601     00D9                     Lcd_Write_Int@i:
   602                           
   603                           ; 2 bytes @ 0x39
   604     00D9                     	ds	2
   605                           
   606                           	psect	cstackCOMMON
   607     0070                     __pcstackCOMMON:
   608     0070                     ?___flge:
   609     0070                     ?_Adc_Init:	
   610                           ; 1 bit 
   611                           
   612     0070                     ??_Adc_Init:	
   613                           ; 1 bytes @ 0x0
   614                           
   615     0070                     ?_Lcd_Init:	
   616                           ; 1 bytes @ 0x0
   617                           
   618     0070                     ?_Lcd_Clear:	
   619                           ; 1 bytes @ 0x0
   620                           
   621     0070                     ?_main:	
   622                           ; 1 bytes @ 0x0
   623                           
   624     0070                     ?_Lcd_Port:	
   625                           ; 1 bytes @ 0x0
   626                           
   627     0070                     ??_Lcd_Port:	
   628                           ; 1 bytes @ 0x0
   629                           
   630     0070                     ?_Lcd_Cmd:	
   631                           ; 1 bytes @ 0x0
   632                           
   633     0070                     ?_Lcd_Write_Char:	
   634                           ; 1 bytes @ 0x0
   635                           
   636     0070                     ?_Adc_Read:	
   637                           ; 1 bytes @ 0x0
   638                           
   639     0070                     ?__Umul8_16:	
   640                           ; 2 bytes @ 0x0
   641                           
   642     0070                     ?___awdiv:	
   643                           ; 2 bytes @ 0x0
   644                           
   645     0070                     ?___lwdiv:	
   646                           ; 2 bytes @ 0x0
   647                           
   648     0070                     ?___lwmod:	
   649                           ; 2 bytes @ 0x0
   650                           
   651     0070                     ?___xxtofl:	
   652                           ; 2 bytes @ 0x0
   653                           
   654     0070                     Lcd_Port@a:	
   655                           ; 4 bytes @ 0x0
   656                           
   657     0070                     __Umul8_16@multiplicand:	
   658                           ; 1 bytes @ 0x0
   659                           
   660     0070                     ___awdiv@divisor:	
   661                           ; 1 bytes @ 0x0
   662                           
   663     0070                     ___lwdiv@divisor:	
   664                           ; 2 bytes @ 0x0
   665                           
   666     0070                     ___lwmod@divisor:	
   667                           ; 2 bytes @ 0x0
   668                           
   669     0070                     ___flge@ff1:	
   670                           ; 2 bytes @ 0x0
   671                           
   672     0070                     ___xxtofl@val:	
   673                           ; 4 bytes @ 0x0
   674                           
   675                           
   676                           ; 4 bytes @ 0x0
   677     0070                     	ds	1
   678     0071                     ??_Lcd_Cmd:
   679     0071                     ??_Lcd_Write_Char:	
   680                           ; 1 bytes @ 0x1
   681                           
   682                           
   683                           ; 1 bytes @ 0x1
   684     0071                     	ds	1
   685     0072                     ??_Adc_Read:
   686     0072                     ??__Umul8_16:	
   687                           ; 1 bytes @ 0x2
   688                           
   689     0072                     Lcd_Write_Char@temp:	
   690                           ; 1 bytes @ 0x2
   691                           
   692     0072                     ___awdiv@dividend:	
   693                           ; 1 bytes @ 0x2
   694                           
   695     0072                     ___lwdiv@dividend:	
   696                           ; 2 bytes @ 0x2
   697                           
   698     0072                     ___lwmod@dividend:	
   699                           ; 2 bytes @ 0x2
   700                           
   701                           
   702                           ; 2 bytes @ 0x2
   703     0072                     	ds	1
   704     0073                     Lcd_Cmd@a:
   705     0073                     Lcd_Write_Char@y:	
   706                           ; 1 bytes @ 0x3
   707                           
   708                           
   709                           ; 1 bytes @ 0x3
   710     0073                     	ds	1
   711     0074                     ??_Lcd_Init:
   712     0074                     ??_Lcd_Clear:	
   713                           ; 1 bytes @ 0x4
   714                           
   715     0074                     ??___awdiv:	
   716                           ; 1 bytes @ 0x4
   717                           
   718     0074                     ??___lwdiv:	
   719                           ; 1 bytes @ 0x4
   720                           
   721     0074                     ??___lwmod:	
   722                           ; 1 bytes @ 0x4
   723                           
   724     0074                     ??___xxtofl:	
   725                           ; 1 bytes @ 0x4
   726                           
   727     0074                     Adc_Read@channel:	
   728                           ; 1 bytes @ 0x4
   729                           
   730     0074                     Lcd_Write_Char@a:	
   731                           ; 1 bytes @ 0x4
   732                           
   733     0074                     __Umul8_16@product:	
   734                           ; 1 bytes @ 0x4
   735                           
   736     0074                     ___flge@ff2:	
   737                           ; 2 bytes @ 0x4
   738                           
   739                           
   740                           ; 4 bytes @ 0x4
   741     0074                     	ds	1
   742     0075                     ?_Lcd_Write_String:
   743     0075                     ___awdiv@counter:	
   744                           ; 1 bytes @ 0x5
   745                           
   746     0075                     ___lwmod@counter:	
   747                           ; 1 bytes @ 0x5
   748                           
   749     0075                     Lcd_Write_String@a:	
   750                           ; 1 bytes @ 0x5
   751                           
   752     0075                     ___lwdiv@quotient:	
   753                           ; 2 bytes @ 0x5
   754                           
   755                           
   756                           ; 2 bytes @ 0x5
   757     0075                     	ds	1
   758     0076                     ___awdiv@sign:
   759     0076                     __Umul8_16@word_mpld:	
   760                           ; 1 bytes @ 0x6
   761                           
   762                           
   763                           ; 2 bytes @ 0x6
   764     0076                     	ds	1
   765     0077                     ??_Lcd_Write_String:
   766     0077                     ___lwdiv@counter:	
   767                           ; 1 bytes @ 0x7
   768                           
   769     0077                     ___awdiv@quotient:	
   770                           ; 1 bytes @ 0x7
   771                           
   772                           
   773                           ; 2 bytes @ 0x7
   774     0077                     	ds	1
   775     0078                     ??___flge:
   776     0078                     __Umul8_16@multiplier:	
   777                           ; 1 bytes @ 0x8
   778                           
   779     0078                     ___xxtofl@sign:	
   780                           ; 1 bytes @ 0x8
   781                           
   782                           
   783                           ; 1 bytes @ 0x8
   784     0078                     	ds	1
   785     0079                     ___xxtofl@exp:
   786                           
   787                           ; 1 bytes @ 0x9
   788     0079                     	ds	1
   789     007A                     Lcd_Write_String@i:
   790     007A                     ___xxtofl@arg:	
   791                           ; 2 bytes @ 0xA
   792                           
   793                           
   794                           ; 4 bytes @ 0xA
   795     007A                     	ds	4
   796     007E                     ??_pid_controller:
   797     007E                     ??_main:	
   798                           ; 1 bytes @ 0xE
   799                           
   800     007E                     ??___flsub:	
   801                           ; 1 bytes @ 0xE
   802                           
   803                           
   804                           	psect	cstackBANK0
   805     0020                     __pcstackBANK0:	
   806                           ; 1 bytes @ 0xE
   807                           
   808     0020                     ?___flmul:
   809     0020                     ___flmul@b:	
   810                           ; 4 bytes @ 0x0
   811                           
   812                           
   813                           ; 4 bytes @ 0x0
   814     0020                     	ds	4
   815     0024                     ___flmul@a:
   816                           
   817                           ; 4 bytes @ 0x4
   818     0024                     	ds	4
   819     0028                     ??___flmul:
   820                           
   821                           ; 1 bytes @ 0x8
   822     0028                     	ds	5
   823     002D                     ___flmul@sign:
   824                           
   825                           ; 1 bytes @ 0xD
   826     002D                     	ds	1
   827     002E                     ___flmul@grs:
   828                           
   829                           ; 4 bytes @ 0xE
   830     002E                     	ds	4
   831     0032                     ___flmul@aexp:
   832                           
   833                           ; 1 bytes @ 0x12
   834     0032                     	ds	1
   835     0033                     ___flmul@bexp:
   836                           
   837                           ; 1 bytes @ 0x13
   838     0033                     	ds	1
   839     0034                     ___flmul@prod:
   840                           
   841                           ; 4 bytes @ 0x14
   842     0034                     	ds	4
   843     0038                     ___flmul@temp:
   844                           
   845                           ; 2 bytes @ 0x18
   846     0038                     	ds	2
   847     003A                     ?___fltol:
   848     003A                     ?___fladd:	
   849                           ; 4 bytes @ 0x1A
   850                           
   851     003A                     ___fltol@f1:	
   852                           ; 4 bytes @ 0x1A
   853                           
   854     003A                     ___fladd@b:	
   855                           ; 4 bytes @ 0x1A
   856                           
   857                           
   858                           ; 4 bytes @ 0x1A
   859     003A                     	ds	4
   860     003E                     ??___fltol:
   861     003E                     ___fladd@a:	
   862                           ; 1 bytes @ 0x1E
   863                           
   864                           
   865                           ; 4 bytes @ 0x1E
   866     003E                     	ds	4
   867     0042                     ??___fladd:
   868     0042                     ___fltol@sign1:	
   869                           ; 1 bytes @ 0x22
   870                           
   871                           
   872                           ; 1 bytes @ 0x22
   873     0042                     	ds	1
   874     0043                     ___fltol@exp1:
   875                           
   876                           ; 1 bytes @ 0x23
   877     0043                     	ds	1
   878     0044                     ?_Lcd_Write_Int:
   879     0044                     Lcd_Write_Int@val:	
   880                           ; 2 bytes @ 0x24
   881                           
   882                           
   883                           ; 2 bytes @ 0x24
   884     0044                     	ds	2
   885     0046                     ??_Lcd_Write_Int:
   886                           
   887                           ; 1 bytes @ 0x26
   888     0046                     	ds	4
   889     004A                     ___fladd@signs:
   890                           
   891                           ; 1 bytes @ 0x2A
   892     004A                     	ds	1
   893     004B                     ___fladd@aexp:
   894                           
   895                           ; 1 bytes @ 0x2B
   896     004B                     	ds	1
   897     004C                     ___fladd@bexp:
   898                           
   899                           ; 1 bytes @ 0x2C
   900     004C                     	ds	1
   901     004D                     ___fladd@grs:
   902                           
   903                           ; 1 bytes @ 0x2D
   904     004D                     	ds	1
   905     004E                     ?___flsub:
   906     004E                     ___flsub@a:	
   907                           ; 4 bytes @ 0x2E
   908                           
   909                           
   910                           ; 4 bytes @ 0x2E
   911     004E                     	ds	4
   912     0052                     ___flsub@b:
   913                           
   914                           ; 4 bytes @ 0x32
   915     0052                     	ds	4
   916     0056                     pid_controller@derivative:
   917                           
   918                           ; 4 bytes @ 0x36
   919     0056                     	ds	4
   920     005A                     _pid_controller$821:
   921                           
   922                           ; 4 bytes @ 0x3A
   923     005A                     	ds	4
   924     005E                     pid_controller@control:
   925                           
   926                           ; 4 bytes @ 0x3E
   927     005E                     	ds	4
   928     0062                     pid_controller@error:
   929                           
   930                           ; 4 bytes @ 0x42
   931     0062                     	ds	4
   932     0066                     main@old_val:
   933                           
   934                           ; 2 bytes @ 0x46
   935     0066                     	ds	2
   936     0068                     main@val:
   937                           
   938                           ; 2 bytes @ 0x48
   939     0068                     	ds	2
   940                           
   941                           	psect	maintext
   942     0DFC                     __pmaintext:	
   943 ;;
   944 ;;Main: autosize = 0, tempsize = 0, incstack = 0, save=0
   945 ;;
   946 ;; *************** function _main *****************
   947 ;; Defined at:
   948 ;;		line 27 in file "main.c"
   949 ;; Parameters:    Size  Location     Type
   950 ;;		None
   951 ;; Auto vars:     Size  Location     Type
   952 ;;  val             2   72[BANK0 ] int 
   953 ;;  old_val         2   70[BANK0 ] int 
   954 ;;  err             1    0        unsigned char 
   955 ;; Return value:  Size  Location     Type
   956 ;;                  1    wreg      void 
   957 ;; Registers used:
   958 ;;		wreg, fsr0l, fsr0h, status,2, status,0, btemp+1, pclath, cstack
   959 ;; Tracked objects:
   960 ;;		On entry : B00/0
   961 ;;		On exit  : 0/0
   962 ;;		Unchanged: 0/0
   963 ;; Data sizes:     COMMON   BANK0   BANK1   BANK3   BANK2
   964 ;;      Params:         0       0       0       0       0
   965 ;;      Locals:         0       4       0       0       0
   966 ;;      Temps:          0       0       0       0       0
   967 ;;      Totals:         0       4       0       0       0
   968 ;;Total ram usage:        4 bytes
   969 ;; Hardware stack levels required when called: 4
   970 ;; This function calls:
   971 ;;		_Adc_Init
   972 ;;		_Adc_Read
   973 ;;		_Lcd_Clear
   974 ;;		_Lcd_Init
   975 ;;		_Lcd_Write_Int
   976 ;;		_Lcd_Write_String
   977 ;;		___flmul
   978 ;;		___fltol
   979 ;;		___xxtofl
   980 ;;		_pid_controller
   981 ;; This function is called by:
   982 ;;		Startup code after reset
   983 ;; This function uses a non-reentrant model
   984 ;;
   985                           
   986     0DFC                     _main:	
   987                           ;psect for function _main
   988                           
   989     0DFC                     l2291:	
   990                           ;incstack = 0
   991                           ; Regs used in _main: [wreg-fsr0h+status,2+status,0+btemp+1+pclath+cstack]
   992                           
   993                           
   994                           ;main.c: 29:     T1CON = 0b10000001;
   995     0DFC  3081               	movlw	129
   996     0DFD  1283               	bcf	3,5	;RP0=0, select bank0
   997     0DFE  1303               	bcf	3,6	;RP1=0, select bank0
   998     0DFF  0090               	movwf	16	;volatile
   999                           
  1000                           ;main.c: 31:     PR2 = 249;
  1001     0E00  30F9               	movlw	249
  1002     0E01  1683               	bsf	3,5	;RP0=1, select bank1
  1003     0E02  1303               	bcf	3,6	;RP1=0, select bank1
  1004     0E03  0092               	movwf	18	;volatile
  1005                           
  1006                           ;main.c: 33:     CCPR1L = 125;
  1007     0E04  307D               	movlw	125
  1008     0E05  1283               	bcf	3,5	;RP0=0, select bank0
  1009     0E06  1303               	bcf	3,6	;RP1=0, select bank0
  1010     0E07  0095               	movwf	21	;volatile
  1011                           
  1012                           ;main.c: 35:     CCP1CON = 0x09;
  1013     0E08  3009               	movlw	9
  1014     0E09  0097               	movwf	23	;volatile
  1015     0E0A                     l2293:
  1016                           
  1017                           ;main.c: 37:     TMR1 = 0;
  1018     0E0A  018E               	clrf	14	;volatile
  1019     0E0B  018F               	clrf	15	;volatile
  1020     0E0C                     l2295:
  1021                           
  1022                           ;main.c: 39:     Adc_Init();
  1023     0E0C  120A  158A  21A3  120A  158A  	fcall	_Adc_Init
  1024     0E11                     l2297:
  1025                           
  1026                           ;main.c: 40:     Lcd_Init();
  1027     0E11  120A  158A  235E  120A  158A  	fcall	_Lcd_Init
  1028     0E16                     l2299:
  1029                           
  1030                           ;main.c: 41:     TRISC = 0x00;
  1031     0E16  1683               	bsf	3,5	;RP0=1, select bank1
  1032     0E17  1303               	bcf	3,6	;RP1=0, select bank1
  1033     0E18  0187               	clrf	7	;volatile
  1034     0E19                     l2301:
  1035                           
  1036                           ;main.c: 42:     PORTC |= 0x20;
  1037     0E19  1283               	bcf	3,5	;RP0=0, select bank0
  1038     0E1A  1303               	bcf	3,6	;RP1=0, select bank0
  1039     0E1B  1687               	bsf	7,5	;volatile
  1040     0E1C                     l2303:
  1041     0E1C                     l2305:
  1042                           
  1043                           ;main.c: 48:         val = Adc_Read(2);
  1044     0E1C  3002               	movlw	2
  1045     0E1D  120A  158A  223A  120A  158A  	fcall	_Adc_Read
  1046     0E22  0871               	movf	?_Adc_Read+1,w
  1047     0E23  1283               	bcf	3,5	;RP0=0, select bank0
  1048     0E24  1303               	bcf	3,6	;RP1=0, select bank0
  1049     0E25  00E9               	movwf	main@val+1
  1050     0E26  0870               	movf	?_Adc_Read,w
  1051     0E27  00E8               	movwf	main@val
  1052     0E28                     l2307:
  1053                           
  1054                           ;main.c: 49:         if (val == old_val) continue;
  1055     0E28  0867               	movf	main@old_val+1,w
  1056     0E29  0669               	xorwf	main@val+1,w
  1057     0E2A  1D03               	skipz
  1058     0E2B  2E2E               	goto	u3345
  1059     0E2C  0866               	movf	main@old_val,w
  1060     0E2D  0668               	xorwf	main@val,w
  1061     0E2E                     u3345:
  1062     0E2E  1D03               	skipz
  1063     0E2F  2E31               	goto	u3341
  1064     0E30  2E32               	goto	u3340
  1065     0E31                     u3341:
  1066     0E31  2E33               	goto	l2311
  1067     0E32                     u3340:
  1068     0E32  2E1C               	goto	l2303
  1069     0E33                     l2311:
  1070                           
  1071                           ;main.c: 50:         pid_controller(40*0.488, val, 1, 0, 0.1, 0, 255);
  1072     0E33  3041               	movlw	65
  1073     0E34  1683               	bsf	3,5	;RP0=1, select bank1
  1074     0E35  1303               	bcf	3,6	;RP1=0, select bank1
  1075     0E36  00A3               	movwf	(pid_controller@setpoint+3)^(0+128)
  1076     0E37  309C               	movlw	156
  1077     0E38  00A2               	movwf	(pid_controller@setpoint+2)^(0+128)
  1078     0E39  3028               	movlw	40
  1079     0E3A  00A1               	movwf	(pid_controller@setpoint+1)^(0+128)
  1080     0E3B  30F6               	movlw	246
  1081     0E3C  00A0               	movwf	pid_controller@setpoint^(0+128)
  1082     0E3D  1283               	bcf	3,5	;RP0=0, select bank0
  1083     0E3E  1303               	bcf	3,6	;RP1=0, select bank0
  1084     0E3F  0868               	movf	main@val,w
  1085     0E40  00F0               	movwf	___xxtofl@val
  1086     0E41  0869               	movf	main@val+1,w
  1087     0E42  00F1               	movwf	___xxtofl@val+1
  1088     0E43  3000               	movlw	0
  1089     0E44  1BF1               	btfsc	___xxtofl@val+1,7
  1090     0E45  30FF               	movlw	255
  1091     0E46  00F2               	movwf	___xxtofl@val+2
  1092     0E47  00F3               	movwf	___xxtofl@val+3
  1093     0E48  3001               	movlw	1
  1094     0E49  120A  158A  2544  120A  158A  	fcall	___xxtofl
  1095     0E4E  0873               	movf	?___xxtofl+3,w
  1096     0E4F  1683               	bsf	3,5	;RP0=1, select bank1
  1097     0E50  1303               	bcf	3,6	;RP1=0, select bank1
  1098     0E51  00A7               	movwf	(pid_controller@process_variable+3)^(0+128)
  1099     0E52  0872               	movf	?___xxtofl+2,w
  1100     0E53  00A6               	movwf	(pid_controller@process_variable+2)^(0+128)
  1101     0E54  0871               	movf	?___xxtofl+1,w
  1102     0E55  00A5               	movwf	(pid_controller@process_variable+1)^(0+128)
  1103     0E56  0870               	movf	?___xxtofl,w
  1104     0E57  00A4               	movwf	pid_controller@process_variable^(0+128)
  1105     0E58  303F               	movlw	63
  1106     0E59  00AB               	movwf	(pid_controller@kp+3)^(0+128)
  1107     0E5A  3080               	movlw	128
  1108     0E5B  00AA               	movwf	(pid_controller@kp+2)^(0+128)
  1109     0E5C  3000               	movlw	0
  1110     0E5D  00A9               	movwf	(pid_controller@kp+1)^(0+128)
  1111     0E5E  3000               	movlw	0
  1112     0E5F  00A8               	movwf	pid_controller@kp^(0+128)
  1113     0E60  3000               	movlw	0
  1114     0E61  00AF               	movwf	(pid_controller@ki+3)^(0+128)
  1115     0E62  3000               	movlw	0
  1116     0E63  00AE               	movwf	(pid_controller@ki+2)^(0+128)
  1117     0E64  3000               	movlw	0
  1118     0E65  00AD               	movwf	(pid_controller@ki+1)^(0+128)
  1119     0E66  3000               	movlw	0
  1120     0E67  00AC               	movwf	pid_controller@ki^(0+128)
  1121     0E68  303D               	movlw	61
  1122     0E69  00B3               	movwf	(pid_controller@kd+3)^(0+128)
  1123     0E6A  30CC               	movlw	204
  1124     0E6B  00B2               	movwf	(pid_controller@kd+2)^(0+128)
  1125     0E6C  30CC               	movlw	204
  1126     0E6D  00B1               	movwf	(pid_controller@kd+1)^(0+128)
  1127     0E6E  30CD               	movlw	205
  1128     0E6F  00B0               	movwf	pid_controller@kd^(0+128)
  1129     0E70  3000               	movlw	0
  1130     0E71  00B7               	movwf	(pid_controller@control_min+3)^(0+128)
  1131     0E72  3000               	movlw	0
  1132     0E73  00B6               	movwf	(pid_controller@control_min+2)^(0+128)
  1133     0E74  3000               	movlw	0
  1134     0E75  00B5               	movwf	(pid_controller@control_min+1)^(0+128)
  1135     0E76  3000               	movlw	0
  1136     0E77  00B4               	movwf	pid_controller@control_min^(0+128)
  1137     0E78  3043               	movlw	67
  1138     0E79  00BB               	movwf	(pid_controller@control_max+3)^(0+128)
  1139     0E7A  307F               	movlw	127
  1140     0E7B  00BA               	movwf	(pid_controller@control_max+2)^(0+128)
  1141     0E7C  3000               	movlw	0
  1142     0E7D  00B9               	movwf	(pid_controller@control_max+1)^(0+128)
  1143     0E7E  3000               	movlw	0
  1144     0E7F  00B8               	movwf	pid_controller@control_max^(0+128)
  1145     0E80  120A  118A  2016  120A  158A  	fcall	_pid_controller
  1146     0E85                     l2313:
  1147                           
  1148                           ;main.c: 51:         Lcd_Clear();
  1149     0E85  120A  118A  2009  120A  158A  	fcall	_Lcd_Clear
  1150     0E8A                     l2315:
  1151                           
  1152                           ;main.c: 52:         old_val = val;
  1153     0E8A  1283               	bcf	3,5	;RP0=0, select bank0
  1154     0E8B  1303               	bcf	3,6	;RP1=0, select bank0
  1155     0E8C  0869               	movf	main@val+1,w
  1156     0E8D  00E7               	movwf	main@old_val+1
  1157     0E8E  0868               	movf	main@val,w
  1158     0E8F  00E6               	movwf	main@old_val
  1159     0E90                     l2317:
  1160                           
  1161                           ;main.c: 53:         Lcd_Write_Int(val * 0.488);
  1162     0E90  0868               	movf	main@val,w
  1163     0E91  00F0               	movwf	___xxtofl@val
  1164     0E92  0869               	movf	main@val+1,w
  1165     0E93  00F1               	movwf	___xxtofl@val+1
  1166     0E94  3000               	movlw	0
  1167     0E95  1BF1               	btfsc	___xxtofl@val+1,7
  1168     0E96  30FF               	movlw	255
  1169     0E97  00F2               	movwf	___xxtofl@val+2
  1170     0E98  00F3               	movwf	___xxtofl@val+3
  1171     0E99  3001               	movlw	1
  1172     0E9A  120A  158A  2544  120A  158A  	fcall	___xxtofl
  1173     0E9F  0873               	movf	?___xxtofl+3,w
  1174     0EA0  1283               	bcf	3,5	;RP0=0, select bank0
  1175     0EA1  1303               	bcf	3,6	;RP1=0, select bank0
  1176     0EA2  00A7               	movwf	___flmul@a+3
  1177     0EA3  0872               	movf	?___xxtofl+2,w
  1178     0EA4  00A6               	movwf	___flmul@a+2
  1179     0EA5  0871               	movf	?___xxtofl+1,w
  1180     0EA6  00A5               	movwf	___flmul@a+1
  1181     0EA7  0870               	movf	?___xxtofl,w
  1182     0EA8  00A4               	movwf	___flmul@a
  1183     0EA9  303E               	movlw	62
  1184     0EAA  00A3               	movwf	___flmul@b+3
  1185     0EAB  30F9               	movlw	249
  1186     0EAC  00A2               	movwf	___flmul@b+2
  1187     0EAD  30DB               	movlw	219
  1188     0EAE  00A1               	movwf	___flmul@b+1
  1189     0EAF  3023               	movlw	35
  1190     0EB0  00A0               	movwf	___flmul@b
  1191     0EB1  120A  118A  24AA  120A  158A  	fcall	___flmul
  1192     0EB6  1283               	bcf	3,5	;RP0=0, select bank0
  1193     0EB7  1303               	bcf	3,6	;RP1=0, select bank0
  1194     0EB8  0823               	movf	?___flmul+3,w
  1195     0EB9  00BD               	movwf	___fltol@f1+3
  1196     0EBA  0822               	movf	?___flmul+2,w
  1197     0EBB  00BC               	movwf	___fltol@f1+2
  1198     0EBC  0821               	movf	?___flmul+1,w
  1199     0EBD  00BB               	movwf	___fltol@f1+1
  1200     0EBE  0820               	movf	?___flmul,w
  1201     0EBF  00BA               	movwf	___fltol@f1
  1202     0EC0  120A  158A  242A  120A  158A  	fcall	___fltol
  1203     0EC5  1283               	bcf	3,5	;RP0=0, select bank0
  1204     0EC6  1303               	bcf	3,6	;RP1=0, select bank0
  1205     0EC7  083B               	movf	?___fltol+1,w
  1206     0EC8  00C5               	movwf	Lcd_Write_Int@val+1
  1207     0EC9  083A               	movf	?___fltol,w
  1208     0ECA  00C4               	movwf	Lcd_Write_Int@val
  1209     0ECB  120A  158A  26E3  120A  158A  	fcall	_Lcd_Write_Int
  1210     0ED0                     l2319:
  1211                           
  1212                           ;main.c: 54:         if (!(val & 0x01)) Lcd_Write_String(".5");
  1213     0ED0  1283               	bcf	3,5	;RP0=0, select bank0
  1214     0ED1  1303               	bcf	3,6	;RP1=0, select bank0
  1215     0ED2  1868               	btfsc	main@val,0
  1216     0ED3  2ED5               	goto	u3351
  1217     0ED4  2ED6               	goto	u3350
  1218     0ED5                     u3351:
  1219     0ED5  2E1C               	goto	l2303
  1220     0ED6                     u3350:
  1221     0ED6                     l2321:
  1222     0ED6  3017               	movlw	(low ((STR_1-__stringbase)| (0+32768)))& (0+255)
  1223     0ED7  00F5               	movwf	Lcd_Write_String@a
  1224     0ED8  3080               	movlw	128
  1225     0ED9  00F6               	movwf	Lcd_Write_String@a+1
  1226     0EDA  120A  158A  22D8  120A  158A  	fcall	_Lcd_Write_String
  1227     0EDF  2E1C               	goto	l2303
  1228     0EE0  120A  118A  2800   	ljmp	start
  1229     0EE3                     __end_of_main:
  1230                           
  1231                           	psect	text1
  1232     0016                     __ptext1:	
  1233 ;; *************** function _pid_controller *****************
  1234 ;; Defined at:
  1235 ;;		line 4 in file "PID.c"
  1236 ;; Parameters:    Size  Location     Type
  1237 ;;  setpoint        4    0[BANK1 ] void 
  1238 ;;  process_vari    4    4[BANK1 ] void 
  1239 ;;  kp              4    8[BANK1 ] void 
  1240 ;;  ki              4   12[BANK1 ] void 
  1241 ;;  kd              4   16[BANK1 ] void 
  1242 ;;  control_min     4   20[BANK1 ] void 
  1243 ;;  control_max     4   24[BANK1 ] void 
  1244 ;; Auto vars:     Size  Location     Type
  1245 ;;  error           4   66[BANK0 ] void 
  1246 ;;  control         4   62[BANK0 ] void 
  1247 ;;  derivative      4   54[BANK0 ] void 
  1248 ;; Return value:  Size  Location     Type
  1249 ;;                  4    0[BANK1 ] void 
  1250 ;; Registers used:
  1251 ;;		wreg, status,2, status,0, btemp+1, pclath, cstack
  1252 ;; Tracked objects:
  1253 ;;		On entry : 0/0
  1254 ;;		On exit  : 0/0
  1255 ;;		Unchanged: 0/0
  1256 ;; Data sizes:     COMMON   BANK0   BANK1   BANK3   BANK2
  1257 ;;      Params:         0       0      28       0       0
  1258 ;;      Locals:         0      16       0       0       0
  1259 ;;      Temps:          0       0       0       0       0
  1260 ;;      Totals:         0      16      28       0       0
  1261 ;;Total ram usage:       44 bytes
  1262 ;; Hardware stack levels used: 1
  1263 ;; Hardware stack levels required when called: 2
  1264 ;; This function calls:
  1265 ;;		___fladd
  1266 ;;		___flge
  1267 ;;		___flmul
  1268 ;;		___flsub
  1269 ;; This function is called by:
  1270 ;;		_main
  1271 ;; This function uses a non-reentrant model
  1272 ;;
  1273                           
  1274     0016                     _pid_controller:	
  1275                           ;psect for function _pid_controller
  1276                           
  1277     0016                     l2147:	
  1278                           ;incstack = 0
  1279                           ; Regs used in _pid_controller: [wreg+status,2+status,0+btemp+1+pclath+cstack]
  1280                           
  1281                           
  1282                           ;PID.c: 5:     static double previous_error = 0;;PID.c: 6:     static double integral = 
      +                          0;;PID.c: 7:     double error = setpoint - process_variable;
  1283     0016  1683               	bsf	3,5	;RP0=1, select bank1
  1284     0017  1303               	bcf	3,6	;RP1=0, select bank1
  1285     0018  0827               	movf	(pid_controller@process_variable+3)^(0+128),w
  1286     0019  1283               	bcf	3,5	;RP0=0, select bank0
  1287     001A  1303               	bcf	3,6	;RP1=0, select bank0
  1288     001B  00D1               	movwf	___flsub@a+3
  1289     001C  1683               	bsf	3,5	;RP0=1, select bank1
  1290     001D  1303               	bcf	3,6	;RP1=0, select bank1
  1291     001E  0826               	movf	(pid_controller@process_variable+2)^(0+128),w
  1292     001F  1283               	bcf	3,5	;RP0=0, select bank0
  1293     0020  1303               	bcf	3,6	;RP1=0, select bank0
  1294     0021  00D0               	movwf	___flsub@a+2
  1295     0022  1683               	bsf	3,5	;RP0=1, select bank1
  1296     0023  1303               	bcf	3,6	;RP1=0, select bank1
  1297     0024  0825               	movf	(pid_controller@process_variable+1)^(0+128),w
  1298     0025  1283               	bcf	3,5	;RP0=0, select bank0
  1299     0026  1303               	bcf	3,6	;RP1=0, select bank0
  1300     0027  00CF               	movwf	___flsub@a+1
  1301     0028  1683               	bsf	3,5	;RP0=1, select bank1
  1302     0029  1303               	bcf	3,6	;RP1=0, select bank1
  1303     002A  0824               	movf	pid_controller@process_variable^(0+128),w
  1304     002B  1283               	bcf	3,5	;RP0=0, select bank0
  1305     002C  1303               	bcf	3,6	;RP1=0, select bank0
  1306     002D  00CE               	movwf	___flsub@a
  1307     002E  1683               	bsf	3,5	;RP0=1, select bank1
  1308     002F  1303               	bcf	3,6	;RP1=0, select bank1
  1309     0030  0823               	movf	(pid_controller@setpoint+3)^(0+128),w
  1310     0031  1283               	bcf	3,5	;RP0=0, select bank0
  1311     0032  1303               	bcf	3,6	;RP1=0, select bank0
  1312     0033  00D5               	movwf	___flsub@b+3
  1313     0034  1683               	bsf	3,5	;RP0=1, select bank1
  1314     0035  1303               	bcf	3,6	;RP1=0, select bank1
  1315     0036  0822               	movf	(pid_controller@setpoint+2)^(0+128),w
  1316     0037  1283               	bcf	3,5	;RP0=0, select bank0
  1317     0038  1303               	bcf	3,6	;RP1=0, select bank0
  1318     0039  00D4               	movwf	___flsub@b+2
  1319     003A  1683               	bsf	3,5	;RP0=1, select bank1
  1320     003B  1303               	bcf	3,6	;RP1=0, select bank1
  1321     003C  0821               	movf	(pid_controller@setpoint+1)^(0+128),w
  1322     003D  1283               	bcf	3,5	;RP0=0, select bank0
  1323     003E  1303               	bcf	3,6	;RP1=0, select bank0
  1324     003F  00D3               	movwf	___flsub@b+1
  1325     0040  1683               	bsf	3,5	;RP0=1, select bank1
  1326     0041  1303               	bcf	3,6	;RP1=0, select bank1
  1327     0042  0820               	movf	pid_controller@setpoint^(0+128),w
  1328     0043  1283               	bcf	3,5	;RP0=0, select bank0
  1329     0044  1303               	bcf	3,6	;RP1=0, select bank0
  1330     0045  00D2               	movwf	___flsub@b
  1331     0046  120A  158A  21EF  120A  118A  	fcall	___flsub
  1332     004B  1283               	bcf	3,5	;RP0=0, select bank0
  1333     004C  1303               	bcf	3,6	;RP1=0, select bank0
  1334     004D  0851               	movf	?___flsub+3,w
  1335     004E  00E5               	movwf	pid_controller@error+3
  1336     004F  0850               	movf	?___flsub+2,w
  1337     0050  00E4               	movwf	pid_controller@error+2
  1338     0051  084F               	movf	?___flsub+1,w
  1339     0052  00E3               	movwf	pid_controller@error+1
  1340     0053  084E               	movf	?___flsub,w
  1341     0054  00E2               	movwf	pid_controller@error
  1342                           
  1343                           ;PID.c: 8:     integral += error;
  1344     0055  0865               	movf	pid_controller@error+3,w
  1345     0056  00BD               	movwf	___fladd@b+3
  1346     0057  0864               	movf	pid_controller@error+2,w
  1347     0058  00BC               	movwf	___fladd@b+2
  1348     0059  0863               	movf	pid_controller@error+1,w
  1349     005A  00BB               	movwf	___fladd@b+1
  1350     005B  0862               	movf	pid_controller@error,w
  1351     005C  00BA               	movwf	___fladd@b
  1352     005D  1683               	bsf	3,5	;RP0=1, select bank1
  1353     005E  1303               	bcf	3,6	;RP1=0, select bank1
  1354     005F  085E               	movf	(pid_controller@integral+3)^(0+128),w
  1355     0060  1283               	bcf	3,5	;RP0=0, select bank0
  1356     0061  1303               	bcf	3,6	;RP1=0, select bank0
  1357     0062  00C1               	movwf	___fladd@a+3
  1358     0063  1683               	bsf	3,5	;RP0=1, select bank1
  1359     0064  1303               	bcf	3,6	;RP1=0, select bank1
  1360     0065  085D               	movf	(pid_controller@integral+2)^(0+128),w
  1361     0066  1283               	bcf	3,5	;RP0=0, select bank0
  1362     0067  1303               	bcf	3,6	;RP1=0, select bank0
  1363     0068  00C0               	movwf	___fladd@a+2
  1364     0069  1683               	bsf	3,5	;RP0=1, select bank1
  1365     006A  1303               	bcf	3,6	;RP1=0, select bank1
  1366     006B  085C               	movf	(pid_controller@integral+1)^(0+128),w
  1367     006C  1283               	bcf	3,5	;RP0=0, select bank0
  1368     006D  1303               	bcf	3,6	;RP1=0, select bank0
  1369     006E  00BF               	movwf	___fladd@a+1
  1370     006F  1683               	bsf	3,5	;RP0=1, select bank1
  1371     0070  1303               	bcf	3,6	;RP1=0, select bank1
  1372     0071  085B               	movf	pid_controller@integral^(0+128),w
  1373     0072  1283               	bcf	3,5	;RP0=0, select bank0
  1374     0073  1303               	bcf	3,6	;RP1=0, select bank0
  1375     0074  00BE               	movwf	___fladd@a
  1376     0075  120A  118A  2252  120A  118A  	fcall	___fladd
  1377     007A  1283               	bcf	3,5	;RP0=0, select bank0
  1378     007B  1303               	bcf	3,6	;RP1=0, select bank0
  1379     007C  083D               	movf	?___fladd+3,w
  1380     007D  1683               	bsf	3,5	;RP0=1, select bank1
  1381     007E  1303               	bcf	3,6	;RP1=0, select bank1
  1382     007F  00DE               	movwf	(pid_controller@integral+3)^(0+128)
  1383     0080  1283               	bcf	3,5	;RP0=0, select bank0
  1384     0081  1303               	bcf	3,6	;RP1=0, select bank0
  1385     0082  083C               	movf	?___fladd+2,w
  1386     0083  1683               	bsf	3,5	;RP0=1, select bank1
  1387     0084  1303               	bcf	3,6	;RP1=0, select bank1
  1388     0085  00DD               	movwf	(pid_controller@integral+2)^(0+128)
  1389     0086  1283               	bcf	3,5	;RP0=0, select bank0
  1390     0087  1303               	bcf	3,6	;RP1=0, select bank0
  1391     0088  083B               	movf	?___fladd+1,w
  1392     0089  1683               	bsf	3,5	;RP0=1, select bank1
  1393     008A  1303               	bcf	3,6	;RP1=0, select bank1
  1394     008B  00DC               	movwf	(pid_controller@integral+1)^(0+128)
  1395     008C  1283               	bcf	3,5	;RP0=0, select bank0
  1396     008D  1303               	bcf	3,6	;RP1=0, select bank0
  1397     008E  083A               	movf	?___fladd,w
  1398     008F  1683               	bsf	3,5	;RP0=1, select bank1
  1399     0090  1303               	bcf	3,6	;RP1=0, select bank1
  1400     0091  00DB               	movwf	pid_controller@integral^(0+128)
  1401                           
  1402                           ;PID.c: 9:     double derivative = error - previous_error;
  1403     0092  0862               	movf	(pid_controller@previous_error+3)^(0+128),w
  1404     0093  1283               	bcf	3,5	;RP0=0, select bank0
  1405     0094  1303               	bcf	3,6	;RP1=0, select bank0
  1406     0095  00D1               	movwf	___flsub@a+3
  1407     0096  1683               	bsf	3,5	;RP0=1, select bank1
  1408     0097  1303               	bcf	3,6	;RP1=0, select bank1
  1409     0098  0861               	movf	(pid_controller@previous_error+2)^(0+128),w
  1410     0099  1283               	bcf	3,5	;RP0=0, select bank0
  1411     009A  1303               	bcf	3,6	;RP1=0, select bank0
  1412     009B  00D0               	movwf	___flsub@a+2
  1413     009C  1683               	bsf	3,5	;RP0=1, select bank1
  1414     009D  1303               	bcf	3,6	;RP1=0, select bank1
  1415     009E  0860               	movf	(pid_controller@previous_error+1)^(0+128),w
  1416     009F  1283               	bcf	3,5	;RP0=0, select bank0
  1417     00A0  1303               	bcf	3,6	;RP1=0, select bank0
  1418     00A1  00CF               	movwf	___flsub@a+1
  1419     00A2  1683               	bsf	3,5	;RP0=1, select bank1
  1420     00A3  1303               	bcf	3,6	;RP1=0, select bank1
  1421     00A4  085F               	movf	pid_controller@previous_error^(0+128),w
  1422     00A5  1283               	bcf	3,5	;RP0=0, select bank0
  1423     00A6  1303               	bcf	3,6	;RP1=0, select bank0
  1424     00A7  00CE               	movwf	___flsub@a
  1425     00A8  0865               	movf	pid_controller@error+3,w
  1426     00A9  00D5               	movwf	___flsub@b+3
  1427     00AA  0864               	movf	pid_controller@error+2,w
  1428     00AB  00D4               	movwf	___flsub@b+2
  1429     00AC  0863               	movf	pid_controller@error+1,w
  1430     00AD  00D3               	movwf	___flsub@b+1
  1431     00AE  0862               	movf	pid_controller@error,w
  1432     00AF  00D2               	movwf	___flsub@b
  1433     00B0  120A  158A  21EF  120A  118A  	fcall	___flsub
  1434     00B5  1283               	bcf	3,5	;RP0=0, select bank0
  1435     00B6  1303               	bcf	3,6	;RP1=0, select bank0
  1436     00B7  0851               	movf	?___flsub+3,w
  1437     00B8  00D9               	movwf	pid_controller@derivative+3
  1438     00B9  0850               	movf	?___flsub+2,w
  1439     00BA  00D8               	movwf	pid_controller@derivative+2
  1440     00BB  084F               	movf	?___flsub+1,w
  1441     00BC  00D7               	movwf	pid_controller@derivative+1
  1442     00BD  084E               	movf	?___flsub,w
  1443     00BE  00D6               	movwf	pid_controller@derivative
  1444                           
  1445                           ;PID.c: 10:     double control = kp * error + ki * integral + kd * derivative;
  1446     00BF  1683               	bsf	3,5	;RP0=1, select bank1
  1447     00C0  1303               	bcf	3,6	;RP1=0, select bank1
  1448     00C1  085E               	movf	(pid_controller@integral+3)^(0+128),w
  1449     00C2  1283               	bcf	3,5	;RP0=0, select bank0
  1450     00C3  1303               	bcf	3,6	;RP1=0, select bank0
  1451     00C4  00A3               	movwf	___flmul@b+3
  1452     00C5  1683               	bsf	3,5	;RP0=1, select bank1
  1453     00C6  1303               	bcf	3,6	;RP1=0, select bank1
  1454     00C7  085D               	movf	(pid_controller@integral+2)^(0+128),w
  1455     00C8  1283               	bcf	3,5	;RP0=0, select bank0
  1456     00C9  1303               	bcf	3,6	;RP1=0, select bank0
  1457     00CA  00A2               	movwf	___flmul@b+2
  1458     00CB  1683               	bsf	3,5	;RP0=1, select bank1
  1459     00CC  1303               	bcf	3,6	;RP1=0, select bank1
  1460     00CD  085C               	movf	(pid_controller@integral+1)^(0+128),w
  1461     00CE  1283               	bcf	3,5	;RP0=0, select bank0
  1462     00CF  1303               	bcf	3,6	;RP1=0, select bank0
  1463     00D0  00A1               	movwf	___flmul@b+1
  1464     00D1  1683               	bsf	3,5	;RP0=1, select bank1
  1465     00D2  1303               	bcf	3,6	;RP1=0, select bank1
  1466     00D3  085B               	movf	pid_controller@integral^(0+128),w
  1467     00D4  1283               	bcf	3,5	;RP0=0, select bank0
  1468     00D5  1303               	bcf	3,6	;RP1=0, select bank0
  1469     00D6  00A0               	movwf	___flmul@b
  1470     00D7  1683               	bsf	3,5	;RP0=1, select bank1
  1471     00D8  1303               	bcf	3,6	;RP1=0, select bank1
  1472     00D9  082F               	movf	(pid_controller@ki+3)^(0+128),w
  1473     00DA  1283               	bcf	3,5	;RP0=0, select bank0
  1474     00DB  1303               	bcf	3,6	;RP1=0, select bank0
  1475     00DC  00A7               	movwf	___flmul@a+3
  1476     00DD  1683               	bsf	3,5	;RP0=1, select bank1
  1477     00DE  1303               	bcf	3,6	;RP1=0, select bank1
  1478     00DF  082E               	movf	(pid_controller@ki+2)^(0+128),w
  1479     00E0  1283               	bcf	3,5	;RP0=0, select bank0
  1480     00E1  1303               	bcf	3,6	;RP1=0, select bank0
  1481     00E2  00A6               	movwf	___flmul@a+2
  1482     00E3  1683               	bsf	3,5	;RP0=1, select bank1
  1483     00E4  1303               	bcf	3,6	;RP1=0, select bank1
  1484     00E5  082D               	movf	(pid_controller@ki+1)^(0+128),w
  1485     00E6  1283               	bcf	3,5	;RP0=0, select bank0
  1486     00E7  1303               	bcf	3,6	;RP1=0, select bank0
  1487     00E8  00A5               	movwf	___flmul@a+1
  1488     00E9  1683               	bsf	3,5	;RP0=1, select bank1
  1489     00EA  1303               	bcf	3,6	;RP1=0, select bank1
  1490     00EB  082C               	movf	pid_controller@ki^(0+128),w
  1491     00EC  1283               	bcf	3,5	;RP0=0, select bank0
  1492     00ED  1303               	bcf	3,6	;RP1=0, select bank0
  1493     00EE  00A4               	movwf	___flmul@a
  1494     00EF  120A  118A  24AA  120A  118A  	fcall	___flmul
  1495     00F4  1283               	bcf	3,5	;RP0=0, select bank0
  1496     00F5  1303               	bcf	3,6	;RP1=0, select bank0
  1497     00F6  0823               	movf	?___flmul+3,w
  1498     00F7  00BD               	movwf	___fladd@b+3
  1499     00F8  0822               	movf	?___flmul+2,w
  1500     00F9  00BC               	movwf	___fladd@b+2
  1501     00FA  0821               	movf	?___flmul+1,w
  1502     00FB  00BB               	movwf	___fladd@b+1
  1503     00FC  0820               	movf	?___flmul,w
  1504     00FD  00BA               	movwf	___fladd@b
  1505     00FE  0865               	movf	pid_controller@error+3,w
  1506     00FF  00A3               	movwf	___flmul@b+3
  1507     0100  0864               	movf	pid_controller@error+2,w
  1508     0101  00A2               	movwf	___flmul@b+2
  1509     0102  0863               	movf	pid_controller@error+1,w
  1510     0103  00A1               	movwf	___flmul@b+1
  1511     0104  0862               	movf	pid_controller@error,w
  1512     0105  00A0               	movwf	___flmul@b
  1513     0106  1683               	bsf	3,5	;RP0=1, select bank1
  1514     0107  1303               	bcf	3,6	;RP1=0, select bank1
  1515     0108  082B               	movf	(pid_controller@kp+3)^(0+128),w
  1516     0109  1283               	bcf	3,5	;RP0=0, select bank0
  1517     010A  1303               	bcf	3,6	;RP1=0, select bank0
  1518     010B  00A7               	movwf	___flmul@a+3
  1519     010C  1683               	bsf	3,5	;RP0=1, select bank1
  1520     010D  1303               	bcf	3,6	;RP1=0, select bank1
  1521     010E  082A               	movf	(pid_controller@kp+2)^(0+128),w
  1522     010F  1283               	bcf	3,5	;RP0=0, select bank0
  1523     0110  1303               	bcf	3,6	;RP1=0, select bank0
  1524     0111  00A6               	movwf	___flmul@a+2
  1525     0112  1683               	bsf	3,5	;RP0=1, select bank1
  1526     0113  1303               	bcf	3,6	;RP1=0, select bank1
  1527     0114  0829               	movf	(pid_controller@kp+1)^(0+128),w
  1528     0115  1283               	bcf	3,5	;RP0=0, select bank0
  1529     0116  1303               	bcf	3,6	;RP1=0, select bank0
  1530     0117  00A5               	movwf	___flmul@a+1
  1531     0118  1683               	bsf	3,5	;RP0=1, select bank1
  1532     0119  1303               	bcf	3,6	;RP1=0, select bank1
  1533     011A  0828               	movf	pid_controller@kp^(0+128),w
  1534     011B  1283               	bcf	3,5	;RP0=0, select bank0
  1535     011C  1303               	bcf	3,6	;RP1=0, select bank0
  1536     011D  00A4               	movwf	___flmul@a
  1537     011E  120A  118A  24AA  120A  118A  	fcall	___flmul
  1538     0123  1283               	bcf	3,5	;RP0=0, select bank0
  1539     0124  1303               	bcf	3,6	;RP1=0, select bank0
  1540     0125  0823               	movf	?___flmul+3,w
  1541     0126  00C1               	movwf	___fladd@a+3
  1542     0127  0822               	movf	?___flmul+2,w
  1543     0128  00C0               	movwf	___fladd@a+2
  1544     0129  0821               	movf	?___flmul+1,w
  1545     012A  00BF               	movwf	___fladd@a+1
  1546     012B  0820               	movf	?___flmul,w
  1547     012C  00BE               	movwf	___fladd@a
  1548     012D  120A  118A  2252  120A  118A  	fcall	___fladd
  1549     0132  1283               	bcf	3,5	;RP0=0, select bank0
  1550     0133  1303               	bcf	3,6	;RP1=0, select bank0
  1551     0134  083D               	movf	?___fladd+3,w
  1552     0135  00DD               	movwf	_pid_controller$821+3
  1553     0136  083C               	movf	?___fladd+2,w
  1554     0137  00DC               	movwf	_pid_controller$821+2
  1555     0138  083B               	movf	?___fladd+1,w
  1556     0139  00DB               	movwf	_pid_controller$821+1
  1557     013A  083A               	movf	?___fladd,w
  1558     013B  00DA               	movwf	_pid_controller$821
  1559                           
  1560                           ;PID.c: 10:     double control = kp * error + ki * integral + kd * derivative;
  1561     013C  0859               	movf	pid_controller@derivative+3,w
  1562     013D  00A3               	movwf	___flmul@b+3
  1563     013E  0858               	movf	pid_controller@derivative+2,w
  1564     013F  00A2               	movwf	___flmul@b+2
  1565     0140  0857               	movf	pid_controller@derivative+1,w
  1566     0141  00A1               	movwf	___flmul@b+1
  1567     0142  0856               	movf	pid_controller@derivative,w
  1568     0143  00A0               	movwf	___flmul@b
  1569     0144  1683               	bsf	3,5	;RP0=1, select bank1
  1570     0145  1303               	bcf	3,6	;RP1=0, select bank1
  1571     0146  0833               	movf	(pid_controller@kd+3)^(0+128),w
  1572     0147  1283               	bcf	3,5	;RP0=0, select bank0
  1573     0148  1303               	bcf	3,6	;RP1=0, select bank0
  1574     0149  00A7               	movwf	___flmul@a+3
  1575     014A  1683               	bsf	3,5	;RP0=1, select bank1
  1576     014B  1303               	bcf	3,6	;RP1=0, select bank1
  1577     014C  0832               	movf	(pid_controller@kd+2)^(0+128),w
  1578     014D  1283               	bcf	3,5	;RP0=0, select bank0
  1579     014E  1303               	bcf	3,6	;RP1=0, select bank0
  1580     014F  00A6               	movwf	___flmul@a+2
  1581     0150  1683               	bsf	3,5	;RP0=1, select bank1
  1582     0151  1303               	bcf	3,6	;RP1=0, select bank1
  1583     0152  0831               	movf	(pid_controller@kd+1)^(0+128),w
  1584     0153  1283               	bcf	3,5	;RP0=0, select bank0
  1585     0154  1303               	bcf	3,6	;RP1=0, select bank0
  1586     0155  00A5               	movwf	___flmul@a+1
  1587     0156  1683               	bsf	3,5	;RP0=1, select bank1
  1588     0157  1303               	bcf	3,6	;RP1=0, select bank1
  1589     0158  0830               	movf	pid_controller@kd^(0+128),w
  1590     0159  1283               	bcf	3,5	;RP0=0, select bank0
  1591     015A  1303               	bcf	3,6	;RP1=0, select bank0
  1592     015B  00A4               	movwf	___flmul@a
  1593     015C  120A  118A  24AA  120A  118A  	fcall	___flmul
  1594     0161  1283               	bcf	3,5	;RP0=0, select bank0
  1595     0162  1303               	bcf	3,6	;RP1=0, select bank0
  1596     0163  0823               	movf	?___flmul+3,w
  1597     0164  00BD               	movwf	___fladd@b+3
  1598     0165  0822               	movf	?___flmul+2,w
  1599     0166  00BC               	movwf	___fladd@b+2
  1600     0167  0821               	movf	?___flmul+1,w
  1601     0168  00BB               	movwf	___fladd@b+1
  1602     0169  0820               	movf	?___flmul,w
  1603     016A  00BA               	movwf	___fladd@b
  1604     016B  085D               	movf	_pid_controller$821+3,w
  1605     016C  00C1               	movwf	___fladd@a+3
  1606     016D  085C               	movf	_pid_controller$821+2,w
  1607     016E  00C0               	movwf	___fladd@a+2
  1608     016F  085B               	movf	_pid_controller$821+1,w
  1609     0170  00BF               	movwf	___fladd@a+1
  1610     0171  085A               	movf	_pid_controller$821,w
  1611     0172  00BE               	movwf	___fladd@a
  1612     0173  120A  118A  2252  120A  118A  	fcall	___fladd
  1613     0178  1283               	bcf	3,5	;RP0=0, select bank0
  1614     0179  1303               	bcf	3,6	;RP1=0, select bank0
  1615     017A  083D               	movf	?___fladd+3,w
  1616     017B  00E1               	movwf	pid_controller@control+3
  1617     017C  083C               	movf	?___fladd+2,w
  1618     017D  00E0               	movwf	pid_controller@control+2
  1619     017E  083B               	movf	?___fladd+1,w
  1620     017F  00DF               	movwf	pid_controller@control+1
  1621     0180  083A               	movf	?___fladd,w
  1622     0181  00DE               	movwf	pid_controller@control
  1623     0182                     l2149:
  1624                           
  1625                           ;PID.c: 12:     if (control < control_min) {
  1626     0182  0861               	movf	pid_controller@control+3,w
  1627     0183  00F3               	movwf	___flge@ff1+3
  1628     0184  0860               	movf	pid_controller@control+2,w
  1629     0185  00F2               	movwf	___flge@ff1+2
  1630     0186  085F               	movf	pid_controller@control+1,w
  1631     0187  00F1               	movwf	___flge@ff1+1
  1632     0188  085E               	movf	pid_controller@control,w
  1633     0189  00F0               	movwf	___flge@ff1
  1634     018A  1683               	bsf	3,5	;RP0=1, select bank1
  1635     018B  1303               	bcf	3,6	;RP1=0, select bank1
  1636     018C  0837               	movf	(pid_controller@control_min+3)^(0+128),w
  1637     018D  00F7               	movwf	___flge@ff2+3
  1638     018E  0836               	movf	(pid_controller@control_min+2)^(0+128),w
  1639     018F  00F6               	movwf	___flge@ff2+2
  1640     0190  0835               	movf	(pid_controller@control_min+1)^(0+128),w
  1641     0191  00F5               	movwf	___flge@ff2+1
  1642     0192  0834               	movf	pid_controller@control_min^(0+128),w
  1643     0193  00F4               	movwf	___flge@ff2
  1644     0194  120A  158A  24A2  120A  118A  	fcall	___flge
  1645     0199  1803               	btfsc	3,0
  1646     019A  299C               	goto	u3011
  1647     019B  299D               	goto	u3010
  1648     019C                     u3011:
  1649     019C  29DD               	goto	l2155
  1650     019D                     u3010:
  1651     019D                     l2151:
  1652                           
  1653                           ;PID.c: 13:         integral -= error;
  1654     019D  1283               	bcf	3,5	;RP0=0, select bank0
  1655     019E  1303               	bcf	3,6	;RP1=0, select bank0
  1656     019F  0865               	movf	pid_controller@error+3,w
  1657     01A0  00D1               	movwf	___flsub@a+3
  1658     01A1  0864               	movf	pid_controller@error+2,w
  1659     01A2  00D0               	movwf	___flsub@a+2
  1660     01A3  0863               	movf	pid_controller@error+1,w
  1661     01A4  00CF               	movwf	___flsub@a+1
  1662     01A5  0862               	movf	pid_controller@error,w
  1663     01A6  00CE               	movwf	___flsub@a
  1664     01A7  1683               	bsf	3,5	;RP0=1, select bank1
  1665     01A8  1303               	bcf	3,6	;RP1=0, select bank1
  1666     01A9  085E               	movf	(pid_controller@integral+3)^(0+128),w
  1667     01AA  1283               	bcf	3,5	;RP0=0, select bank0
  1668     01AB  1303               	bcf	3,6	;RP1=0, select bank0
  1669     01AC  00D5               	movwf	___flsub@b+3
  1670     01AD  1683               	bsf	3,5	;RP0=1, select bank1
  1671     01AE  1303               	bcf	3,6	;RP1=0, select bank1
  1672     01AF  085D               	movf	(pid_controller@integral+2)^(0+128),w
  1673     01B0  1283               	bcf	3,5	;RP0=0, select bank0
  1674     01B1  1303               	bcf	3,6	;RP1=0, select bank0
  1675     01B2  00D4               	movwf	___flsub@b+2
  1676     01B3  1683               	bsf	3,5	;RP0=1, select bank1
  1677     01B4  1303               	bcf	3,6	;RP1=0, select bank1
  1678     01B5  085C               	movf	(pid_controller@integral+1)^(0+128),w
  1679     01B6  1283               	bcf	3,5	;RP0=0, select bank0
  1680     01B7  1303               	bcf	3,6	;RP1=0, select bank0
  1681     01B8  00D3               	movwf	___flsub@b+1
  1682     01B9  1683               	bsf	3,5	;RP0=1, select bank1
  1683     01BA  1303               	bcf	3,6	;RP1=0, select bank1
  1684     01BB  085B               	movf	pid_controller@integral^(0+128),w
  1685     01BC  1283               	bcf	3,5	;RP0=0, select bank0
  1686     01BD  1303               	bcf	3,6	;RP1=0, select bank0
  1687     01BE  00D2               	movwf	___flsub@b
  1688     01BF  120A  158A  21EF  120A  118A  	fcall	___flsub
  1689     01C4  1283               	bcf	3,5	;RP0=0, select bank0
  1690     01C5  1303               	bcf	3,6	;RP1=0, select bank0
  1691     01C6  0851               	movf	?___flsub+3,w
  1692     01C7  1683               	bsf	3,5	;RP0=1, select bank1
  1693     01C8  1303               	bcf	3,6	;RP1=0, select bank1
  1694     01C9  00DE               	movwf	(pid_controller@integral+3)^(0+128)
  1695     01CA  1283               	bcf	3,5	;RP0=0, select bank0
  1696     01CB  1303               	bcf	3,6	;RP1=0, select bank0
  1697     01CC  0850               	movf	?___flsub+2,w
  1698     01CD  1683               	bsf	3,5	;RP0=1, select bank1
  1699     01CE  1303               	bcf	3,6	;RP1=0, select bank1
  1700     01CF  00DD               	movwf	(pid_controller@integral+2)^(0+128)
  1701     01D0  1283               	bcf	3,5	;RP0=0, select bank0
  1702     01D1  1303               	bcf	3,6	;RP1=0, select bank0
  1703     01D2  084F               	movf	?___flsub+1,w
  1704     01D3  1683               	bsf	3,5	;RP0=1, select bank1
  1705     01D4  1303               	bcf	3,6	;RP1=0, select bank1
  1706     01D5  00DC               	movwf	(pid_controller@integral+1)^(0+128)
  1707     01D6  1283               	bcf	3,5	;RP0=0, select bank0
  1708     01D7  1303               	bcf	3,6	;RP1=0, select bank0
  1709     01D8  084E               	movf	?___flsub,w
  1710     01D9  1683               	bsf	3,5	;RP0=1, select bank1
  1711     01DA  1303               	bcf	3,6	;RP1=0, select bank1
  1712     01DB  00DB               	movwf	pid_controller@integral^(0+128)
  1713     01DC                     l2153:
  1714                           
  1715                           ;PID.c: 15:     } else if (control > control_max) {
  1716     01DC  2A39               	goto	l2161
  1717     01DD                     l2155:
  1718     01DD  1683               	bsf	3,5	;RP0=1, select bank1
  1719     01DE  1303               	bcf	3,6	;RP1=0, select bank1
  1720     01DF  083B               	movf	(pid_controller@control_max+3)^(0+128),w
  1721     01E0  00F3               	movwf	___flge@ff1+3
  1722     01E1  083A               	movf	(pid_controller@control_max+2)^(0+128),w
  1723     01E2  00F2               	movwf	___flge@ff1+2
  1724     01E3  0839               	movf	(pid_controller@control_max+1)^(0+128),w
  1725     01E4  00F1               	movwf	___flge@ff1+1
  1726     01E5  0838               	movf	pid_controller@control_max^(0+128),w
  1727     01E6  00F0               	movwf	___flge@ff1
  1728     01E7  1283               	bcf	3,5	;RP0=0, select bank0
  1729     01E8  1303               	bcf	3,6	;RP1=0, select bank0
  1730     01E9  0861               	movf	pid_controller@control+3,w
  1731     01EA  00F7               	movwf	___flge@ff2+3
  1732     01EB  0860               	movf	pid_controller@control+2,w
  1733     01EC  00F6               	movwf	___flge@ff2+2
  1734     01ED  085F               	movf	pid_controller@control+1,w
  1735     01EE  00F5               	movwf	___flge@ff2+1
  1736     01EF  085E               	movf	pid_controller@control,w
  1737     01F0  00F4               	movwf	___flge@ff2
  1738     01F1  120A  158A  24A2  120A  118A  	fcall	___flge
  1739     01F6  1803               	btfsc	3,0
  1740     01F7  29F9               	goto	u3021
  1741     01F8  29FA               	goto	u3020
  1742     01F9                     u3021:
  1743     01F9  2A39               	goto	l2161
  1744     01FA                     u3020:
  1745     01FA                     l2157:
  1746                           
  1747                           ;PID.c: 16:         integral -= error;
  1748     01FA  1283               	bcf	3,5	;RP0=0, select bank0
  1749     01FB  1303               	bcf	3,6	;RP1=0, select bank0
  1750     01FC  0865               	movf	pid_controller@error+3,w
  1751     01FD  00D1               	movwf	___flsub@a+3
  1752     01FE  0864               	movf	pid_controller@error+2,w
  1753     01FF  00D0               	movwf	___flsub@a+2
  1754     0200  0863               	movf	pid_controller@error+1,w
  1755     0201  00CF               	movwf	___flsub@a+1
  1756     0202  0862               	movf	pid_controller@error,w
  1757     0203  00CE               	movwf	___flsub@a
  1758     0204  1683               	bsf	3,5	;RP0=1, select bank1
  1759     0205  1303               	bcf	3,6	;RP1=0, select bank1
  1760     0206  085E               	movf	(pid_controller@integral+3)^(0+128),w
  1761     0207  1283               	bcf	3,5	;RP0=0, select bank0
  1762     0208  1303               	bcf	3,6	;RP1=0, select bank0
  1763     0209  00D5               	movwf	___flsub@b+3
  1764     020A  1683               	bsf	3,5	;RP0=1, select bank1
  1765     020B  1303               	bcf	3,6	;RP1=0, select bank1
  1766     020C  085D               	movf	(pid_controller@integral+2)^(0+128),w
  1767     020D  1283               	bcf	3,5	;RP0=0, select bank0
  1768     020E  1303               	bcf	3,6	;RP1=0, select bank0
  1769     020F  00D4               	movwf	___flsub@b+2
  1770     0210  1683               	bsf	3,5	;RP0=1, select bank1
  1771     0211  1303               	bcf	3,6	;RP1=0, select bank1
  1772     0212  085C               	movf	(pid_controller@integral+1)^(0+128),w
  1773     0213  1283               	bcf	3,5	;RP0=0, select bank0
  1774     0214  1303               	bcf	3,6	;RP1=0, select bank0
  1775     0215  00D3               	movwf	___flsub@b+1
  1776     0216  1683               	bsf	3,5	;RP0=1, select bank1
  1777     0217  1303               	bcf	3,6	;RP1=0, select bank1
  1778     0218  085B               	movf	pid_controller@integral^(0+128),w
  1779     0219  1283               	bcf	3,5	;RP0=0, select bank0
  1780     021A  1303               	bcf	3,6	;RP1=0, select bank0
  1781     021B  00D2               	movwf	___flsub@b
  1782     021C  120A  158A  21EF  120A  118A  	fcall	___flsub
  1783     0221  1283               	bcf	3,5	;RP0=0, select bank0
  1784     0222  1303               	bcf	3,6	;RP1=0, select bank0
  1785     0223  0851               	movf	?___flsub+3,w
  1786     0224  1683               	bsf	3,5	;RP0=1, select bank1
  1787     0225  1303               	bcf	3,6	;RP1=0, select bank1
  1788     0226  00DE               	movwf	(pid_controller@integral+3)^(0+128)
  1789     0227  1283               	bcf	3,5	;RP0=0, select bank0
  1790     0228  1303               	bcf	3,6	;RP1=0, select bank0
  1791     0229  0850               	movf	?___flsub+2,w
  1792     022A  1683               	bsf	3,5	;RP0=1, select bank1
  1793     022B  1303               	bcf	3,6	;RP1=0, select bank1
  1794     022C  00DD               	movwf	(pid_controller@integral+2)^(0+128)
  1795     022D  1283               	bcf	3,5	;RP0=0, select bank0
  1796     022E  1303               	bcf	3,6	;RP1=0, select bank0
  1797     022F  084F               	movf	?___flsub+1,w
  1798     0230  1683               	bsf	3,5	;RP0=1, select bank1
  1799     0231  1303               	bcf	3,6	;RP1=0, select bank1
  1800     0232  00DC               	movwf	(pid_controller@integral+1)^(0+128)
  1801     0233  1283               	bcf	3,5	;RP0=0, select bank0
  1802     0234  1303               	bcf	3,6	;RP1=0, select bank0
  1803     0235  084E               	movf	?___flsub,w
  1804     0236  1683               	bsf	3,5	;RP0=1, select bank1
  1805     0237  1303               	bcf	3,6	;RP1=0, select bank1
  1806     0238  00DB               	movwf	pid_controller@integral^(0+128)
  1807     0239                     l2159:
  1808     0239                     l2161:
  1809                           
  1810                           ;PID.c: 19:     previous_error = error;
  1811     0239  1283               	bcf	3,5	;RP0=0, select bank0
  1812     023A  1303               	bcf	3,6	;RP1=0, select bank0
  1813     023B  0865               	movf	pid_controller@error+3,w
  1814     023C  1683               	bsf	3,5	;RP0=1, select bank1
  1815     023D  1303               	bcf	3,6	;RP1=0, select bank1
  1816     023E  00E2               	movwf	(pid_controller@previous_error+3)^(0+128)
  1817     023F  1283               	bcf	3,5	;RP0=0, select bank0
  1818     0240  1303               	bcf	3,6	;RP1=0, select bank0
  1819     0241  0864               	movf	pid_controller@error+2,w
  1820     0242  1683               	bsf	3,5	;RP0=1, select bank1
  1821     0243  1303               	bcf	3,6	;RP1=0, select bank1
  1822     0244  00E1               	movwf	(pid_controller@previous_error+2)^(0+128)
  1823     0245  1283               	bcf	3,5	;RP0=0, select bank0
  1824     0246  1303               	bcf	3,6	;RP1=0, select bank0
  1825     0247  0863               	movf	pid_controller@error+1,w
  1826     0248  1683               	bsf	3,5	;RP0=1, select bank1
  1827     0249  1303               	bcf	3,6	;RP1=0, select bank1
  1828     024A  00E0               	movwf	(pid_controller@previous_error+1)^(0+128)
  1829     024B  1283               	bcf	3,5	;RP0=0, select bank0
  1830     024C  1303               	bcf	3,6	;RP1=0, select bank0
  1831     024D  0862               	movf	pid_controller@error,w
  1832     024E  1683               	bsf	3,5	;RP0=1, select bank1
  1833     024F  1303               	bcf	3,6	;RP1=0, select bank1
  1834     0250  00DF               	movwf	pid_controller@previous_error^(0+128)
  1835     0251                     l249:
  1836     0251  0008               	return
  1837     0252                     __end_of_pid_controller:
  1838                           
  1839                           	psect	text2
  1840     09EF                     __ptext2:	
  1841 ;; *************** function ___flsub *****************
  1842 ;; Defined at:
  1843 ;;		line 242 in file "C:\Program Files\Microchip\xc8\v2.40\pic\sources\c90\common\sprcadd.c"
  1844 ;; Parameters:    Size  Location     Type
  1845 ;;  a               4   46[BANK0 ] void 
  1846 ;;  b               4   50[BANK0 ] void 
  1847 ;; Auto vars:     Size  Location     Type
  1848 ;;		None
  1849 ;; Return value:  Size  Location     Type
  1850 ;;                  4   46[BANK0 ] void 
  1851 ;; Registers used:
  1852 ;;		wreg, status,2, status,0, btemp+1, pclath, cstack
  1853 ;; Tracked objects:
  1854 ;;		On entry : 0/0
  1855 ;;		On exit  : 0/0
  1856 ;;		Unchanged: 0/0
  1857 ;; Data sizes:     COMMON   BANK0   BANK1   BANK3   BANK2
  1858 ;;      Params:         0       8       0       0       0
  1859 ;;      Locals:         0       0       0       0       0
  1860 ;;      Temps:          0       0       0       0       0
  1861 ;;      Totals:         0       8       0       0       0
  1862 ;;Total ram usage:        8 bytes
  1863 ;; Hardware stack levels used: 1
  1864 ;; Hardware stack levels required when called: 1
  1865 ;; This function calls:
  1866 ;;		___fladd
  1867 ;; This function is called by:
  1868 ;;		_pid_controller
  1869 ;; This function uses a non-reentrant model
  1870 ;;
  1871                           
  1872     09EF                     ___flsub:	
  1873                           ;psect for function ___flsub
  1874                           
  1875     09EF                     l1955:	
  1876                           ;incstack = 0
  1877                           ; Regs used in ___flsub: [wreg+status,2+status,0+btemp+1+pclath+cstack]
  1878                           
  1879     09EF  3080               	movlw	128
  1880     09F0  1283               	bcf	3,5	;RP0=0, select bank0
  1881     09F1  1303               	bcf	3,6	;RP1=0, select bank0
  1882     09F2  06D1               	xorwf	___flsub@a+3,f
  1883     09F3                     l1957:
  1884     09F3  0855               	movf	___flsub@b+3,w
  1885     09F4  00BD               	movwf	___fladd@b+3
  1886     09F5  0854               	movf	___flsub@b+2,w
  1887     09F6  00BC               	movwf	___fladd@b+2
  1888     09F7  0853               	movf	___flsub@b+1,w
  1889     09F8  00BB               	movwf	___fladd@b+1
  1890     09F9  0852               	movf	___flsub@b,w
  1891     09FA  00BA               	movwf	___fladd@b
  1892     09FB  0851               	movf	___flsub@a+3,w
  1893     09FC  00C1               	movwf	___fladd@a+3
  1894     09FD  0850               	movf	___flsub@a+2,w
  1895     09FE  00C0               	movwf	___fladd@a+2
  1896     09FF  084F               	movf	___flsub@a+1,w
  1897     0A00  00BF               	movwf	___fladd@a+1
  1898     0A01  084E               	movf	___flsub@a,w
  1899     0A02  00BE               	movwf	___fladd@a
  1900     0A03  120A  118A  2252  120A  158A  	fcall	___fladd
  1901     0A08  1283               	bcf	3,5	;RP0=0, select bank0
  1902     0A09  1303               	bcf	3,6	;RP1=0, select bank0
  1903     0A0A  083D               	movf	?___fladd+3,w
  1904     0A0B  00D1               	movwf	?___flsub+3
  1905     0A0C  083C               	movf	?___fladd+2,w
  1906     0A0D  00D0               	movwf	?___flsub+2
  1907     0A0E  083B               	movf	?___fladd+1,w
  1908     0A0F  00CF               	movwf	?___flsub+1
  1909     0A10  083A               	movf	?___fladd,w
  1910     0A11  00CE               	movwf	?___flsub
  1911     0A12                     l592:
  1912     0A12  0008               	return
  1913     0A13                     __end_of___flsub:
  1914                           
  1915                           	psect	text3
  1916     0252                     __ptext3:	
  1917 ;; *************** function ___fladd *****************
  1918 ;; Defined at:
  1919 ;;		line 10 in file "C:\Program Files\Microchip\xc8\v2.40\pic\sources\c90\common\sprcadd.c"
  1920 ;; Parameters:    Size  Location     Type
  1921 ;;  b               4   26[BANK0 ] void 
  1922 ;;  a               4   30[BANK0 ] void 
  1923 ;; Auto vars:     Size  Location     Type
  1924 ;;  grs             1   45[BANK0 ] unsigned char 
  1925 ;;  bexp            1   44[BANK0 ] unsigned char 
  1926 ;;  aexp            1   43[BANK0 ] unsigned char 
  1927 ;;  signs           1   42[BANK0 ] unsigned char 
  1928 ;; Return value:  Size  Location     Type
  1929 ;;                  4   26[BANK0 ] unsigned char 
  1930 ;; Registers used:
  1931 ;;		wreg, status,2, status,0, btemp+1
  1932 ;; Tracked objects:
  1933 ;;		On entry : 0/0
  1934 ;;		On exit  : 0/0
  1935 ;;		Unchanged: 0/0
  1936 ;; Data sizes:     COMMON   BANK0   BANK1   BANK3   BANK2
  1937 ;;      Params:         0       8       0       0       0
  1938 ;;      Locals:         0       4       0       0       0
  1939 ;;      Temps:          0       8       0       0       0
  1940 ;;      Totals:         0      20       0       0       0
  1941 ;;Total ram usage:       20 bytes
  1942 ;; Hardware stack levels used: 1
  1943 ;; This function calls:
  1944 ;;		Nothing
  1945 ;; This function is called by:
  1946 ;;		_pid_controller
  1947 ;;		___flsub
  1948 ;; This function uses a non-reentrant model
  1949 ;;
  1950                           
  1951     0252                     ___fladd:	
  1952                           ;psect for function ___fladd
  1953                           
  1954     0252                     l1613:	
  1955                           ;incstack = 0
  1956                           ; Regs used in ___fladd: [wreg+status,2+status,0+btemp+1]
  1957                           
  1958     0252  1283               	bcf	3,5	;RP0=0, select bank0
  1959     0253  1303               	bcf	3,6	;RP1=0, select bank0
  1960     0254  083D               	movf	___fladd@b+3,w
  1961     0255  3980               	andlw	128
  1962     0256  00CA               	movwf	___fladd@signs
  1963     0257                     l1615:
  1964     0257  083D               	movf	___fladd@b+3,w
  1965     0258  00C2               	movwf	??___fladd
  1966     0259  0742               	addwf	??___fladd,w
  1967     025A  00CC               	movwf	___fladd@bexp
  1968     025B                     l1617:
  1969     025B  1FBC               	btfss	___fladd@b+2,7
  1970     025C  2A5E               	goto	u1801
  1971     025D  2A5F               	goto	u1800
  1972     025E                     u1801:
  1973     025E  2A60               	goto	l1621
  1974     025F                     u1800:
  1975     025F                     l1619:
  1976     025F  144C               	bsf	___fladd@bexp,0
  1977     0260                     l1621:
  1978     0260  084C               	movf	___fladd@bexp,w
  1979     0261  1903               	btfsc	3,2
  1980     0262  2A64               	goto	u1811
  1981     0263  2A65               	goto	u1810
  1982     0264                     u1811:
  1983     0264  2A75               	goto	l1631
  1984     0265                     u1810:
  1985     0265                     l1623:
  1986     0265  0A4C               	incf	___fladd@bexp,w
  1987     0266  1D03               	btfss	3,2
  1988     0267  2A69               	goto	u1821
  1989     0268  2A6A               	goto	u1820
  1990     0269                     u1821:
  1991     0269  2A72               	goto	l1627
  1992     026A                     u1820:
  1993     026A                     l1625:
  1994     026A  3000               	movlw	0
  1995     026B  00BD               	movwf	___fladd@b+3
  1996     026C  3000               	movlw	0
  1997     026D  00BC               	movwf	___fladd@b+2
  1998     026E  3000               	movlw	0
  1999     026F  00BB               	movwf	___fladd@b+1
  2000     0270  3000               	movlw	0
  2001     0271  00BA               	movwf	___fladd@b
  2002     0272                     l1627:
  2003     0272  17BC               	bsf	___fladd@b+2,7
  2004     0273                     l1629:
  2005     0273  01BD               	clrf	___fladd@b+3
  2006     0274  2A7D               	goto	l1633
  2007     0275                     l1631:
  2008     0275  3000               	movlw	0
  2009     0276  00BD               	movwf	___fladd@b+3
  2010     0277  3000               	movlw	0
  2011     0278  00BC               	movwf	___fladd@b+2
  2012     0279  3000               	movlw	0
  2013     027A  00BB               	movwf	___fladd@b+1
  2014     027B  3000               	movlw	0
  2015     027C  00BA               	movwf	___fladd@b
  2016     027D                     l1633:
  2017     027D  0841               	movf	___fladd@a+3,w
  2018     027E  3980               	andlw	128
  2019     027F  00CB               	movwf	___fladd@aexp
  2020     0280                     l1635:
  2021     0280  084B               	movf	___fladd@aexp,w
  2022     0281  064A               	xorwf	___fladd@signs,w
  2023     0282  1903               	skipnz
  2024     0283  2A85               	goto	u1831
  2025     0284  2A86               	goto	u1830
  2026     0285                     u1831:
  2027     0285  2A87               	goto	l1639
  2028     0286                     u1830:
  2029     0286                     l1637:
  2030     0286  174A               	bsf	___fladd@signs,6
  2031     0287                     l1639:
  2032     0287  0841               	movf	___fladd@a+3,w
  2033     0288  00C2               	movwf	??___fladd
  2034     0289  0742               	addwf	??___fladd,w
  2035     028A  00CB               	movwf	___fladd@aexp
  2036     028B                     l1641:
  2037     028B  1FC0               	btfss	___fladd@a+2,7
  2038     028C  2A8E               	goto	u1841
  2039     028D  2A8F               	goto	u1840
  2040     028E                     u1841:
  2041     028E  2A90               	goto	l1645
  2042     028F                     u1840:
  2043     028F                     l1643:
  2044     028F  144B               	bsf	___fladd@aexp,0
  2045     0290                     l1645:
  2046     0290  084B               	movf	___fladd@aexp,w
  2047     0291  1903               	btfsc	3,2
  2048     0292  2A94               	goto	u1851
  2049     0293  2A95               	goto	u1850
  2050     0294                     u1851:
  2051     0294  2AA5               	goto	l1655
  2052     0295                     u1850:
  2053     0295                     l1647:
  2054     0295  0A4B               	incf	___fladd@aexp,w
  2055     0296  1D03               	btfss	3,2
  2056     0297  2A99               	goto	u1861
  2057     0298  2A9A               	goto	u1860
  2058     0299                     u1861:
  2059     0299  2AA2               	goto	l1651
  2060     029A                     u1860:
  2061     029A                     l1649:
  2062     029A  3000               	movlw	0
  2063     029B  00C1               	movwf	___fladd@a+3
  2064     029C  3000               	movlw	0
  2065     029D  00C0               	movwf	___fladd@a+2
  2066     029E  3000               	movlw	0
  2067     029F  00BF               	movwf	___fladd@a+1
  2068     02A0  3000               	movlw	0
  2069     02A1  00BE               	movwf	___fladd@a
  2070     02A2                     l1651:
  2071     02A2  17C0               	bsf	___fladd@a+2,7
  2072     02A3                     l1653:
  2073     02A3  01C1               	clrf	___fladd@a+3
  2074     02A4  2AAD               	goto	l546
  2075     02A5                     l1655:
  2076     02A5  3000               	movlw	0
  2077     02A6  00C1               	movwf	___fladd@a+3
  2078     02A7  3000               	movlw	0
  2079     02A8  00C0               	movwf	___fladd@a+2
  2080     02A9  3000               	movlw	0
  2081     02AA  00BF               	movwf	___fladd@a+1
  2082     02AB  3000               	movlw	0
  2083     02AC  00BE               	movwf	___fladd@a
  2084     02AD                     l546:
  2085     02AD  084C               	movf	___fladd@bexp,w
  2086     02AE  024B               	subwf	___fladd@aexp,w
  2087     02AF  1803               	skipnc
  2088     02B0  2AB2               	goto	u1871
  2089     02B1  2AB3               	goto	u1870
  2090     02B2                     u1871:
  2091     02B2  2AD9               	goto	l1691
  2092     02B3                     u1870:
  2093     02B3                     l1657:
  2094     02B3  1F4A               	btfss	___fladd@signs,6
  2095     02B4  2AB6               	goto	u1881
  2096     02B5  2AB7               	goto	u1880
  2097     02B6                     u1881:
  2098     02B6  2ABB               	goto	l1661
  2099     02B7                     u1880:
  2100     02B7                     l1659:
  2101     02B7  3080               	movlw	128
  2102     02B8  00C2               	movwf	??___fladd
  2103     02B9  0842               	movf	??___fladd,w
  2104     02BA  06CA               	xorwf	___fladd@signs,f
  2105     02BB                     l1661:
  2106     02BB  084C               	movf	___fladd@bexp,w
  2107     02BC  00CD               	movwf	___fladd@grs
  2108     02BD                     l1663:
  2109     02BD  084B               	movf	___fladd@aexp,w
  2110     02BE  00CC               	movwf	___fladd@bexp
  2111     02BF                     l1665:
  2112     02BF  084D               	movf	___fladd@grs,w
  2113     02C0  00CB               	movwf	___fladd@aexp
  2114     02C1                     l1667:
  2115     02C1  083A               	movf	___fladd@b,w
  2116     02C2  00CD               	movwf	___fladd@grs
  2117     02C3                     l1669:
  2118     02C3  083E               	movf	___fladd@a,w
  2119     02C4  00BA               	movwf	___fladd@b
  2120     02C5                     l1671:
  2121     02C5  084D               	movf	___fladd@grs,w
  2122     02C6  00BE               	movwf	___fladd@a
  2123     02C7                     l1673:
  2124     02C7  083B               	movf	___fladd@b+1,w
  2125     02C8  00CD               	movwf	___fladd@grs
  2126     02C9                     l1675:
  2127     02C9  083F               	movf	___fladd@a+1,w
  2128     02CA  00BB               	movwf	___fladd@b+1
  2129     02CB                     l1677:
  2130     02CB  084D               	movf	___fladd@grs,w
  2131     02CC  00BF               	movwf	___fladd@a+1
  2132     02CD                     l1679:
  2133     02CD  083C               	movf	___fladd@b+2,w
  2134     02CE  00CD               	movwf	___fladd@grs
  2135     02CF                     l1681:
  2136     02CF  0840               	movf	___fladd@a+2,w
  2137     02D0  00BC               	movwf	___fladd@b+2
  2138     02D1                     l1683:
  2139     02D1  084D               	movf	___fladd@grs,w
  2140     02D2  00C0               	movwf	___fladd@a+2
  2141     02D3                     l1685:
  2142     02D3  083D               	movf	___fladd@b+3,w
  2143     02D4  00CD               	movwf	___fladd@grs
  2144     02D5                     l1687:
  2145     02D5  0841               	movf	___fladd@a+3,w
  2146     02D6  00BD               	movwf	___fladd@b+3
  2147     02D7                     l1689:
  2148     02D7  084D               	movf	___fladd@grs,w
  2149     02D8  00C1               	movwf	___fladd@a+3
  2150     02D9                     l1691:
  2151     02D9  01CD               	clrf	___fladd@grs
  2152     02DA                     l1693:
  2153     02DA  084B               	movf	___fladd@aexp,w
  2154     02DB  00C2               	movwf	??___fladd
  2155     02DC  01C3               	clrf	??___fladd+1
  2156     02DD  0843               	movf	??___fladd+1,w
  2157     02DE  00C5               	movwf	??___fladd+3
  2158     02DF  084C               	movf	___fladd@bexp,w
  2159     02E0  0242               	subwf	??___fladd,w
  2160     02E1  00C4               	movwf	??___fladd+2
  2161     02E2  1C03               	skipc
  2162     02E3  03C5               	decf	??___fladd+3,f
  2163     02E4  0845               	movf	??___fladd+3,w
  2164     02E5  3A80               	xorlw	128
  2165     02E6  00FF               	movwf	btemp+1
  2166     02E7  3080               	movlw	128
  2167     02E8  027F               	subwf	btemp+1,w
  2168     02E9  1D03               	skipz
  2169     02EA  2AED               	goto	u1895
  2170     02EB  301A               	movlw	26
  2171     02EC  0244               	subwf	??___fladd+2,w
  2172     02ED                     u1895:
  2173     02ED  1C03               	skipc
  2174     02EE  2AF0               	goto	u1891
  2175     02EF  2AF1               	goto	u1890
  2176     02F0                     u1891:
  2177     02F0  2B28               	goto	l1709
  2178     02F1                     u1890:
  2179     02F1                     l1695:
  2180     02F1  1283               	bcf	3,5	;RP0=0, select bank0
  2181     02F2  1303               	bcf	3,6	;RP1=0, select bank0
  2182     02F3  083D               	movf	___fladd@b+3,w
  2183     02F4  043C               	iorwf	___fladd@b+2,w
  2184     02F5  043B               	iorwf	___fladd@b+1,w
  2185     02F6  043A               	iorwf	___fladd@b,w
  2186     02F7  1D03               	skipz
  2187     02F8  2AFA               	goto	u1901
  2188     02F9  2AFC               	goto	u1900
  2189     02FA                     u1901:
  2190     02FA  3001               	movlw	1
  2191     02FB  2AFD               	goto	u1910
  2192     02FC                     u1900:
  2193     02FC  3000               	movlw	0
  2194     02FD                     u1910:
  2195     02FD  00CD               	movwf	___fladd@grs
  2196     02FE  3000               	movlw	0
  2197     02FF  00BD               	movwf	___fladd@b+3
  2198     0300  3000               	movlw	0
  2199     0301  00BC               	movwf	___fladd@b+2
  2200     0302  3000               	movlw	0
  2201     0303  00BB               	movwf	___fladd@b+1
  2202     0304  3000               	movlw	0
  2203     0305  00BA               	movwf	___fladd@b
  2204     0306  084B               	movf	___fladd@aexp,w
  2205     0307  00CC               	movwf	___fladd@bexp
  2206     0308  2B30               	goto	l550
  2207     0309                     l552:
  2208     0309  1C4D               	btfss	___fladd@grs,0
  2209     030A  2B0C               	goto	u1921
  2210     030B  2B0D               	goto	u1920
  2211     030C                     u1921:
  2212     030C  2B14               	goto	l1699
  2213     030D                     u1920:
  2214     030D                     l1697:
  2215     030D  084D               	movf	___fladd@grs,w
  2216     030E  00C2               	movwf	??___fladd
  2217     030F  1003               	clrc
  2218     0310  0C42               	rrf	??___fladd,w
  2219     0311  3801               	iorlw	1
  2220     0312  00CD               	movwf	___fladd@grs
  2221     0313  2B16               	goto	l1701
  2222     0314                     l1699:
  2223     0314  1003               	clrc
  2224     0315  0CCD               	rrf	___fladd@grs,f
  2225     0316                     l1701:
  2226     0316  1C3A               	btfss	___fladd@b,0
  2227     0317  2B19               	goto	u1931
  2228     0318  2B1A               	goto	u1930
  2229     0319                     u1931:
  2230     0319  2B1B               	goto	l1705
  2231     031A                     u1930:
  2232     031A                     l1703:
  2233     031A  17CD               	bsf	___fladd@grs,7
  2234     031B                     l1705:
  2235     031B  3001               	movlw	1
  2236     031C  00C2               	movwf	??___fladd
  2237     031D                     u1945:
  2238     031D  0D3D               	rlf	___fladd@b+3,w
  2239     031E  0CBD               	rrf	___fladd@b+3,f
  2240     031F  0CBC               	rrf	___fladd@b+2,f
  2241     0320  0CBB               	rrf	___fladd@b+1,f
  2242     0321  0CBA               	rrf	___fladd@b,f
  2243     0322  0BC2               	decfsz	??___fladd& (0+127),f
  2244     0323  2B1D               	goto	u1945
  2245     0324                     l1707:
  2246     0324  3001               	movlw	1
  2247     0325  00C2               	movwf	??___fladd
  2248     0326  0842               	movf	??___fladd,w
  2249     0327  07CC               	addwf	___fladd@bexp,f
  2250     0328                     l1709:
  2251     0328  1283               	bcf	3,5	;RP0=0, select bank0
  2252     0329  1303               	bcf	3,6	;RP1=0, select bank0
  2253     032A  084B               	movf	___fladd@aexp,w
  2254     032B  024C               	subwf	___fladd@bexp,w
  2255     032C  1C03               	skipc
  2256     032D  2B2F               	goto	u1951
  2257     032E  2B30               	goto	u1950
  2258     032F                     u1951:
  2259     032F  2B09               	goto	l552
  2260     0330                     u1950:
  2261     0330                     l550:
  2262     0330  1B4A               	btfsc	___fladd@signs,6
  2263     0331  2B33               	goto	u1961
  2264     0332  2B34               	goto	u1960
  2265     0333                     u1961:
  2266     0333  2B7D               	goto	l1735
  2267     0334                     u1960:
  2268     0334                     l1711:
  2269     0334  084C               	movf	___fladd@bexp,w
  2270     0335  1D03               	btfss	3,2
  2271     0336  2B38               	goto	u1971
  2272     0337  2B39               	goto	u1970
  2273     0338                     u1971:
  2274     0338  2B42               	goto	l1717
  2275     0339                     u1970:
  2276     0339                     l1713:
  2277     0339  3000               	movlw	0
  2278     033A  00BD               	movwf	?___fladd+3
  2279     033B  3000               	movlw	0
  2280     033C  00BC               	movwf	?___fladd+2
  2281     033D  3000               	movlw	0
  2282     033E  00BB               	movwf	?___fladd+1
  2283     033F  3000               	movlw	0
  2284     0340  00BA               	movwf	?___fladd
  2285     0341  2CA9               	goto	l559
  2286     0342                     l1717:
  2287     0342  083E               	movf	___fladd@a,w
  2288     0343  07BA               	addwf	___fladd@b,f
  2289     0344  083F               	movf	___fladd@a+1,w
  2290     0345  1103               	clrz
  2291     0346  1803               	skipnc
  2292     0347  3E01               	addlw	1
  2293     0348  1903               	skipnz
  2294     0349  2B4B               	goto	u1981
  2295     034A  07BB               	addwf	___fladd@b+1,f
  2296     034B                     u1981:
  2297     034B  0840               	movf	___fladd@a+2,w
  2298     034C  1103               	clrz
  2299     034D  1803               	skipnc
  2300     034E  3E01               	addlw	1
  2301     034F  1903               	skipnz
  2302     0350  2B52               	goto	u1982
  2303     0351  07BC               	addwf	___fladd@b+2,f
  2304     0352                     u1982:
  2305     0352  0841               	movf	___fladd@a+3,w
  2306     0353  1103               	clrz
  2307     0354  1803               	skipnc
  2308     0355  3E01               	addlw	1
  2309     0356  1903               	skipnz
  2310     0357  2B59               	goto	u1983
  2311     0358  07BD               	addwf	___fladd@b+3,f
  2312     0359                     u1983:
  2313     0359                     l1719:
  2314     0359  1C3D               	btfss	___fladd@b+3,0
  2315     035A  2B5C               	goto	u1991
  2316     035B  2B5D               	goto	u1990
  2317     035C                     u1991:
  2318     035C  2C31               	goto	l1769
  2319     035D                     u1990:
  2320     035D                     l1721:
  2321     035D  1C4D               	btfss	___fladd@grs,0
  2322     035E  2B60               	goto	u2001
  2323     035F  2B61               	goto	u2000
  2324     0360                     u2001:
  2325     0360  2B68               	goto	l1725
  2326     0361                     u2000:
  2327     0361                     l1723:
  2328     0361  084D               	movf	___fladd@grs,w
  2329     0362  00C2               	movwf	??___fladd
  2330     0363  1003               	clrc
  2331     0364  0C42               	rrf	??___fladd,w
  2332     0365  3801               	iorlw	1
  2333     0366  00CD               	movwf	___fladd@grs
  2334     0367  2B6A               	goto	l1727
  2335     0368                     l1725:
  2336     0368  1003               	clrc
  2337     0369  0CCD               	rrf	___fladd@grs,f
  2338     036A                     l1727:
  2339     036A  1C3A               	btfss	___fladd@b,0
  2340     036B  2B6D               	goto	u2011
  2341     036C  2B6E               	goto	u2010
  2342     036D                     u2011:
  2343     036D  2B6F               	goto	l1731
  2344     036E                     u2010:
  2345     036E                     l1729:
  2346     036E  17CD               	bsf	___fladd@grs,7
  2347     036F                     l1731:
  2348     036F  3001               	movlw	1
  2349     0370  00C2               	movwf	??___fladd
  2350     0371                     u2025:
  2351     0371  0D3D               	rlf	___fladd@b+3,w
  2352     0372  0CBD               	rrf	___fladd@b+3,f
  2353     0373  0CBC               	rrf	___fladd@b+2,f
  2354     0374  0CBB               	rrf	___fladd@b+1,f
  2355     0375  0CBA               	rrf	___fladd@b,f
  2356     0376  0BC2               	decfsz	??___fladd& (0+127),f
  2357     0377  2B71               	goto	u2025
  2358     0378                     l1733:
  2359     0378  3001               	movlw	1
  2360     0379  00C2               	movwf	??___fladd
  2361     037A  0842               	movf	??___fladd,w
  2362     037B  07CC               	addwf	___fladd@bexp,f
  2363     037C  2C31               	goto	l1769
  2364     037D                     l1735:
  2365     037D  083D               	movf	___fladd@b+3,w
  2366     037E  3A80               	xorlw	128
  2367     037F  00FF               	movwf	btemp+1
  2368     0380  0841               	movf	___fladd@a+3,w
  2369     0381  3A80               	xorlw	128
  2370     0382  027F               	subwf	btemp+1,w
  2371     0383  1D03               	skipz
  2372     0384  2B8F               	goto	u2033
  2373     0385  0840               	movf	___fladd@a+2,w
  2374     0386  023C               	subwf	___fladd@b+2,w
  2375     0387  1D03               	skipz
  2376     0388  2B8F               	goto	u2033
  2377     0389  083F               	movf	___fladd@a+1,w
  2378     038A  023B               	subwf	___fladd@b+1,w
  2379     038B  1D03               	skipz
  2380     038C  2B8F               	goto	u2033
  2381     038D  083E               	movf	___fladd@a,w
  2382     038E  023A               	subwf	___fladd@b,w
  2383     038F                     u2033:
  2384     038F  1803               	skipnc
  2385     0390  2B92               	goto	u2031
  2386     0391  2B93               	goto	u2030
  2387     0392                     u2031:
  2388     0392  2BEB               	goto	l1745
  2389     0393                     u2030:
  2390     0393                     l1737:
  2391     0393  30FF               	movlw	255
  2392     0394  00C2               	movwf	??___fladd
  2393     0395  30FF               	movlw	255
  2394     0396  00C3               	movwf	??___fladd+1
  2395     0397  30FF               	movlw	255
  2396     0398  00C4               	movwf	??___fladd+2
  2397     0399  30FF               	movlw	255
  2398     039A  00C5               	movwf	??___fladd+3
  2399     039B  083E               	movf	___fladd@a,w
  2400     039C  00C6               	movwf	??___fladd+4
  2401     039D  083F               	movf	___fladd@a+1,w
  2402     039E  00C7               	movwf	??___fladd+5
  2403     039F  0840               	movf	___fladd@a+2,w
  2404     03A0  00C8               	movwf	??___fladd+6
  2405     03A1  0841               	movf	___fladd@a+3,w
  2406     03A2  00C9               	movwf	??___fladd+7
  2407     03A3  083A               	movf	___fladd@b,w
  2408     03A4  02C6               	subwf	??___fladd+4,f
  2409     03A5  083B               	movf	___fladd@b+1,w
  2410     03A6  1C03               	skipc
  2411     03A7  0F3B               	incfsz	___fladd@b+1,w
  2412     03A8  2BAA               	goto	u2041
  2413     03A9  2BAB               	goto	u2042
  2414     03AA                     u2041:
  2415     03AA  02C7               	subwf	??___fladd+5,f
  2416     03AB                     u2042:
  2417     03AB  083C               	movf	___fladd@b+2,w
  2418     03AC  1C03               	skipc
  2419     03AD  0F3C               	incfsz	___fladd@b+2,w
  2420     03AE  2BB0               	goto	u2043
  2421     03AF  2BB1               	goto	u2044
  2422     03B0                     u2043:
  2423     03B0  02C8               	subwf	??___fladd+6,f
  2424     03B1                     u2044:
  2425     03B1  083D               	movf	___fladd@b+3,w
  2426     03B2  1C03               	skipc
  2427     03B3  0F3D               	incfsz	___fladd@b+3,w
  2428     03B4  2BB6               	goto	u2045
  2429     03B5  2BB7               	goto	u2046
  2430     03B6                     u2045:
  2431     03B6  02C9               	subwf	??___fladd+7,f
  2432     03B7                     u2046:
  2433     03B7  0846               	movf	??___fladd+4,w
  2434     03B8  07C2               	addwf	??___fladd,f
  2435     03B9  0847               	movf	??___fladd+5,w
  2436     03BA  1803               	skipnc
  2437     03BB  0F47               	incfsz	??___fladd+5,w
  2438     03BC  2BBE               	goto	u2050
  2439     03BD  2BBF               	goto	u2051
  2440     03BE                     u2050:
  2441     03BE  07C3               	addwf	??___fladd+1,f
  2442     03BF                     u2051:
  2443     03BF  0848               	movf	??___fladd+6,w
  2444     03C0  1803               	skipnc
  2445     03C1  0F48               	incfsz	??___fladd+6,w
  2446     03C2  2BC4               	goto	u2052
  2447     03C3  2BC5               	goto	u2053
  2448     03C4                     u2052:
  2449     03C4  07C4               	addwf	??___fladd+2,f
  2450     03C5                     u2053:
  2451     03C5  0849               	movf	??___fladd+7,w
  2452     03C6  1803               	skipnc
  2453     03C7  0A49               	incf	??___fladd+7,w
  2454     03C8  07C5               	addwf	??___fladd+3,f
  2455     03C9  0845               	movf	??___fladd+3,w
  2456     03CA  00BD               	movwf	___fladd@b+3
  2457     03CB  0844               	movf	??___fladd+2,w
  2458     03CC  00BC               	movwf	___fladd@b+2
  2459     03CD  0843               	movf	??___fladd+1,w
  2460     03CE  00BB               	movwf	___fladd@b+1
  2461     03CF  0842               	movf	??___fladd,w
  2462     03D0  00BA               	movwf	___fladd@b
  2463     03D1                     l1739:
  2464     03D1  3080               	movlw	128
  2465     03D2  00C2               	movwf	??___fladd
  2466     03D3  0842               	movf	??___fladd,w
  2467     03D4  06CA               	xorwf	___fladd@signs,f
  2468     03D5  09CD               	comf	___fladd@grs,f
  2469     03D6  0ACD               	incf	___fladd@grs,f
  2470     03D7                     l1741:
  2471     03D7  084D               	movf	___fladd@grs,w
  2472     03D8  1D03               	btfss	3,2
  2473     03D9  2BDB               	goto	u2061
  2474     03DA  2BDC               	goto	u2060
  2475     03DB                     u2061:
  2476     03DB  2BF9               	goto	l567
  2477     03DC                     u2060:
  2478     03DC                     l1743:
  2479     03DC  3001               	movlw	1
  2480     03DD  07BA               	addwf	___fladd@b,f
  2481     03DE  3000               	movlw	0
  2482     03DF  1803               	skipnc
  2483     03E0  3001               	movlw	1
  2484     03E1  07BB               	addwf	___fladd@b+1,f
  2485     03E2  3000               	movlw	0
  2486     03E3  1803               	skipnc
  2487     03E4  3001               	movlw	1
  2488     03E5  07BC               	addwf	___fladd@b+2,f
  2489     03E6  3000               	movlw	0
  2490     03E7  1803               	skipnc
  2491     03E8  3001               	movlw	1
  2492     03E9  07BD               	addwf	___fladd@b+3,f
  2493     03EA  2BF9               	goto	l567
  2494     03EB                     l1745:
  2495     03EB  083E               	movf	___fladd@a,w
  2496     03EC  02BA               	subwf	___fladd@b,f
  2497     03ED  083F               	movf	___fladd@a+1,w
  2498     03EE  1C03               	skipc
  2499     03EF  0F3F               	incfsz	___fladd@a+1,w
  2500     03F0  02BB               	subwf	___fladd@b+1,f
  2501     03F1  0840               	movf	___fladd@a+2,w
  2502     03F2  1C03               	skipc
  2503     03F3  0F40               	incfsz	___fladd@a+2,w
  2504     03F4  02BC               	subwf	___fladd@b+2,f
  2505     03F5  0841               	movf	___fladd@a+3,w
  2506     03F6  1C03               	skipc
  2507     03F7  0F41               	incfsz	___fladd@a+3,w
  2508     03F8  02BD               	subwf	___fladd@b+3,f
  2509     03F9                     l567:
  2510     03F9  083D               	movf	___fladd@b+3,w
  2511     03FA  043C               	iorwf	___fladd@b+2,w
  2512     03FB  043B               	iorwf	___fladd@b+1,w
  2513     03FC  043A               	iorwf	___fladd@b,w
  2514     03FD  1D03               	skipz
  2515     03FE  2C00               	goto	u2071
  2516     03FF  2C01               	goto	u2070
  2517     0400                     u2071:
  2518     0400  2C2D               	goto	l1767
  2519     0401                     u2070:
  2520     0401                     l1747:
  2521     0401  084D               	movf	___fladd@grs,w
  2522     0402  1D03               	btfss	3,2
  2523     0403  2C05               	goto	u2081
  2524     0404  2C06               	goto	u2080
  2525     0405                     u2081:
  2526     0405  2C2D               	goto	l1767
  2527     0406                     u2080:
  2528     0406                     l1749:
  2529     0406  3000               	movlw	0
  2530     0407  00BD               	movwf	?___fladd+3
  2531     0408  3000               	movlw	0
  2532     0409  00BC               	movwf	?___fladd+2
  2533     040A  3000               	movlw	0
  2534     040B  00BB               	movwf	?___fladd+1
  2535     040C  3000               	movlw	0
  2536     040D  00BA               	movwf	?___fladd
  2537     040E  2CA9               	goto	l559
  2538     040F                     l1753:
  2539     040F  3001               	movlw	1
  2540     0410  00C2               	movwf	??___fladd
  2541     0411                     u2095:
  2542     0411  1003               	clrc
  2543     0412  0DBA               	rlf	___fladd@b,f
  2544     0413  0DBB               	rlf	___fladd@b+1,f
  2545     0414  0DBC               	rlf	___fladd@b+2,f
  2546     0415  0DBD               	rlf	___fladd@b+3,f
  2547     0416  0BC2               	decfsz	??___fladd,f
  2548     0417  2C11               	goto	u2095
  2549     0418                     l1755:
  2550     0418  1FCD               	btfss	___fladd@grs,7
  2551     0419  2C1B               	goto	u2101
  2552     041A  2C1C               	goto	u2100
  2553     041B                     u2101:
  2554     041B  2C1D               	goto	l571
  2555     041C                     u2100:
  2556     041C                     l1757:
  2557     041C  143A               	bsf	___fladd@b,0
  2558     041D                     l571:
  2559     041D  1C4D               	btfss	___fladd@grs,0
  2560     041E  2C20               	goto	u2111
  2561     041F  2C21               	goto	u2110
  2562     0420                     u2111:
  2563     0420  2C24               	goto	l1761
  2564     0421                     u2110:
  2565     0421                     l1759:
  2566     0421  1403               	setc
  2567     0422  0DCD               	rlf	___fladd@grs,f
  2568     0423  2C26               	goto	l1763
  2569     0424                     l1761:
  2570     0424  1003               	clrc
  2571     0425  0DCD               	rlf	___fladd@grs,f
  2572     0426                     l1763:
  2573     0426  084C               	movf	___fladd@bexp,w
  2574     0427  1903               	btfsc	3,2
  2575     0428  2C2A               	goto	u2121
  2576     0429  2C2B               	goto	u2120
  2577     042A                     u2121:
  2578     042A  2C2D               	goto	l1767
  2579     042B                     u2120:
  2580     042B                     l1765:
  2581     042B  3001               	movlw	1
  2582     042C  02CC               	subwf	___fladd@bexp,f
  2583     042D                     l1767:
  2584     042D  1FBC               	btfss	___fladd@b+2,7
  2585     042E  2C30               	goto	u2131
  2586     042F  2C31               	goto	u2130
  2587     0430                     u2131:
  2588     0430  2C0F               	goto	l1753
  2589     0431                     u2130:
  2590     0431                     l1769:
  2591     0431  01CB               	clrf	___fladd@aexp
  2592     0432                     l1771:
  2593     0432  1FCD               	btfss	___fladd@grs,7
  2594     0433  2C35               	goto	u2141
  2595     0434  2C36               	goto	u2140
  2596     0435                     u2141:
  2597     0435  2C44               	goto	l1779
  2598     0436                     u2140:
  2599     0436                     l1773:
  2600     0436  084D               	movf	___fladd@grs,w
  2601     0437  397F               	andlw	127
  2602     0438  1903               	btfsc	3,2
  2603     0439  2C3B               	goto	u2151
  2604     043A  2C3C               	goto	u2150
  2605     043B                     u2151:
  2606     043B  2C3F               	goto	l577
  2607     043C                     u2150:
  2608     043C                     l1775:
  2609     043C  01CB               	clrf	___fladd@aexp
  2610     043D  0ACB               	incf	___fladd@aexp,f
  2611     043E  2C44               	goto	l1779
  2612     043F                     l577:
  2613     043F  1C3A               	btfss	___fladd@b,0
  2614     0440  2C42               	goto	u2161
  2615     0441  2C43               	goto	u2160
  2616     0442                     u2161:
  2617     0442  2C44               	goto	l1779
  2618     0443                     u2160:
  2619     0443  2C3C               	goto	l1775
  2620     0444                     l1779:
  2621     0444  084B               	movf	___fladd@aexp,w
  2622     0445  1903               	btfsc	3,2
  2623     0446  2C48               	goto	u2171
  2624     0447  2C49               	goto	u2170
  2625     0448                     u2171:
  2626     0448  2C7D               	goto	l580
  2627     0449                     u2170:
  2628     0449                     l1781:
  2629     0449  3001               	movlw	1
  2630     044A  07BA               	addwf	___fladd@b,f
  2631     044B  3000               	movlw	0
  2632     044C  1803               	skipnc
  2633     044D  3001               	movlw	1
  2634     044E  07BB               	addwf	___fladd@b+1,f
  2635     044F  3000               	movlw	0
  2636     0450  1803               	skipnc
  2637     0451  3001               	movlw	1
  2638     0452  07BC               	addwf	___fladd@b+2,f
  2639     0453  3000               	movlw	0
  2640     0454  1803               	skipnc
  2641     0455  3001               	movlw	1
  2642     0456  07BD               	addwf	___fladd@b+3,f
  2643     0457                     l1783:
  2644     0457  1C3D               	btfss	___fladd@b+3,0
  2645     0458  2C5A               	goto	u2181
  2646     0459  2C5B               	goto	u2180
  2647     045A                     u2181:
  2648     045A  2C7D               	goto	l580
  2649     045B                     u2180:
  2650     045B                     l1785:
  2651     045B  083A               	movf	___fladd@b,w
  2652     045C  00C2               	movwf	??___fladd
  2653     045D  083B               	movf	___fladd@b+1,w
  2654     045E  00C3               	movwf	??___fladd+1
  2655     045F  083C               	movf	___fladd@b+2,w
  2656     0460  00C4               	movwf	??___fladd+2
  2657     0461  083D               	movf	___fladd@b+3,w
  2658     0462  00C5               	movwf	??___fladd+3
  2659     0463  3001               	movlw	1
  2660     0464  00C6               	movwf	??___fladd+4
  2661     0465                     u2195:
  2662     0465  0D45               	rlf	??___fladd+3,w
  2663     0466  0CC5               	rrf	??___fladd+3,f
  2664     0467  0CC4               	rrf	??___fladd+2,f
  2665     0468  0CC3               	rrf	??___fladd+1,f
  2666     0469  0CC2               	rrf	??___fladd,f
  2667     046A                     u2190:
  2668     046A  0BC6               	decfsz	??___fladd+4,f
  2669     046B  2C65               	goto	u2195
  2670     046C  0845               	movf	??___fladd+3,w
  2671     046D  00BD               	movwf	___fladd@b+3
  2672     046E  0844               	movf	??___fladd+2,w
  2673     046F  00BC               	movwf	___fladd@b+2
  2674     0470  0843               	movf	??___fladd+1,w
  2675     0471  00BB               	movwf	___fladd@b+1
  2676     0472  0842               	movf	??___fladd,w
  2677     0473  00BA               	movwf	___fladd@b
  2678     0474  0A4C               	incf	___fladd@bexp,w
  2679     0475  1903               	btfsc	3,2
  2680     0476  2C78               	goto	u2201
  2681     0477  2C79               	goto	u2200
  2682     0478                     u2201:
  2683     0478  2C7D               	goto	l580
  2684     0479                     u2200:
  2685     0479                     l1787:
  2686     0479  3001               	movlw	1
  2687     047A  00C2               	movwf	??___fladd
  2688     047B  0842               	movf	??___fladd,w
  2689     047C  07CC               	addwf	___fladd@bexp,f
  2690     047D                     l580:
  2691     047D  0A4C               	incf	___fladd@bexp,w
  2692     047E  1903               	btfsc	3,2
  2693     047F  2C81               	goto	u2211
  2694     0480  2C82               	goto	u2210
  2695     0481                     u2211:
  2696     0481  2C87               	goto	l1791
  2697     0482                     u2210:
  2698     0482                     l1789:
  2699     0482  084C               	movf	___fladd@bexp,w
  2700     0483  1D03               	btfss	3,2
  2701     0484  2C86               	goto	u2221
  2702     0485  2C87               	goto	u2220
  2703     0486                     u2221:
  2704     0486  2C95               	goto	l1797
  2705     0487                     u2220:
  2706     0487                     l1791:
  2707     0487  3000               	movlw	0
  2708     0488  00BD               	movwf	___fladd@b+3
  2709     0489  3000               	movlw	0
  2710     048A  00BC               	movwf	___fladd@b+2
  2711     048B  3000               	movlw	0
  2712     048C  00BB               	movwf	___fladd@b+1
  2713     048D  3000               	movlw	0
  2714     048E  00BA               	movwf	___fladd@b
  2715     048F                     l1793:
  2716     048F  084C               	movf	___fladd@bexp,w
  2717     0490  1D03               	btfss	3,2
  2718     0491  2C93               	goto	u2231
  2719     0492  2C94               	goto	u2230
  2720     0493                     u2231:
  2721     0493  2C95               	goto	l1797
  2722     0494                     u2230:
  2723     0494                     l1795:
  2724     0494  01CA               	clrf	___fladd@signs
  2725     0495                     l1797:
  2726     0495  1C4C               	btfss	___fladd@bexp,0
  2727     0496  2C98               	goto	u2241
  2728     0497  2C99               	goto	u2240
  2729     0498                     u2241:
  2730     0498  2C9B               	goto	l1801
  2731     0499                     u2240:
  2732     0499                     l1799:
  2733     0499  17BC               	bsf	___fladd@b+2,7
  2734     049A  2C9F               	goto	l588
  2735     049B                     l1801:
  2736     049B  307F               	movlw	127
  2737     049C  00C2               	movwf	??___fladd
  2738     049D  0842               	movf	??___fladd,w
  2739     049E  05BC               	andwf	___fladd@b+2,f
  2740     049F                     l588:
  2741     049F  084C               	movf	___fladd@bexp,w
  2742     04A0  00C2               	movwf	??___fladd
  2743     04A1  1003               	clrc
  2744     04A2  0C42               	rrf	??___fladd,w
  2745     04A3  00BD               	movwf	___fladd@b+3
  2746     04A4                     l1803:
  2747     04A4  1FCA               	btfss	___fladd@signs,7
  2748     04A5  2CA7               	goto	u2251
  2749     04A6  2CA8               	goto	u2250
  2750     04A7                     u2251:
  2751     04A7  2CA9               	goto	l589
  2752     04A8                     u2250:
  2753     04A8                     l1805:
  2754     04A8  17BD               	bsf	___fladd@b+3,7
  2755     04A9                     l589:
  2756     04A9                     l559:
  2757     04A9  0008               	return
  2758     04AA                     __end_of___fladd:
  2759                           
  2760                           	psect	text4
  2761     04AA                     __ptext4:	
  2762 ;; *************** function ___flmul *****************
  2763 ;; Defined at:
  2764 ;;		line 8 in file "C:\Program Files\Microchip\xc8\v2.40\pic\sources\c90\common\sprcmul.c"
  2765 ;; Parameters:    Size  Location     Type
  2766 ;;  b               4    0[BANK0 ] unsigned char 
  2767 ;;  a               4    4[BANK0 ] unsigned char 
  2768 ;; Auto vars:     Size  Location     Type
  2769 ;;  prod            4   20[BANK0 ] struct .
  2770 ;;  grs             4   14[BANK0 ] unsigned long 
  2771 ;;  temp            2   24[BANK0 ] struct .
  2772 ;;  bexp            1   19[BANK0 ] unsigned char 
  2773 ;;  aexp            1   18[BANK0 ] unsigned char 
  2774 ;;  sign            1   13[BANK0 ] unsigned char 
  2775 ;; Return value:  Size  Location     Type
  2776 ;;                  4    0[BANK0 ] unsigned char 
  2777 ;; Registers used:
  2778 ;;		wreg, status,2, status,0, btemp+1, pclath, cstack
  2779 ;; Tracked objects:
  2780 ;;		On entry : 0/0
  2781 ;;		On exit  : 0/0
  2782 ;;		Unchanged: 0/0
  2783 ;; Data sizes:     COMMON   BANK0   BANK1   BANK3   BANK2
  2784 ;;      Params:         0       8       0       0       0
  2785 ;;      Locals:         0      13       0       0       0
  2786 ;;      Temps:          0       5       0       0       0
  2787 ;;      Totals:         0      26       0       0       0
  2788 ;;Total ram usage:       26 bytes
  2789 ;; Hardware stack levels used: 1
  2790 ;; Hardware stack levels required when called: 1
  2791 ;; This function calls:
  2792 ;;		__Umul8_16
  2793 ;; This function is called by:
  2794 ;;		_main
  2795 ;;		_pid_controller
  2796 ;; This function uses a non-reentrant model
  2797 ;;
  2798                           
  2799     04AA                     ___flmul:	
  2800                           ;psect for function ___flmul
  2801                           
  2802     04AA                     l1961:	
  2803                           ;incstack = 0
  2804                           ; Regs used in ___flmul: [wreg+status,2+status,0+btemp+1+pclath+cstack]
  2805                           
  2806     04AA  1283               	bcf	3,5	;RP0=0, select bank0
  2807     04AB  1303               	bcf	3,6	;RP1=0, select bank0
  2808     04AC  0823               	movf	___flmul@b+3,w
  2809     04AD  3980               	andlw	128
  2810     04AE  00AD               	movwf	___flmul@sign
  2811     04AF                     l1963:
  2812     04AF  0823               	movf	___flmul@b+3,w
  2813     04B0  00A8               	movwf	??___flmul
  2814     04B1  0728               	addwf	??___flmul,w
  2815     04B2  00B3               	movwf	___flmul@bexp
  2816     04B3                     l1965:
  2817     04B3  1FA2               	btfss	___flmul@b+2,7
  2818     04B4  2CB6               	goto	u2621
  2819     04B5  2CB7               	goto	u2620
  2820     04B6                     u2621:
  2821     04B6  2CB8               	goto	l1969
  2822     04B7                     u2620:
  2823     04B7                     l1967:
  2824     04B7  1433               	bsf	___flmul@bexp,0
  2825     04B8                     l1969:
  2826     04B8  0833               	movf	___flmul@bexp,w
  2827     04B9  1903               	btfsc	3,2
  2828     04BA  2CBC               	goto	u2631
  2829     04BB  2CBD               	goto	u2630
  2830     04BC                     u2631:
  2831     04BC  2CCC               	goto	l1977
  2832     04BD                     u2630:
  2833     04BD                     l1971:
  2834     04BD  0A33               	incf	___flmul@bexp,w
  2835     04BE  1D03               	btfss	3,2
  2836     04BF  2CC1               	goto	u2641
  2837     04C0  2CC2               	goto	u2640
  2838     04C1                     u2641:
  2839     04C1  2CCA               	goto	l1975
  2840     04C2                     u2640:
  2841     04C2                     l1973:
  2842     04C2  3000               	movlw	0
  2843     04C3  00A3               	movwf	___flmul@b+3
  2844     04C4  3000               	movlw	0
  2845     04C5  00A2               	movwf	___flmul@b+2
  2846     04C6  3000               	movlw	0
  2847     04C7  00A1               	movwf	___flmul@b+1
  2848     04C8  3000               	movlw	0
  2849     04C9  00A0               	movwf	___flmul@b
  2850     04CA                     l1975:
  2851     04CA  17A2               	bsf	___flmul@b+2,7
  2852     04CB  2CD4               	goto	l1979
  2853     04CC                     l1977:
  2854     04CC  3000               	movlw	0
  2855     04CD  00A3               	movwf	___flmul@b+3
  2856     04CE  3000               	movlw	0
  2857     04CF  00A2               	movwf	___flmul@b+2
  2858     04D0  3000               	movlw	0
  2859     04D1  00A1               	movwf	___flmul@b+1
  2860     04D2  3000               	movlw	0
  2861     04D3  00A0               	movwf	___flmul@b
  2862     04D4                     l1979:
  2863     04D4  0827               	movf	___flmul@a+3,w
  2864     04D5  3980               	andlw	128
  2865     04D6  00A8               	movwf	??___flmul
  2866     04D7  0828               	movf	??___flmul,w
  2867     04D8  06AD               	xorwf	___flmul@sign,f
  2868     04D9                     l1981:
  2869     04D9  0827               	movf	___flmul@a+3,w
  2870     04DA  00A8               	movwf	??___flmul
  2871     04DB  0728               	addwf	??___flmul,w
  2872     04DC  00B2               	movwf	___flmul@aexp
  2873     04DD                     l1983:
  2874     04DD  1FA6               	btfss	___flmul@a+2,7
  2875     04DE  2CE0               	goto	u2651
  2876     04DF  2CE1               	goto	u2650
  2877     04E0                     u2651:
  2878     04E0  2CE2               	goto	l1987
  2879     04E1                     u2650:
  2880     04E1                     l1985:
  2881     04E1  1432               	bsf	___flmul@aexp,0
  2882     04E2                     l1987:
  2883     04E2  0832               	movf	___flmul@aexp,w
  2884     04E3  1903               	btfsc	3,2
  2885     04E4  2CE6               	goto	u2661
  2886     04E5  2CE7               	goto	u2660
  2887     04E6                     u2661:
  2888     04E6  2CF6               	goto	l1995
  2889     04E7                     u2660:
  2890     04E7                     l1989:
  2891     04E7  0A32               	incf	___flmul@aexp,w
  2892     04E8  1D03               	btfss	3,2
  2893     04E9  2CEB               	goto	u2671
  2894     04EA  2CEC               	goto	u2670
  2895     04EB                     u2671:
  2896     04EB  2CF4               	goto	l1993
  2897     04EC                     u2670:
  2898     04EC                     l1991:
  2899     04EC  3000               	movlw	0
  2900     04ED  00A7               	movwf	___flmul@a+3
  2901     04EE  3000               	movlw	0
  2902     04EF  00A6               	movwf	___flmul@a+2
  2903     04F0  3000               	movlw	0
  2904     04F1  00A5               	movwf	___flmul@a+1
  2905     04F2  3000               	movlw	0
  2906     04F3  00A4               	movwf	___flmul@a
  2907     04F4                     l1993:
  2908     04F4  17A6               	bsf	___flmul@a+2,7
  2909     04F5  2CFE               	goto	l1997
  2910     04F6                     l1995:
  2911     04F6  3000               	movlw	0
  2912     04F7  00A7               	movwf	___flmul@a+3
  2913     04F8  3000               	movlw	0
  2914     04F9  00A6               	movwf	___flmul@a+2
  2915     04FA  3000               	movlw	0
  2916     04FB  00A5               	movwf	___flmul@a+1
  2917     04FC  3000               	movlw	0
  2918     04FD  00A4               	movwf	___flmul@a
  2919     04FE                     l1997:
  2920     04FE  0832               	movf	___flmul@aexp,w
  2921     04FF  1903               	btfsc	3,2
  2922     0500  2D02               	goto	u2681
  2923     0501  2D03               	goto	u2680
  2924     0502                     u2681:
  2925     0502  2D08               	goto	l2001
  2926     0503                     u2680:
  2927     0503                     l1999:
  2928     0503  0833               	movf	___flmul@bexp,w
  2929     0504  1D03               	btfss	3,2
  2930     0505  2D07               	goto	u2691
  2931     0506  2D08               	goto	u2690
  2932     0507                     u2691:
  2933     0507  2D11               	goto	l2005
  2934     0508                     u2690:
  2935     0508                     l2001:
  2936     0508  3000               	movlw	0
  2937     0509  00A3               	movwf	?___flmul+3
  2938     050A  3000               	movlw	0
  2939     050B  00A2               	movwf	?___flmul+2
  2940     050C  3000               	movlw	0
  2941     050D  00A1               	movwf	?___flmul+1
  2942     050E  3000               	movlw	0
  2943     050F  00A0               	movwf	?___flmul
  2944     0510  2FEE               	goto	l642
  2945     0511                     l2005:
  2946     0511  0820               	movf	___flmul@b,w
  2947     0512  00F0               	movwf	__Umul8_16@multiplicand
  2948     0513  0826               	movf	___flmul@a+2,w
  2949     0514  120A  158A  2213  120A  118A  	fcall	__Umul8_16
  2950     0519  0871               	movf	?__Umul8_16+1,w
  2951     051A  1283               	bcf	3,5	;RP0=0, select bank0
  2952     051B  1303               	bcf	3,6	;RP1=0, select bank0
  2953     051C  00B9               	movwf	___flmul@temp+1
  2954     051D  0870               	movf	?__Umul8_16,w
  2955     051E  00B8               	movwf	___flmul@temp
  2956     051F                     l2007:
  2957     051F  0838               	movf	___flmul@temp,w
  2958     0520  00A8               	movwf	??___flmul
  2959     0521  01A9               	clrf	??___flmul+1
  2960     0522  01AA               	clrf	??___flmul+2
  2961     0523  01AB               	clrf	??___flmul+3
  2962     0524  082B               	movf	??___flmul+3,w
  2963     0525  00B1               	movwf	___flmul@grs+3
  2964     0526  082A               	movf	??___flmul+2,w
  2965     0527  00B0               	movwf	___flmul@grs+2
  2966     0528  0829               	movf	??___flmul+1,w
  2967     0529  00AF               	movwf	___flmul@grs+1
  2968     052A  0828               	movf	??___flmul,w
  2969     052B  00AE               	movwf	___flmul@grs
  2970     052C                     l2009:
  2971     052C  0839               	movf	___flmul@temp+1,w
  2972     052D  00A8               	movwf	??___flmul
  2973     052E  01A9               	clrf	??___flmul+1
  2974     052F  01AA               	clrf	??___flmul+2
  2975     0530  01AB               	clrf	??___flmul+3
  2976     0531  082B               	movf	??___flmul+3,w
  2977     0532  00B7               	movwf	___flmul@prod+3
  2978     0533  082A               	movf	??___flmul+2,w
  2979     0534  00B6               	movwf	___flmul@prod+2
  2980     0535  0829               	movf	??___flmul+1,w
  2981     0536  00B5               	movwf	___flmul@prod+1
  2982     0537  0828               	movf	??___flmul,w
  2983     0538  00B4               	movwf	___flmul@prod
  2984     0539  0821               	movf	___flmul@b+1,w
  2985     053A  00F0               	movwf	__Umul8_16@multiplicand
  2986     053B  0825               	movf	___flmul@a+1,w
  2987     053C  120A  158A  2213  120A  118A  	fcall	__Umul8_16
  2988     0541  0871               	movf	?__Umul8_16+1,w
  2989     0542  1283               	bcf	3,5	;RP0=0, select bank0
  2990     0543  1303               	bcf	3,6	;RP1=0, select bank0
  2991     0544  00B9               	movwf	___flmul@temp+1
  2992     0545  0870               	movf	?__Umul8_16,w
  2993     0546  00B8               	movwf	___flmul@temp
  2994     0547                     l2011:
  2995     0547  0838               	movf	___flmul@temp,w
  2996     0548  00A8               	movwf	??___flmul
  2997     0549  01A9               	clrf	??___flmul+1
  2998     054A  01AA               	clrf	??___flmul+2
  2999     054B  01AB               	clrf	??___flmul+3
  3000     054C  0828               	movf	??___flmul,w
  3001     054D  07AE               	addwf	___flmul@grs,f
  3002     054E  0829               	movf	??___flmul+1,w
  3003     054F  1103               	clrz
  3004     0550  1803               	skipnc
  3005     0551  3E01               	addlw	1
  3006     0552  1903               	skipnz
  3007     0553  2D55               	goto	u2701
  3008     0554  07AF               	addwf	___flmul@grs+1,f
  3009     0555                     u2701:
  3010     0555  082A               	movf	??___flmul+2,w
  3011     0556  1103               	clrz
  3012     0557  1803               	skipnc
  3013     0558  3E01               	addlw	1
  3014     0559  1903               	skipnz
  3015     055A  2D5C               	goto	u2702
  3016     055B  07B0               	addwf	___flmul@grs+2,f
  3017     055C                     u2702:
  3018     055C  082B               	movf	??___flmul+3,w
  3019     055D  1103               	clrz
  3020     055E  1803               	skipnc
  3021     055F  3E01               	addlw	1
  3022     0560  1903               	skipnz
  3023     0561  2D63               	goto	u2703
  3024     0562  07B1               	addwf	___flmul@grs+3,f
  3025     0563                     u2703:
  3026     0563                     l2013:
  3027     0563  0839               	movf	___flmul@temp+1,w
  3028     0564  00A8               	movwf	??___flmul
  3029     0565  01A9               	clrf	??___flmul+1
  3030     0566  01AA               	clrf	??___flmul+2
  3031     0567  01AB               	clrf	??___flmul+3
  3032     0568  0828               	movf	??___flmul,w
  3033     0569  07B4               	addwf	___flmul@prod,f
  3034     056A  0829               	movf	??___flmul+1,w
  3035     056B  1103               	clrz
  3036     056C  1803               	skipnc
  3037     056D  3E01               	addlw	1
  3038     056E  1903               	skipnz
  3039     056F  2D71               	goto	u2711
  3040     0570  07B5               	addwf	___flmul@prod+1,f
  3041     0571                     u2711:
  3042     0571  082A               	movf	??___flmul+2,w
  3043     0572  1103               	clrz
  3044     0573  1803               	skipnc
  3045     0574  3E01               	addlw	1
  3046     0575  1903               	skipnz
  3047     0576  2D78               	goto	u2712
  3048     0577  07B6               	addwf	___flmul@prod+2,f
  3049     0578                     u2712:
  3050     0578  082B               	movf	??___flmul+3,w
  3051     0579  1103               	clrz
  3052     057A  1803               	skipnc
  3053     057B  3E01               	addlw	1
  3054     057C  1903               	skipnz
  3055     057D  2D7F               	goto	u2713
  3056     057E  07B7               	addwf	___flmul@prod+3,f
  3057     057F                     u2713:
  3058     057F  0822               	movf	___flmul@b+2,w
  3059     0580  00F0               	movwf	__Umul8_16@multiplicand
  3060     0581  0824               	movf	___flmul@a,w
  3061     0582  120A  158A  2213  120A  118A  	fcall	__Umul8_16
  3062     0587  0871               	movf	?__Umul8_16+1,w
  3063     0588  1283               	bcf	3,5	;RP0=0, select bank0
  3064     0589  1303               	bcf	3,6	;RP1=0, select bank0
  3065     058A  00B9               	movwf	___flmul@temp+1
  3066     058B  0870               	movf	?__Umul8_16,w
  3067     058C  00B8               	movwf	___flmul@temp
  3068     058D                     l2015:
  3069     058D  0838               	movf	___flmul@temp,w
  3070     058E  00A8               	movwf	??___flmul
  3071     058F  01A9               	clrf	??___flmul+1
  3072     0590  01AA               	clrf	??___flmul+2
  3073     0591  01AB               	clrf	??___flmul+3
  3074     0592  0828               	movf	??___flmul,w
  3075     0593  07AE               	addwf	___flmul@grs,f
  3076     0594  0829               	movf	??___flmul+1,w
  3077     0595  1103               	clrz
  3078     0596  1803               	skipnc
  3079     0597  3E01               	addlw	1
  3080     0598  1903               	skipnz
  3081     0599  2D9B               	goto	u2721
  3082     059A  07AF               	addwf	___flmul@grs+1,f
  3083     059B                     u2721:
  3084     059B  082A               	movf	??___flmul+2,w
  3085     059C  1103               	clrz
  3086     059D  1803               	skipnc
  3087     059E  3E01               	addlw	1
  3088     059F  1903               	skipnz
  3089     05A0  2DA2               	goto	u2722
  3090     05A1  07B0               	addwf	___flmul@grs+2,f
  3091     05A2                     u2722:
  3092     05A2  082B               	movf	??___flmul+3,w
  3093     05A3  1103               	clrz
  3094     05A4  1803               	skipnc
  3095     05A5  3E01               	addlw	1
  3096     05A6  1903               	skipnz
  3097     05A7  2DA9               	goto	u2723
  3098     05A8  07B1               	addwf	___flmul@grs+3,f
  3099     05A9                     u2723:
  3100     05A9                     l2017:
  3101     05A9  0839               	movf	___flmul@temp+1,w
  3102     05AA  00A8               	movwf	??___flmul
  3103     05AB  01A9               	clrf	??___flmul+1
  3104     05AC  01AA               	clrf	??___flmul+2
  3105     05AD  01AB               	clrf	??___flmul+3
  3106     05AE  0828               	movf	??___flmul,w
  3107     05AF  07B4               	addwf	___flmul@prod,f
  3108     05B0  0829               	movf	??___flmul+1,w
  3109     05B1  1103               	clrz
  3110     05B2  1803               	skipnc
  3111     05B3  3E01               	addlw	1
  3112     05B4  1903               	skipnz
  3113     05B5  2DB7               	goto	u2731
  3114     05B6  07B5               	addwf	___flmul@prod+1,f
  3115     05B7                     u2731:
  3116     05B7  082A               	movf	??___flmul+2,w
  3117     05B8  1103               	clrz
  3118     05B9  1803               	skipnc
  3119     05BA  3E01               	addlw	1
  3120     05BB  1903               	skipnz
  3121     05BC  2DBE               	goto	u2732
  3122     05BD  07B6               	addwf	___flmul@prod+2,f
  3123     05BE                     u2732:
  3124     05BE  082B               	movf	??___flmul+3,w
  3125     05BF  1103               	clrz
  3126     05C0  1803               	skipnc
  3127     05C1  3E01               	addlw	1
  3128     05C2  1903               	skipnz
  3129     05C3  2DC5               	goto	u2733
  3130     05C4  07B7               	addwf	___flmul@prod+3,f
  3131     05C5                     u2733:
  3132     05C5                     l2019:
  3133     05C5  3008               	movlw	8
  3134     05C6  00A8               	movwf	??___flmul
  3135     05C7                     u2745:
  3136     05C7  1003               	clrc
  3137     05C8  0DAE               	rlf	___flmul@grs,f
  3138     05C9  0DAF               	rlf	___flmul@grs+1,f
  3139     05CA  0DB0               	rlf	___flmul@grs+2,f
  3140     05CB  0DB1               	rlf	___flmul@grs+3,f
  3141     05CC  0BA8               	decfsz	??___flmul,f
  3142     05CD  2DC7               	goto	u2745
  3143     05CE                     l2021:
  3144     05CE  0821               	movf	___flmul@b+1,w
  3145     05CF  00F0               	movwf	__Umul8_16@multiplicand
  3146     05D0  0824               	movf	___flmul@a,w
  3147     05D1  120A  158A  2213  120A  118A  	fcall	__Umul8_16
  3148     05D6  0871               	movf	?__Umul8_16+1,w
  3149     05D7  1283               	bcf	3,5	;RP0=0, select bank0
  3150     05D8  1303               	bcf	3,6	;RP1=0, select bank0
  3151     05D9  00B9               	movwf	___flmul@temp+1
  3152     05DA  0870               	movf	?__Umul8_16,w
  3153     05DB  00B8               	movwf	___flmul@temp
  3154     05DC                     l2023:
  3155     05DC  0838               	movf	___flmul@temp,w
  3156     05DD  00A8               	movwf	??___flmul
  3157     05DE  0839               	movf	___flmul@temp+1,w
  3158     05DF  00A9               	movwf	??___flmul+1
  3159     05E0  01AA               	clrf	??___flmul+2
  3160     05E1  01AB               	clrf	??___flmul+3
  3161     05E2  0828               	movf	??___flmul,w
  3162     05E3  07AE               	addwf	___flmul@grs,f
  3163     05E4  0829               	movf	??___flmul+1,w
  3164     05E5  1103               	clrz
  3165     05E6  1803               	skipnc
  3166     05E7  3E01               	addlw	1
  3167     05E8  1903               	skipnz
  3168     05E9  2DEB               	goto	u2751
  3169     05EA  07AF               	addwf	___flmul@grs+1,f
  3170     05EB                     u2751:
  3171     05EB  082A               	movf	??___flmul+2,w
  3172     05EC  1103               	clrz
  3173     05ED  1803               	skipnc
  3174     05EE  3E01               	addlw	1
  3175     05EF  1903               	skipnz
  3176     05F0  2DF2               	goto	u2752
  3177     05F1  07B0               	addwf	___flmul@grs+2,f
  3178     05F2                     u2752:
  3179     05F2  082B               	movf	??___flmul+3,w
  3180     05F3  1103               	clrz
  3181     05F4  1803               	skipnc
  3182     05F5  3E01               	addlw	1
  3183     05F6  1903               	skipnz
  3184     05F7  2DF9               	goto	u2753
  3185     05F8  07B1               	addwf	___flmul@grs+3,f
  3186     05F9                     u2753:
  3187     05F9                     l2025:
  3188     05F9  0820               	movf	___flmul@b,w
  3189     05FA  00F0               	movwf	__Umul8_16@multiplicand
  3190     05FB  0825               	movf	___flmul@a+1,w
  3191     05FC  120A  158A  2213  120A  118A  	fcall	__Umul8_16
  3192     0601  0871               	movf	?__Umul8_16+1,w
  3193     0602  1283               	bcf	3,5	;RP0=0, select bank0
  3194     0603  1303               	bcf	3,6	;RP1=0, select bank0
  3195     0604  00B9               	movwf	___flmul@temp+1
  3196     0605  0870               	movf	?__Umul8_16,w
  3197     0606  00B8               	movwf	___flmul@temp
  3198     0607                     l2027:
  3199     0607  0838               	movf	___flmul@temp,w
  3200     0608  00A8               	movwf	??___flmul
  3201     0609  0839               	movf	___flmul@temp+1,w
  3202     060A  00A9               	movwf	??___flmul+1
  3203     060B  01AA               	clrf	??___flmul+2
  3204     060C  01AB               	clrf	??___flmul+3
  3205     060D  0828               	movf	??___flmul,w
  3206     060E  07AE               	addwf	___flmul@grs,f
  3207     060F  0829               	movf	??___flmul+1,w
  3208     0610  1103               	clrz
  3209     0611  1803               	skipnc
  3210     0612  3E01               	addlw	1
  3211     0613  1903               	skipnz
  3212     0614  2E16               	goto	u2761
  3213     0615  07AF               	addwf	___flmul@grs+1,f
  3214     0616                     u2761:
  3215     0616  082A               	movf	??___flmul+2,w
  3216     0617  1103               	clrz
  3217     0618  1803               	skipnc
  3218     0619  3E01               	addlw	1
  3219     061A  1903               	skipnz
  3220     061B  2E1D               	goto	u2762
  3221     061C  07B0               	addwf	___flmul@grs+2,f
  3222     061D                     u2762:
  3223     061D  082B               	movf	??___flmul+3,w
  3224     061E  1103               	clrz
  3225     061F  1803               	skipnc
  3226     0620  3E01               	addlw	1
  3227     0621  1903               	skipnz
  3228     0622  2E24               	goto	u2763
  3229     0623  07B1               	addwf	___flmul@grs+3,f
  3230     0624                     u2763:
  3231     0624                     l2029:
  3232     0624  3008               	movlw	8
  3233     0625  00A8               	movwf	??___flmul
  3234     0626                     u2775:
  3235     0626  1003               	clrc
  3236     0627  0DAE               	rlf	___flmul@grs,f
  3237     0628  0DAF               	rlf	___flmul@grs+1,f
  3238     0629  0DB0               	rlf	___flmul@grs+2,f
  3239     062A  0DB1               	rlf	___flmul@grs+3,f
  3240     062B  0BA8               	decfsz	??___flmul,f
  3241     062C  2E26               	goto	u2775
  3242     062D  0820               	movf	___flmul@b,w
  3243     062E  00F0               	movwf	__Umul8_16@multiplicand
  3244     062F  0824               	movf	___flmul@a,w
  3245     0630  120A  158A  2213  120A  118A  	fcall	__Umul8_16
  3246     0635  0871               	movf	?__Umul8_16+1,w
  3247     0636  1283               	bcf	3,5	;RP0=0, select bank0
  3248     0637  1303               	bcf	3,6	;RP1=0, select bank0
  3249     0638  00B9               	movwf	___flmul@temp+1
  3250     0639  0870               	movf	?__Umul8_16,w
  3251     063A  00B8               	movwf	___flmul@temp
  3252     063B                     l2031:
  3253     063B  0838               	movf	___flmul@temp,w
  3254     063C  00A8               	movwf	??___flmul
  3255     063D  0839               	movf	___flmul@temp+1,w
  3256     063E  00A9               	movwf	??___flmul+1
  3257     063F  01AA               	clrf	??___flmul+2
  3258     0640  01AB               	clrf	??___flmul+3
  3259     0641  0828               	movf	??___flmul,w
  3260     0642  07AE               	addwf	___flmul@grs,f
  3261     0643  0829               	movf	??___flmul+1,w
  3262     0644  1103               	clrz
  3263     0645  1803               	skipnc
  3264     0646  3E01               	addlw	1
  3265     0647  1903               	skipnz
  3266     0648  2E4A               	goto	u2781
  3267     0649  07AF               	addwf	___flmul@grs+1,f
  3268     064A                     u2781:
  3269     064A  082A               	movf	??___flmul+2,w
  3270     064B  1103               	clrz
  3271     064C  1803               	skipnc
  3272     064D  3E01               	addlw	1
  3273     064E  1903               	skipnz
  3274     064F  2E51               	goto	u2782
  3275     0650  07B0               	addwf	___flmul@grs+2,f
  3276     0651                     u2782:
  3277     0651  082B               	movf	??___flmul+3,w
  3278     0652  1103               	clrz
  3279     0653  1803               	skipnc
  3280     0654  3E01               	addlw	1
  3281     0655  1903               	skipnz
  3282     0656  2E58               	goto	u2783
  3283     0657  07B1               	addwf	___flmul@grs+3,f
  3284     0658                     u2783:
  3285     0658                     l2033:
  3286     0658  0821               	movf	___flmul@b+1,w
  3287     0659  00F0               	movwf	__Umul8_16@multiplicand
  3288     065A  0826               	movf	___flmul@a+2,w
  3289     065B  120A  158A  2213  120A  118A  	fcall	__Umul8_16
  3290     0660  0871               	movf	?__Umul8_16+1,w
  3291     0661  1283               	bcf	3,5	;RP0=0, select bank0
  3292     0662  1303               	bcf	3,6	;RP1=0, select bank0
  3293     0663  00B9               	movwf	___flmul@temp+1
  3294     0664  0870               	movf	?__Umul8_16,w
  3295     0665  00B8               	movwf	___flmul@temp
  3296     0666  0838               	movf	___flmul@temp,w
  3297     0667  00A8               	movwf	??___flmul
  3298     0668  0839               	movf	___flmul@temp+1,w
  3299     0669  00A9               	movwf	??___flmul+1
  3300     066A  01AA               	clrf	??___flmul+2
  3301     066B  01AB               	clrf	??___flmul+3
  3302     066C  0828               	movf	??___flmul,w
  3303     066D  07B4               	addwf	___flmul@prod,f
  3304     066E  0829               	movf	??___flmul+1,w
  3305     066F  1103               	clrz
  3306     0670  1803               	skipnc
  3307     0671  3E01               	addlw	1
  3308     0672  1903               	skipnz
  3309     0673  2E75               	goto	u2791
  3310     0674  07B5               	addwf	___flmul@prod+1,f
  3311     0675                     u2791:
  3312     0675  082A               	movf	??___flmul+2,w
  3313     0676  1103               	clrz
  3314     0677  1803               	skipnc
  3315     0678  3E01               	addlw	1
  3316     0679  1903               	skipnz
  3317     067A  2E7C               	goto	u2792
  3318     067B  07B6               	addwf	___flmul@prod+2,f
  3319     067C                     u2792:
  3320     067C  082B               	movf	??___flmul+3,w
  3321     067D  1103               	clrz
  3322     067E  1803               	skipnc
  3323     067F  3E01               	addlw	1
  3324     0680  1903               	skipnz
  3325     0681  2E83               	goto	u2793
  3326     0682  07B7               	addwf	___flmul@prod+3,f
  3327     0683                     u2793:
  3328     0683                     l2035:
  3329     0683  0822               	movf	___flmul@b+2,w
  3330     0684  00F0               	movwf	__Umul8_16@multiplicand
  3331     0685  0825               	movf	___flmul@a+1,w
  3332     0686  120A  158A  2213  120A  118A  	fcall	__Umul8_16
  3333     068B  0871               	movf	?__Umul8_16+1,w
  3334     068C  1283               	bcf	3,5	;RP0=0, select bank0
  3335     068D  1303               	bcf	3,6	;RP1=0, select bank0
  3336     068E  00B9               	movwf	___flmul@temp+1
  3337     068F  0870               	movf	?__Umul8_16,w
  3338     0690  00B8               	movwf	___flmul@temp
  3339     0691                     l2037:
  3340     0691  0838               	movf	___flmul@temp,w
  3341     0692  00A8               	movwf	??___flmul
  3342     0693  0839               	movf	___flmul@temp+1,w
  3343     0694  00A9               	movwf	??___flmul+1
  3344     0695  01AA               	clrf	??___flmul+2
  3345     0696  01AB               	clrf	??___flmul+3
  3346     0697  0828               	movf	??___flmul,w
  3347     0698  07B4               	addwf	___flmul@prod,f
  3348     0699  0829               	movf	??___flmul+1,w
  3349     069A  1103               	clrz
  3350     069B  1803               	skipnc
  3351     069C  3E01               	addlw	1
  3352     069D  1903               	skipnz
  3353     069E  2EA0               	goto	u2801
  3354     069F  07B5               	addwf	___flmul@prod+1,f
  3355     06A0                     u2801:
  3356     06A0  082A               	movf	??___flmul+2,w
  3357     06A1  1103               	clrz
  3358     06A2  1803               	skipnc
  3359     06A3  3E01               	addlw	1
  3360     06A4  1903               	skipnz
  3361     06A5  2EA7               	goto	u2802
  3362     06A6  07B6               	addwf	___flmul@prod+2,f
  3363     06A7                     u2802:
  3364     06A7  082B               	movf	??___flmul+3,w
  3365     06A8  1103               	clrz
  3366     06A9  1803               	skipnc
  3367     06AA  3E01               	addlw	1
  3368     06AB  1903               	skipnz
  3369     06AC  2EAE               	goto	u2803
  3370     06AD  07B7               	addwf	___flmul@prod+3,f
  3371     06AE                     u2803:
  3372     06AE  0822               	movf	___flmul@b+2,w
  3373     06AF  00F0               	movwf	__Umul8_16@multiplicand
  3374     06B0  0826               	movf	___flmul@a+2,w
  3375     06B1  120A  158A  2213  120A  118A  	fcall	__Umul8_16
  3376     06B6  0871               	movf	?__Umul8_16+1,w
  3377     06B7  1283               	bcf	3,5	;RP0=0, select bank0
  3378     06B8  1303               	bcf	3,6	;RP1=0, select bank0
  3379     06B9  00B9               	movwf	___flmul@temp+1
  3380     06BA  0870               	movf	?__Umul8_16,w
  3381     06BB  00B8               	movwf	___flmul@temp
  3382     06BC                     l2039:
  3383     06BC  0838               	movf	___flmul@temp,w
  3384     06BD  00A8               	movwf	??___flmul
  3385     06BE  0839               	movf	___flmul@temp+1,w
  3386     06BF  00A9               	movwf	??___flmul+1
  3387     06C0  01AA               	clrf	??___flmul+2
  3388     06C1  01AB               	clrf	??___flmul+3
  3389     06C2  3008               	movlw	8
  3390     06C3                     u2815:
  3391     06C3  1003               	clrc
  3392     06C4  0DA8               	rlf	??___flmul,f
  3393     06C5  0DA9               	rlf	??___flmul+1,f
  3394     06C6  0DAA               	rlf	??___flmul+2,f
  3395     06C7  0DAB               	rlf	??___flmul+3,f
  3396     06C8                     u2810:
  3397     06C8  3EFF               	addlw	-1
  3398     06C9  1D03               	skipz
  3399     06CA  2EC3               	goto	u2815
  3400     06CB  0828               	movf	??___flmul,w
  3401     06CC  07B4               	addwf	___flmul@prod,f
  3402     06CD  0829               	movf	??___flmul+1,w
  3403     06CE  1103               	clrz
  3404     06CF  1803               	skipnc
  3405     06D0  3E01               	addlw	1
  3406     06D1  1903               	skipnz
  3407     06D2  2ED4               	goto	u2821
  3408     06D3  07B5               	addwf	___flmul@prod+1,f
  3409     06D4                     u2821:
  3410     06D4  082A               	movf	??___flmul+2,w
  3411     06D5  1103               	clrz
  3412     06D6  1803               	skipnc
  3413     06D7  3E01               	addlw	1
  3414     06D8  1903               	skipnz
  3415     06D9  2EDB               	goto	u2822
  3416     06DA  07B6               	addwf	___flmul@prod+2,f
  3417     06DB                     u2822:
  3418     06DB  082B               	movf	??___flmul+3,w
  3419     06DC  1103               	clrz
  3420     06DD  1803               	skipnc
  3421     06DE  3E01               	addlw	1
  3422     06DF  1903               	skipnz
  3423     06E0  2EE2               	goto	u2823
  3424     06E1  07B7               	addwf	___flmul@prod+3,f
  3425     06E2                     u2823:
  3426     06E2                     l2041:
  3427     06E2  082E               	movf	___flmul@grs,w
  3428     06E3  00A8               	movwf	??___flmul
  3429     06E4  082F               	movf	___flmul@grs+1,w
  3430     06E5  00A9               	movwf	??___flmul+1
  3431     06E6  0830               	movf	___flmul@grs+2,w
  3432     06E7  00AA               	movwf	??___flmul+2
  3433     06E8  0831               	movf	___flmul@grs+3,w
  3434     06E9  00AB               	movwf	??___flmul+3
  3435     06EA  3018               	movlw	24
  3436     06EB                     u2835:
  3437     06EB  1003               	clrc
  3438     06EC  0CAB               	rrf	??___flmul+3,f
  3439     06ED  0CAA               	rrf	??___flmul+2,f
  3440     06EE  0CA9               	rrf	??___flmul+1,f
  3441     06EF  0CA8               	rrf	??___flmul,f
  3442     06F0                     u2830:
  3443     06F0  3EFF               	addlw	-1
  3444     06F1  1D03               	skipz
  3445     06F2  2EEB               	goto	u2835
  3446     06F3  0828               	movf	??___flmul,w
  3447     06F4  07B4               	addwf	___flmul@prod,f
  3448     06F5  0829               	movf	??___flmul+1,w
  3449     06F6  1103               	clrz
  3450     06F7  1803               	skipnc
  3451     06F8  3E01               	addlw	1
  3452     06F9  1903               	skipnz
  3453     06FA  2EFC               	goto	u2841
  3454     06FB  07B5               	addwf	___flmul@prod+1,f
  3455     06FC                     u2841:
  3456     06FC  082A               	movf	??___flmul+2,w
  3457     06FD  1103               	clrz
  3458     06FE  1803               	skipnc
  3459     06FF  3E01               	addlw	1
  3460     0700  1903               	skipnz
  3461     0701  2F03               	goto	u2842
  3462     0702  07B6               	addwf	___flmul@prod+2,f
  3463     0703                     u2842:
  3464     0703  082B               	movf	??___flmul+3,w
  3465     0704  1103               	clrz
  3466     0705  1803               	skipnc
  3467     0706  3E01               	addlw	1
  3468     0707  1903               	skipnz
  3469     0708  2F0A               	goto	u2843
  3470     0709  07B7               	addwf	___flmul@prod+3,f
  3471     070A                     u2843:
  3472     070A                     l2043:
  3473     070A  3008               	movlw	8
  3474     070B  00A8               	movwf	??___flmul
  3475     070C                     u2855:
  3476     070C  1003               	clrc
  3477     070D  0DAE               	rlf	___flmul@grs,f
  3478     070E  0DAF               	rlf	___flmul@grs+1,f
  3479     070F  0DB0               	rlf	___flmul@grs+2,f
  3480     0710  0DB1               	rlf	___flmul@grs+3,f
  3481     0711  0BA8               	decfsz	??___flmul,f
  3482     0712  2F0C               	goto	u2855
  3483     0713                     l2045:
  3484     0713  0833               	movf	___flmul@bexp,w
  3485     0714  0732               	addwf	___flmul@aexp,w
  3486     0715  00A8               	movwf	??___flmul
  3487     0716  01A9               	clrf	??___flmul+1
  3488     0717  0DA9               	rlf	??___flmul+1,f
  3489     0718  0828               	movf	??___flmul,w
  3490     0719  3E82               	addlw	130
  3491     071A  00B8               	movwf	___flmul@temp
  3492     071B  0829               	movf	??___flmul+1,w
  3493     071C  1803               	skipnc
  3494     071D  3E01               	addlw	1
  3495     071E  3EFF               	addlw	255
  3496     071F  00B9               	movwf	___flmul@temp+1
  3497     0720  2F3E               	goto	l2057
  3498     0721                     l2047:
  3499     0721  3001               	movlw	1
  3500     0722  00A8               	movwf	??___flmul
  3501     0723                     u2865:
  3502     0723  1003               	clrc
  3503     0724  0DB4               	rlf	___flmul@prod,f
  3504     0725  0DB5               	rlf	___flmul@prod+1,f
  3505     0726  0DB6               	rlf	___flmul@prod+2,f
  3506     0727  0DB7               	rlf	___flmul@prod+3,f
  3507     0728  0BA8               	decfsz	??___flmul,f
  3508     0729  2F23               	goto	u2865
  3509     072A                     l2049:
  3510     072A  1FB1               	btfss	___flmul@grs+3,7
  3511     072B  2F2D               	goto	u2871
  3512     072C  2F2E               	goto	u2870
  3513     072D                     u2871:
  3514     072D  2F2F               	goto	l2053
  3515     072E                     u2870:
  3516     072E                     l2051:
  3517     072E  1434               	bsf	___flmul@prod,0
  3518     072F                     l2053:
  3519     072F  3001               	movlw	1
  3520     0730  00A8               	movwf	??___flmul
  3521     0731                     u2885:
  3522     0731  1003               	clrc
  3523     0732  0DAE               	rlf	___flmul@grs,f
  3524     0733  0DAF               	rlf	___flmul@grs+1,f
  3525     0734  0DB0               	rlf	___flmul@grs+2,f
  3526     0735  0DB1               	rlf	___flmul@grs+3,f
  3527     0736  0BA8               	decfsz	??___flmul,f
  3528     0737  2F31               	goto	u2885
  3529     0738                     l2055:
  3530     0738  30FF               	movlw	255
  3531     0739  07B8               	addwf	___flmul@temp,f
  3532     073A  1803               	skipnc
  3533     073B  0AB9               	incf	___flmul@temp+1,f
  3534     073C  30FF               	movlw	255
  3535     073D  07B9               	addwf	___flmul@temp+1,f
  3536     073E                     l2057:
  3537     073E  1FB6               	btfss	___flmul@prod+2,7
  3538     073F  2F41               	goto	u2891
  3539     0740  2F42               	goto	u2890
  3540     0741                     u2891:
  3541     0741  2F21               	goto	l2047
  3542     0742                     u2890:
  3543     0742                     l2059:
  3544     0742  01B2               	clrf	___flmul@aexp
  3545     0743                     l2061:
  3546     0743  1FB1               	btfss	___flmul@grs+3,7
  3547     0744  2F46               	goto	u2901
  3548     0745  2F47               	goto	u2900
  3549     0746                     u2901:
  3550     0746  2F63               	goto	l2069
  3551     0747                     u2900:
  3552     0747                     l2063:
  3553     0747  30FF               	movlw	255
  3554     0748  052E               	andwf	___flmul@grs,w
  3555     0749  00A8               	movwf	??___flmul
  3556     074A  30FF               	movlw	255
  3557     074B  052F               	andwf	___flmul@grs+1,w
  3558     074C  00A9               	movwf	??___flmul+1
  3559     074D  30FF               	movlw	255
  3560     074E  0530               	andwf	___flmul@grs+2,w
  3561     074F  00AA               	movwf	??___flmul+2
  3562     0750  307F               	movlw	127
  3563     0751  0531               	andwf	___flmul@grs+3,w
  3564     0752  00AB               	movwf	??___flmul+3
  3565     0753  082B               	movf	??___flmul+3,w
  3566     0754  042A               	iorwf	??___flmul+2,w
  3567     0755  0429               	iorwf	??___flmul+1,w
  3568     0756  0428               	iorwf	??___flmul,w
  3569     0757  1903               	skipnz
  3570     0758  2F5A               	goto	u2911
  3571     0759  2F5B               	goto	u2910
  3572     075A                     u2911:
  3573     075A  2F5E               	goto	l648
  3574     075B                     u2910:
  3575     075B                     l2065:
  3576     075B  01B2               	clrf	___flmul@aexp
  3577     075C  0AB2               	incf	___flmul@aexp,f
  3578     075D  2F63               	goto	l2069
  3579     075E                     l648:
  3580     075E  1C34               	btfss	___flmul@prod,0
  3581     075F  2F61               	goto	u2921
  3582     0760  2F62               	goto	u2920
  3583     0761                     u2921:
  3584     0761  2F63               	goto	l2069
  3585     0762                     u2920:
  3586     0762  2F5B               	goto	l2065
  3587     0763                     l2069:
  3588     0763  0832               	movf	___flmul@aexp,w
  3589     0764  1903               	btfsc	3,2
  3590     0765  2F67               	goto	u2931
  3591     0766  2F68               	goto	u2930
  3592     0767                     u2931:
  3593     0767  2F99               	goto	l2079
  3594     0768                     u2930:
  3595     0768                     l2071:
  3596     0768  3001               	movlw	1
  3597     0769  07B4               	addwf	___flmul@prod,f
  3598     076A  3000               	movlw	0
  3599     076B  1803               	skipnc
  3600     076C  3001               	movlw	1
  3601     076D  07B5               	addwf	___flmul@prod+1,f
  3602     076E  3000               	movlw	0
  3603     076F  1803               	skipnc
  3604     0770  3001               	movlw	1
  3605     0771  07B6               	addwf	___flmul@prod+2,f
  3606     0772  3000               	movlw	0
  3607     0773  1803               	skipnc
  3608     0774  3001               	movlw	1
  3609     0775  07B7               	addwf	___flmul@prod+3,f
  3610     0776                     l2073:
  3611     0776  1C37               	btfss	___flmul@prod+3,0
  3612     0777  2F79               	goto	u2941
  3613     0778  2F7A               	goto	u2940
  3614     0779                     u2941:
  3615     0779  2F99               	goto	l2079
  3616     077A                     u2940:
  3617     077A                     l2075:
  3618     077A  0834               	movf	___flmul@prod,w
  3619     077B  00A8               	movwf	??___flmul
  3620     077C  0835               	movf	___flmul@prod+1,w
  3621     077D  00A9               	movwf	??___flmul+1
  3622     077E  0836               	movf	___flmul@prod+2,w
  3623     077F  00AA               	movwf	??___flmul+2
  3624     0780  0837               	movf	___flmul@prod+3,w
  3625     0781  00AB               	movwf	??___flmul+3
  3626     0782  3001               	movlw	1
  3627     0783  00AC               	movwf	??___flmul+4
  3628     0784                     u2955:
  3629     0784  0D2B               	rlf	??___flmul+3,w
  3630     0785  0CAB               	rrf	??___flmul+3,f
  3631     0786  0CAA               	rrf	??___flmul+2,f
  3632     0787  0CA9               	rrf	??___flmul+1,f
  3633     0788  0CA8               	rrf	??___flmul,f
  3634     0789                     u2950:
  3635     0789  0BAC               	decfsz	??___flmul+4,f
  3636     078A  2F84               	goto	u2955
  3637     078B  082B               	movf	??___flmul+3,w
  3638     078C  00B7               	movwf	___flmul@prod+3
  3639     078D  082A               	movf	??___flmul+2,w
  3640     078E  00B6               	movwf	___flmul@prod+2
  3641     078F  0829               	movf	??___flmul+1,w
  3642     0790  00B5               	movwf	___flmul@prod+1
  3643     0791  0828               	movf	??___flmul,w
  3644     0792  00B4               	movwf	___flmul@prod
  3645     0793                     l2077:
  3646     0793  3001               	movlw	1
  3647     0794  07B8               	addwf	___flmul@temp,f
  3648     0795  1803               	skipnc
  3649     0796  0AB9               	incf	___flmul@temp+1,f
  3650     0797  3000               	movlw	0
  3651     0798  07B9               	addwf	___flmul@temp+1,f
  3652     0799                     l2079:
  3653     0799  0839               	movf	___flmul@temp+1,w
  3654     079A  3A80               	xorlw	128
  3655     079B  00FF               	movwf	btemp+1
  3656     079C  3080               	movlw	128
  3657     079D  027F               	subwf	btemp+1,w
  3658     079E  1D03               	skipz
  3659     079F  2FA2               	goto	u2965
  3660     07A0  30FF               	movlw	255
  3661     07A1  0238               	subwf	___flmul@temp,w
  3662     07A2                     u2965:
  3663     07A2  1C03               	skipc
  3664     07A3  2FA5               	goto	u2961
  3665     07A4  2FA6               	goto	u2960
  3666     07A5                     u2961:
  3667     07A5  2FB1               	goto	l2083
  3668     07A6                     u2960:
  3669     07A6                     l2081:
  3670     07A6  307F               	movlw	127
  3671     07A7  1283               	bcf	3,5	;RP0=0, select bank0
  3672     07A8  1303               	bcf	3,6	;RP1=0, select bank0
  3673     07A9  00B7               	movwf	___flmul@prod+3
  3674     07AA  3080               	movlw	128
  3675     07AB  00B6               	movwf	___flmul@prod+2
  3676     07AC  3000               	movlw	0
  3677     07AD  00B5               	movwf	___flmul@prod+1
  3678     07AE  3000               	movlw	0
  3679     07AF  00B4               	movwf	___flmul@prod
  3680     07B0  2FE2               	goto	l654
  3681     07B1                     l2083:
  3682     07B1  1283               	bcf	3,5	;RP0=0, select bank0
  3683     07B2  1303               	bcf	3,6	;RP1=0, select bank0
  3684     07B3  0839               	movf	___flmul@temp+1,w
  3685     07B4  3A80               	xorlw	128
  3686     07B5  00FF               	movwf	btemp+1
  3687     07B6  3080               	movlw	128
  3688     07B7  027F               	subwf	btemp+1,w
  3689     07B8  1D03               	skipz
  3690     07B9  2FBC               	goto	u2975
  3691     07BA  3001               	movlw	1
  3692     07BB  0238               	subwf	___flmul@temp,w
  3693     07BC                     u2975:
  3694     07BC  1803               	skipnc
  3695     07BD  2FBF               	goto	u2971
  3696     07BE  2FC0               	goto	u2970
  3697     07BF                     u2971:
  3698     07BF  2FCC               	goto	l2089
  3699     07C0                     u2970:
  3700     07C0                     l2085:
  3701     07C0  3000               	movlw	0
  3702     07C1  1283               	bcf	3,5	;RP0=0, select bank0
  3703     07C2  1303               	bcf	3,6	;RP1=0, select bank0
  3704     07C3  00B7               	movwf	___flmul@prod+3
  3705     07C4  3000               	movlw	0
  3706     07C5  00B6               	movwf	___flmul@prod+2
  3707     07C6  3000               	movlw	0
  3708     07C7  00B5               	movwf	___flmul@prod+1
  3709     07C8  3000               	movlw	0
  3710     07C9  00B4               	movwf	___flmul@prod
  3711     07CA                     l2087:
  3712     07CA  01AD               	clrf	___flmul@sign
  3713     07CB  2FE2               	goto	l654
  3714     07CC                     l2089:
  3715     07CC  1283               	bcf	3,5	;RP0=0, select bank0
  3716     07CD  1303               	bcf	3,6	;RP1=0, select bank0
  3717     07CE  0838               	movf	___flmul@temp,w
  3718     07CF  00B3               	movwf	___flmul@bexp
  3719     07D0  30FF               	movlw	255
  3720     07D1  05B4               	andwf	___flmul@prod,f
  3721     07D2  30FF               	movlw	255
  3722     07D3  05B5               	andwf	___flmul@prod+1,f
  3723     07D4  307F               	movlw	127
  3724     07D5  05B6               	andwf	___flmul@prod+2,f
  3725     07D6  3000               	movlw	0
  3726     07D7  05B7               	andwf	___flmul@prod+3,f
  3727     07D8                     l2091:
  3728     07D8  1C33               	btfss	___flmul@bexp,0
  3729     07D9  2FDB               	goto	u2981
  3730     07DA  2FDC               	goto	u2980
  3731     07DB                     u2981:
  3732     07DB  2FDD               	goto	l2095
  3733     07DC                     u2980:
  3734     07DC                     l2093:
  3735     07DC  17B6               	bsf	___flmul@prod+2,7
  3736     07DD                     l2095:
  3737     07DD  0833               	movf	___flmul@bexp,w
  3738     07DE  00A8               	movwf	??___flmul
  3739     07DF  1003               	clrc
  3740     07E0  0C28               	rrf	??___flmul,w
  3741     07E1  00B7               	movwf	___flmul@prod+3
  3742     07E2                     l654:
  3743     07E2  082D               	movf	___flmul@sign,w
  3744     07E3  00A8               	movwf	??___flmul
  3745     07E4  0828               	movf	??___flmul,w
  3746     07E5  04B7               	iorwf	___flmul@prod+3,f
  3747     07E6                     l2097:
  3748     07E6  0837               	movf	___flmul@prod+3,w
  3749     07E7  00A3               	movwf	?___flmul+3
  3750     07E8  0836               	movf	___flmul@prod+2,w
  3751     07E9  00A2               	movwf	?___flmul+2
  3752     07EA  0835               	movf	___flmul@prod+1,w
  3753     07EB  00A1               	movwf	?___flmul+1
  3754     07EC  0834               	movf	___flmul@prod,w
  3755     07ED  00A0               	movwf	?___flmul
  3756     07EE                     l642:
  3757     07EE  0008               	return
  3758     07EF                     __end_of___flmul:
  3759                           
  3760                           	psect	text5
  3761     0A13                     __ptext5:	
  3762 ;; *************** function __Umul8_16 *****************
  3763 ;; Defined at:
  3764 ;;		line 4 in file "C:\Program Files\Microchip\xc8\v2.40\pic\sources\c90\common\Umul8_16.c"
  3765 ;; Parameters:    Size  Location     Type
  3766 ;;  multiplier      1    wreg     unsigned char 
  3767 ;;  multiplicand    1    0[COMMON] unsigned char 
  3768 ;; Auto vars:     Size  Location     Type
  3769 ;;  multiplier      1    8[COMMON] unsigned char 
  3770 ;;  word_mpld       2    6[COMMON] unsigned int 
  3771 ;;  product         2    4[COMMON] unsigned int 
  3772 ;; Return value:  Size  Location     Type
  3773 ;;                  2    0[COMMON] unsigned int 
  3774 ;; Registers used:
  3775 ;;		wreg, status,2, status,0
  3776 ;; Tracked objects:
  3777 ;;		On entry : 0/0
  3778 ;;		On exit  : 0/0
  3779 ;;		Unchanged: 0/0
  3780 ;; Data sizes:     COMMON   BANK0   BANK1   BANK3   BANK2
  3781 ;;      Params:         2       0       0       0       0
  3782 ;;      Locals:         5       0       0       0       0
  3783 ;;      Temps:          2       0       0       0       0
  3784 ;;      Totals:         9       0       0       0       0
  3785 ;;Total ram usage:        9 bytes
  3786 ;; Hardware stack levels used: 1
  3787 ;; This function calls:
  3788 ;;		Nothing
  3789 ;; This function is called by:
  3790 ;;		___flmul
  3791 ;; This function uses a non-reentrant model
  3792 ;;
  3793                           
  3794     0A13                     __Umul8_16:	
  3795                           ;psect for function __Umul8_16
  3796                           
  3797                           
  3798                           ;incstack = 0
  3799                           ; Regs used in __Umul8_16: [wreg+status,2+status,0]
  3800                           ;__Umul8_16@multiplier stored from wreg
  3801     0A13  00F8               	movwf	__Umul8_16@multiplier
  3802     0A14                     l1807:
  3803     0A14  01F4               	clrf	__Umul8_16@product
  3804     0A15  01F5               	clrf	__Umul8_16@product+1
  3805     0A16                     l1809:
  3806     0A16  0870               	movf	__Umul8_16@multiplicand,w
  3807     0A17  00F2               	movwf	??__Umul8_16
  3808     0A18  01F3               	clrf	??__Umul8_16+1
  3809     0A19  0872               	movf	??__Umul8_16,w
  3810     0A1A  00F6               	movwf	__Umul8_16@word_mpld
  3811     0A1B  0873               	movf	??__Umul8_16+1,w
  3812     0A1C  00F7               	movwf	__Umul8_16@word_mpld+1
  3813     0A1D                     l1811:
  3814     0A1D  1C78               	btfss	__Umul8_16@multiplier,0
  3815     0A1E  2A20               	goto	u2261
  3816     0A1F  2A21               	goto	u2260
  3817     0A20                     u2261:
  3818     0A20  2A27               	goto	l661
  3819     0A21                     u2260:
  3820     0A21                     l1813:
  3821     0A21  0876               	movf	__Umul8_16@word_mpld,w
  3822     0A22  07F4               	addwf	__Umul8_16@product,f
  3823     0A23  1803               	skipnc
  3824     0A24  0AF5               	incf	__Umul8_16@product+1,f
  3825     0A25  0877               	movf	__Umul8_16@word_mpld+1,w
  3826     0A26  07F5               	addwf	__Umul8_16@product+1,f
  3827     0A27                     l661:
  3828     0A27  3001               	movlw	1
  3829     0A28                     u2275:
  3830     0A28  1003               	clrc
  3831     0A29  0DF6               	rlf	__Umul8_16@word_mpld,f
  3832     0A2A  0DF7               	rlf	__Umul8_16@word_mpld+1,f
  3833     0A2B  3EFF               	addlw	-1
  3834     0A2C  1D03               	skipz
  3835     0A2D  2A28               	goto	u2275
  3836     0A2E  1003               	clrc
  3837     0A2F  0CF8               	rrf	__Umul8_16@multiplier,f
  3838     0A30                     l1815:
  3839     0A30  0878               	movf	__Umul8_16@multiplier,w
  3840     0A31  1D03               	btfss	3,2
  3841     0A32  2A34               	goto	u2281
  3842     0A33  2A35               	goto	u2280
  3843     0A34                     u2281:
  3844     0A34  2A1D               	goto	l1811
  3845     0A35                     u2280:
  3846     0A35                     l1817:
  3847     0A35  0875               	movf	__Umul8_16@product+1,w
  3848     0A36  00F1               	movwf	?__Umul8_16+1
  3849     0A37  0874               	movf	__Umul8_16@product,w
  3850     0A38  00F0               	movwf	?__Umul8_16
  3851     0A39                     l663:
  3852     0A39  0008               	return
  3853     0A3A                     __end_of__Umul8_16:
  3854                           
  3855                           	psect	text6
  3856     0CA2                     __ptext6:	
  3857 ;; *************** function ___flge *****************
  3858 ;; Defined at:
  3859 ;;		line 4 in file "C:\Program Files\Microchip\xc8\v2.40\pic\sources\c90\common\flge.c"
  3860 ;; Parameters:    Size  Location     Type
  3861 ;;  ff1             4    0[COMMON] unsigned int 
  3862 ;;  ff2             4    4[COMMON] unsigned int 
  3863 ;; Auto vars:     Size  Location     Type
  3864 ;;		None
  3865 ;; Return value:  Size  Location     Type
  3866 ;;		None               void
  3867 ;; Registers used:
  3868 ;;		wreg, status,2, status,0
  3869 ;; Tracked objects:
  3870 ;;		On entry : 0/0
  3871 ;;		On exit  : 0/0
  3872 ;;		Unchanged: 0/0
  3873 ;; Data sizes:     COMMON   BANK0   BANK1   BANK3   BANK2
  3874 ;;      Params:         8       0       0       0       0
  3875 ;;      Locals:         0       0       0       0       0
  3876 ;;      Temps:          4       0       0       0       0
  3877 ;;      Totals:        12       0       0       0       0
  3878 ;;Total ram usage:       12 bytes
  3879 ;; Hardware stack levels used: 1
  3880 ;; This function calls:
  3881 ;;		Nothing
  3882 ;; This function is called by:
  3883 ;;		_pid_controller
  3884 ;; This function uses a non-reentrant model
  3885 ;;
  3886                           
  3887     0CA2                     ___flge:	
  3888                           ;psect for function ___flge
  3889                           
  3890     0CA2                     l1887:	
  3891                           ;incstack = 0
  3892                           ; Regs used in ___flge: [wreg+status,2+status,0]
  3893                           
  3894     0CA2  3000               	movlw	0
  3895     0CA3  0570               	andwf	___flge@ff1,w
  3896     0CA4  00F8               	movwf	??___flge
  3897     0CA5  3000               	movlw	0
  3898     0CA6  0571               	andwf	___flge@ff1+1,w
  3899     0CA7  00F9               	movwf	??___flge+1
  3900     0CA8  3080               	movlw	128
  3901     0CA9  0572               	andwf	___flge@ff1+2,w
  3902     0CAA  00FA               	movwf	??___flge+2
  3903     0CAB  307F               	movlw	127
  3904     0CAC  0573               	andwf	___flge@ff1+3,w
  3905     0CAD  00FB               	movwf	??___flge+3
  3906     0CAE  087B               	movf	??___flge+3,w
  3907     0CAF  047A               	iorwf	??___flge+2,w
  3908     0CB0  0479               	iorwf	??___flge+1,w
  3909     0CB1  0478               	iorwf	??___flge,w
  3910     0CB2  1D03               	skipz
  3911     0CB3  2CB5               	goto	u2421
  3912     0CB4  2CB6               	goto	u2420
  3913     0CB5                     u2421:
  3914     0CB5  2CBE               	goto	l427
  3915     0CB6                     u2420:
  3916     0CB6                     l1889:
  3917     0CB6  3000               	movlw	0
  3918     0CB7  00F3               	movwf	___flge@ff1+3
  3919     0CB8  3000               	movlw	0
  3920     0CB9  00F2               	movwf	___flge@ff1+2
  3921     0CBA  3000               	movlw	0
  3922     0CBB  00F1               	movwf	___flge@ff1+1
  3923     0CBC  3000               	movlw	0
  3924     0CBD  00F0               	movwf	___flge@ff1
  3925     0CBE                     l427:
  3926     0CBE  3000               	movlw	0
  3927     0CBF  0574               	andwf	___flge@ff2,w
  3928     0CC0  00F8               	movwf	??___flge
  3929     0CC1  3000               	movlw	0
  3930     0CC2  0575               	andwf	___flge@ff2+1,w
  3931     0CC3  00F9               	movwf	??___flge+1
  3932     0CC4  3080               	movlw	128
  3933     0CC5  0576               	andwf	___flge@ff2+2,w
  3934     0CC6  00FA               	movwf	??___flge+2
  3935     0CC7  307F               	movlw	127
  3936     0CC8  0577               	andwf	___flge@ff2+3,w
  3937     0CC9  00FB               	movwf	??___flge+3
  3938     0CCA  087B               	movf	??___flge+3,w
  3939     0CCB  047A               	iorwf	??___flge+2,w
  3940     0CCC  0479               	iorwf	??___flge+1,w
  3941     0CCD  0478               	iorwf	??___flge,w
  3942     0CCE  1D03               	skipz
  3943     0CCF  2CD1               	goto	u2431
  3944     0CD0  2CD2               	goto	u2430
  3945     0CD1                     u2431:
  3946     0CD1  2CDA               	goto	l1893
  3947     0CD2                     u2430:
  3948     0CD2                     l1891:
  3949     0CD2  3000               	movlw	0
  3950     0CD3  00F7               	movwf	___flge@ff2+3
  3951     0CD4  3000               	movlw	0
  3952     0CD5  00F6               	movwf	___flge@ff2+2
  3953     0CD6  3000               	movlw	0
  3954     0CD7  00F5               	movwf	___flge@ff2+1
  3955     0CD8  3000               	movlw	0
  3956     0CD9  00F4               	movwf	___flge@ff2
  3957     0CDA                     l1893:
  3958     0CDA  1FF3               	btfss	___flge@ff1+3,7
  3959     0CDB  2CDD               	goto	u2441
  3960     0CDC  2CDE               	goto	u2440
  3961     0CDD                     u2441:
  3962     0CDD  2D02               	goto	l1897
  3963     0CDE                     u2440:
  3964     0CDE                     l1895:
  3965     0CDE  3000               	movlw	0
  3966     0CDF  00F8               	movwf	??___flge
  3967     0CE0  3000               	movlw	0
  3968     0CE1  00F9               	movwf	??___flge+1
  3969     0CE2  3000               	movlw	0
  3970     0CE3  00FA               	movwf	??___flge+2
  3971     0CE4  3080               	movlw	128
  3972     0CE5  00FB               	movwf	??___flge+3
  3973     0CE6  0870               	movf	___flge@ff1,w
  3974     0CE7  02F8               	subwf	??___flge,f
  3975     0CE8  0871               	movf	___flge@ff1+1,w
  3976     0CE9  1C03               	skipc
  3977     0CEA  0F71               	incfsz	___flge@ff1+1,w
  3978     0CEB  2CED               	goto	u2451
  3979     0CEC  2CEE               	goto	u2452
  3980     0CED                     u2451:
  3981     0CED  02F9               	subwf	??___flge+1,f
  3982     0CEE                     u2452:
  3983     0CEE  0872               	movf	___flge@ff1+2,w
  3984     0CEF  1C03               	skipc
  3985     0CF0  0F72               	incfsz	___flge@ff1+2,w
  3986     0CF1  2CF3               	goto	u2453
  3987     0CF2  2CF4               	goto	u2454
  3988     0CF3                     u2453:
  3989     0CF3  02FA               	subwf	??___flge+2,f
  3990     0CF4                     u2454:
  3991     0CF4  0873               	movf	___flge@ff1+3,w
  3992     0CF5  1C03               	skipc
  3993     0CF6  0F73               	incfsz	___flge@ff1+3,w
  3994     0CF7  2CF9               	goto	u2455
  3995     0CF8  2CFA               	goto	u2456
  3996     0CF9                     u2455:
  3997     0CF9  02FB               	subwf	??___flge+3,f
  3998     0CFA                     u2456:
  3999     0CFA  087B               	movf	??___flge+3,w
  4000     0CFB  00F3               	movwf	___flge@ff1+3
  4001     0CFC  087A               	movf	??___flge+2,w
  4002     0CFD  00F2               	movwf	___flge@ff1+2
  4003     0CFE  0879               	movf	??___flge+1,w
  4004     0CFF  00F1               	movwf	___flge@ff1+1
  4005     0D00  0878               	movf	??___flge,w
  4006     0D01  00F0               	movwf	___flge@ff1
  4007     0D02                     l1897:
  4008     0D02  1FF7               	btfss	___flge@ff2+3,7
  4009     0D03  2D05               	goto	u2461
  4010     0D04  2D06               	goto	u2460
  4011     0D05                     u2461:
  4012     0D05  2D2A               	goto	l430
  4013     0D06                     u2460:
  4014     0D06                     l1899:
  4015     0D06  3000               	movlw	0
  4016     0D07  00F8               	movwf	??___flge
  4017     0D08  3000               	movlw	0
  4018     0D09  00F9               	movwf	??___flge+1
  4019     0D0A  3000               	movlw	0
  4020     0D0B  00FA               	movwf	??___flge+2
  4021     0D0C  3080               	movlw	128
  4022     0D0D  00FB               	movwf	??___flge+3
  4023     0D0E  0874               	movf	___flge@ff2,w
  4024     0D0F  02F8               	subwf	??___flge,f
  4025     0D10  0875               	movf	___flge@ff2+1,w
  4026     0D11  1C03               	skipc
  4027     0D12  0F75               	incfsz	___flge@ff2+1,w
  4028     0D13  2D15               	goto	u2471
  4029     0D14  2D16               	goto	u2472
  4030     0D15                     u2471:
  4031     0D15  02F9               	subwf	??___flge+1,f
  4032     0D16                     u2472:
  4033     0D16  0876               	movf	___flge@ff2+2,w
  4034     0D17  1C03               	skipc
  4035     0D18  0F76               	incfsz	___flge@ff2+2,w
  4036     0D19  2D1B               	goto	u2473
  4037     0D1A  2D1C               	goto	u2474
  4038     0D1B                     u2473:
  4039     0D1B  02FA               	subwf	??___flge+2,f
  4040     0D1C                     u2474:
  4041     0D1C  0877               	movf	___flge@ff2+3,w
  4042     0D1D  1C03               	skipc
  4043     0D1E  0F77               	incfsz	___flge@ff2+3,w
  4044     0D1F  2D21               	goto	u2475
  4045     0D20  2D22               	goto	u2476
  4046     0D21                     u2475:
  4047     0D21  02FB               	subwf	??___flge+3,f
  4048     0D22                     u2476:
  4049     0D22  087B               	movf	??___flge+3,w
  4050     0D23  00F7               	movwf	___flge@ff2+3
  4051     0D24  087A               	movf	??___flge+2,w
  4052     0D25  00F6               	movwf	___flge@ff2+2
  4053     0D26  0879               	movf	??___flge+1,w
  4054     0D27  00F5               	movwf	___flge@ff2+1
  4055     0D28  0878               	movf	??___flge,w
  4056     0D29  00F4               	movwf	___flge@ff2
  4057     0D2A                     l430:
  4058     0D2A  3080               	movlw	128
  4059     0D2B  06F3               	xorwf	___flge@ff1+3,f
  4060     0D2C  3080               	movlw	128
  4061     0D2D  06F7               	xorwf	___flge@ff2+3,f
  4062     0D2E  0877               	movf	___flge@ff2+3,w
  4063     0D2F  0273               	subwf	___flge@ff1+3,w
  4064     0D30  1D03               	skipz
  4065     0D31  2D3C               	goto	u2485
  4066     0D32  0876               	movf	___flge@ff2+2,w
  4067     0D33  0272               	subwf	___flge@ff1+2,w
  4068     0D34  1D03               	skipz
  4069     0D35  2D3C               	goto	u2485
  4070     0D36  0875               	movf	___flge@ff2+1,w
  4071     0D37  0271               	subwf	___flge@ff1+1,w
  4072     0D38  1D03               	skipz
  4073     0D39  2D3C               	goto	u2485
  4074     0D3A  0874               	movf	___flge@ff2,w
  4075     0D3B  0270               	subwf	___flge@ff1,w
  4076     0D3C                     u2485:
  4077     0D3C  1803               	skipnc
  4078     0D3D  2D3F               	goto	u2481
  4079     0D3E  2D40               	goto	u2480
  4080     0D3F                     u2481:
  4081     0D3F  2D42               	goto	l1903
  4082     0D40                     u2480:
  4083     0D40                     l1901:
  4084     0D40  1003               	clrc
  4085     0D41  2D43               	goto	l431
  4086     0D42                     l1903:
  4087     0D42  1403               	setc
  4088     0D43                     l431:
  4089     0D43  0008               	return
  4090     0D44                     __end_of___flge:
  4091                           
  4092                           	psect	text7
  4093     0D44                     __ptext7:	
  4094 ;; *************** function ___xxtofl *****************
  4095 ;; Defined at:
  4096 ;;		line 10 in file "C:\Program Files\Microchip\xc8\v2.40\pic\sources\c90\common\xxtofl.c"
  4097 ;; Parameters:    Size  Location     Type
  4098 ;;  sign            1    wreg     unsigned char 
  4099 ;;  val             4    0[COMMON] long 
  4100 ;; Auto vars:     Size  Location     Type
  4101 ;;  sign            1    8[COMMON] unsigned char 
  4102 ;;  arg             4   10[COMMON] unsigned long 
  4103 ;;  exp             1    9[COMMON] unsigned char 
  4104 ;; Return value:  Size  Location     Type
  4105 ;;                  4    0[COMMON] unsigned char 
  4106 ;; Registers used:
  4107 ;;		wreg, status,2, status,0
  4108 ;; Tracked objects:
  4109 ;;		On entry : 0/0
  4110 ;;		On exit  : 0/0
  4111 ;;		Unchanged: 0/0
  4112 ;; Data sizes:     COMMON   BANK0   BANK1   BANK3   BANK2
  4113 ;;      Params:         4       0       0       0       0
  4114 ;;      Locals:         6       0       0       0       0
  4115 ;;      Temps:          4       0       0       0       0
  4116 ;;      Totals:        14       0       0       0       0
  4117 ;;Total ram usage:       14 bytes
  4118 ;; Hardware stack levels used: 1
  4119 ;; This function calls:
  4120 ;;		Nothing
  4121 ;; This function is called by:
  4122 ;;		_main
  4123 ;; This function uses a non-reentrant model
  4124 ;;
  4125                           
  4126     0D44                     ___xxtofl:	
  4127                           ;psect for function ___xxtofl
  4128                           
  4129                           
  4130                           ;incstack = 0
  4131                           ; Regs used in ___xxtofl: [wreg+status,2+status,0]
  4132                           ;___xxtofl@sign stored from wreg
  4133     0D44  00F8               	movwf	___xxtofl@sign
  4134     0D45                     l2247:
  4135     0D45  0878               	movf	___xxtofl@sign,w
  4136     0D46  1903               	btfsc	3,2
  4137     0D47  2D49               	goto	u3201
  4138     0D48  2D4A               	goto	u3200
  4139     0D49                     u3201:
  4140     0D49  2D5E               	goto	l2253
  4141     0D4A                     u3200:
  4142     0D4A                     l2249:
  4143     0D4A  1FF3               	btfss	___xxtofl@val+3,7
  4144     0D4B  2D4D               	goto	u3211
  4145     0D4C  2D4E               	goto	u3210
  4146     0D4D                     u3211:
  4147     0D4D  2D5E               	goto	l2253
  4148     0D4E                     u3210:
  4149     0D4E                     l2251:
  4150     0D4E  0970               	comf	___xxtofl@val,w
  4151     0D4F  00FA               	movwf	___xxtofl@arg
  4152     0D50  0971               	comf	___xxtofl@val+1,w
  4153     0D51  00FB               	movwf	___xxtofl@arg+1
  4154     0D52  0972               	comf	___xxtofl@val+2,w
  4155     0D53  00FC               	movwf	___xxtofl@arg+2
  4156     0D54  0973               	comf	___xxtofl@val+3,w
  4157     0D55  00FD               	movwf	___xxtofl@arg+3
  4158     0D56  0AFA               	incf	___xxtofl@arg,f
  4159     0D57  1903               	skipnz
  4160     0D58  0AFB               	incf	___xxtofl@arg+1,f
  4161     0D59  1903               	skipnz
  4162     0D5A  0AFC               	incf	___xxtofl@arg+2,f
  4163     0D5B  1903               	skipnz
  4164     0D5C  0AFD               	incf	___xxtofl@arg+3,f
  4165     0D5D  2D66               	goto	l686
  4166     0D5E                     l2253:
  4167     0D5E  0873               	movf	___xxtofl@val+3,w
  4168     0D5F  00FD               	movwf	___xxtofl@arg+3
  4169     0D60  0872               	movf	___xxtofl@val+2,w
  4170     0D61  00FC               	movwf	___xxtofl@arg+2
  4171     0D62  0871               	movf	___xxtofl@val+1,w
  4172     0D63  00FB               	movwf	___xxtofl@arg+1
  4173     0D64  0870               	movf	___xxtofl@val,w
  4174     0D65  00FA               	movwf	___xxtofl@arg
  4175     0D66                     l686:
  4176     0D66  0873               	movf	___xxtofl@val+3,w
  4177     0D67  0472               	iorwf	___xxtofl@val+2,w
  4178     0D68  0471               	iorwf	___xxtofl@val+1,w
  4179     0D69  0470               	iorwf	___xxtofl@val,w
  4180     0D6A  1D03               	skipz
  4181     0D6B  2D6D               	goto	u3221
  4182     0D6C  2D6E               	goto	u3220
  4183     0D6D                     u3221:
  4184     0D6D  2D77               	goto	l2259
  4185     0D6E                     u3220:
  4186     0D6E                     l2255:
  4187     0D6E  3000               	movlw	0
  4188     0D6F  00F3               	movwf	?___xxtofl+3
  4189     0D70  3000               	movlw	0
  4190     0D71  00F2               	movwf	?___xxtofl+2
  4191     0D72  3000               	movlw	0
  4192     0D73  00F1               	movwf	?___xxtofl+1
  4193     0D74  3000               	movlw	0
  4194     0D75  00F0               	movwf	?___xxtofl
  4195     0D76  2DFB               	goto	l688
  4196     0D77                     l2259:
  4197     0D77  3096               	movlw	150
  4198     0D78  00F9               	movwf	___xxtofl@exp
  4199     0D79  2D87               	goto	l2263
  4200     0D7A                     l2261:
  4201     0D7A  3001               	movlw	1
  4202     0D7B  00F4               	movwf	??___xxtofl
  4203     0D7C  0874               	movf	??___xxtofl,w
  4204     0D7D  07F9               	addwf	___xxtofl@exp,f
  4205     0D7E  3001               	movlw	1
  4206     0D7F                     u3235:
  4207     0D7F  1003               	clrc
  4208     0D80  0CFD               	rrf	___xxtofl@arg+3,f
  4209     0D81  0CFC               	rrf	___xxtofl@arg+2,f
  4210     0D82  0CFB               	rrf	___xxtofl@arg+1,f
  4211     0D83  0CFA               	rrf	___xxtofl@arg,f
  4212     0D84  3EFF               	addlw	-1
  4213     0D85  1D03               	skipz
  4214     0D86  2D7F               	goto	u3235
  4215     0D87                     l2263:
  4216     0D87  30FE               	movlw	254
  4217     0D88  057D               	andwf	___xxtofl@arg+3,w
  4218     0D89  1D03               	btfss	3,2
  4219     0D8A  2D8C               	goto	u3241
  4220     0D8B  2D8D               	goto	u3240
  4221     0D8C                     u3241:
  4222     0D8C  2D7A               	goto	l2261
  4223     0D8D                     u3240:
  4224     0D8D  2DA9               	goto	l692
  4225     0D8E                     l2265:
  4226     0D8E  3001               	movlw	1
  4227     0D8F  00F4               	movwf	??___xxtofl
  4228     0D90  0874               	movf	??___xxtofl,w
  4229     0D91  07F9               	addwf	___xxtofl@exp,f
  4230     0D92                     l2267:
  4231     0D92  3001               	movlw	1
  4232     0D93  07FA               	addwf	___xxtofl@arg,f
  4233     0D94  3000               	movlw	0
  4234     0D95  1803               	skipnc
  4235     0D96  3001               	movlw	1
  4236     0D97  07FB               	addwf	___xxtofl@arg+1,f
  4237     0D98  3000               	movlw	0
  4238     0D99  1803               	skipnc
  4239     0D9A  3001               	movlw	1
  4240     0D9B  07FC               	addwf	___xxtofl@arg+2,f
  4241     0D9C  3000               	movlw	0
  4242     0D9D  1803               	skipnc
  4243     0D9E  3001               	movlw	1
  4244     0D9F  07FD               	addwf	___xxtofl@arg+3,f
  4245     0DA0                     l2269:
  4246     0DA0  3001               	movlw	1
  4247     0DA1                     u3255:
  4248     0DA1  1003               	clrc
  4249     0DA2  0CFD               	rrf	___xxtofl@arg+3,f
  4250     0DA3  0CFC               	rrf	___xxtofl@arg+2,f
  4251     0DA4  0CFB               	rrf	___xxtofl@arg+1,f
  4252     0DA5  0CFA               	rrf	___xxtofl@arg,f
  4253     0DA6  3EFF               	addlw	-1
  4254     0DA7  1D03               	skipz
  4255     0DA8  2DA1               	goto	u3255
  4256     0DA9                     l692:
  4257     0DA9  30FF               	movlw	255
  4258     0DAA  057D               	andwf	___xxtofl@arg+3,w
  4259     0DAB  1D03               	btfss	3,2
  4260     0DAC  2DAE               	goto	u3261
  4261     0DAD  2DAF               	goto	u3260
  4262     0DAE                     u3261:
  4263     0DAE  2D8E               	goto	l2265
  4264     0DAF                     u3260:
  4265     0DAF  2DBB               	goto	l2273
  4266     0DB0                     l2271:
  4267     0DB0  3001               	movlw	1
  4268     0DB1  02F9               	subwf	___xxtofl@exp,f
  4269     0DB2  3001               	movlw	1
  4270     0DB3  00F4               	movwf	??___xxtofl
  4271     0DB4                     u3275:
  4272     0DB4  1003               	clrc
  4273     0DB5  0DFA               	rlf	___xxtofl@arg,f
  4274     0DB6  0DFB               	rlf	___xxtofl@arg+1,f
  4275     0DB7  0DFC               	rlf	___xxtofl@arg+2,f
  4276     0DB8  0DFD               	rlf	___xxtofl@arg+3,f
  4277     0DB9  0BF4               	decfsz	??___xxtofl,f
  4278     0DBA  2DB4               	goto	u3275
  4279     0DBB                     l2273:
  4280     0DBB  1BFC               	btfsc	___xxtofl@arg+2,7
  4281     0DBC  2DBE               	goto	u3281
  4282     0DBD  2DBF               	goto	u3280
  4283     0DBE                     u3281:
  4284     0DBE  2DC5               	goto	l699
  4285     0DBF                     u3280:
  4286     0DBF                     l2275:
  4287     0DBF  3002               	movlw	2
  4288     0DC0  0279               	subwf	___xxtofl@exp,w
  4289     0DC1  1803               	skipnc
  4290     0DC2  2DC4               	goto	u3291
  4291     0DC3  2DC5               	goto	u3290
  4292     0DC4                     u3291:
  4293     0DC4  2DB0               	goto	l2271
  4294     0DC5                     u3290:
  4295     0DC5                     l699:
  4296     0DC5  1879               	btfsc	___xxtofl@exp,0
  4297     0DC6  2DC8               	goto	u3301
  4298     0DC7  2DC9               	goto	u3300
  4299     0DC8                     u3301:
  4300     0DC8  2DD1               	goto	l700
  4301     0DC9                     u3300:
  4302     0DC9                     l2277:
  4303     0DC9  30FF               	movlw	255
  4304     0DCA  05FA               	andwf	___xxtofl@arg,f
  4305     0DCB  30FF               	movlw	255
  4306     0DCC  05FB               	andwf	___xxtofl@arg+1,f
  4307     0DCD  307F               	movlw	127
  4308     0DCE  05FC               	andwf	___xxtofl@arg+2,f
  4309     0DCF  30FF               	movlw	255
  4310     0DD0  05FD               	andwf	___xxtofl@arg+3,f
  4311     0DD1                     l700:
  4312     0DD1  1003               	clrc
  4313     0DD2  0CF9               	rrf	___xxtofl@exp,f
  4314     0DD3                     l2279:
  4315     0DD3  0879               	movf	___xxtofl@exp,w
  4316     0DD4  00F4               	movwf	??___xxtofl
  4317     0DD5  01F5               	clrf	??___xxtofl+1
  4318     0DD6  01F6               	clrf	??___xxtofl+2
  4319     0DD7  01F7               	clrf	??___xxtofl+3
  4320     0DD8  3018               	movlw	24
  4321     0DD9                     u3315:
  4322     0DD9  1003               	clrc
  4323     0DDA  0DF4               	rlf	??___xxtofl,f
  4324     0DDB  0DF5               	rlf	??___xxtofl+1,f
  4325     0DDC  0DF6               	rlf	??___xxtofl+2,f
  4326     0DDD  0DF7               	rlf	??___xxtofl+3,f
  4327     0DDE                     u3310:
  4328     0DDE  3EFF               	addlw	-1
  4329     0DDF  1D03               	skipz
  4330     0DE0  2DD9               	goto	u3315
  4331     0DE1  0874               	movf	??___xxtofl,w
  4332     0DE2  04FA               	iorwf	___xxtofl@arg,f
  4333     0DE3  0875               	movf	??___xxtofl+1,w
  4334     0DE4  04FB               	iorwf	___xxtofl@arg+1,f
  4335     0DE5  0876               	movf	??___xxtofl+2,w
  4336     0DE6  04FC               	iorwf	___xxtofl@arg+2,f
  4337     0DE7  0877               	movf	??___xxtofl+3,w
  4338     0DE8  04FD               	iorwf	___xxtofl@arg+3,f
  4339     0DE9                     l2281:
  4340     0DE9  0878               	movf	___xxtofl@sign,w
  4341     0DEA  1903               	btfsc	3,2
  4342     0DEB  2DED               	goto	u3321
  4343     0DEC  2DEE               	goto	u3320
  4344     0DED                     u3321:
  4345     0DED  2DF3               	goto	l2287
  4346     0DEE                     u3320:
  4347     0DEE                     l2283:
  4348     0DEE  1FF3               	btfss	___xxtofl@val+3,7
  4349     0DEF  2DF1               	goto	u3331
  4350     0DF0  2DF2               	goto	u3330
  4351     0DF1                     u3331:
  4352     0DF1  2DF3               	goto	l2287
  4353     0DF2                     u3330:
  4354     0DF2                     l2285:
  4355     0DF2  17FD               	bsf	___xxtofl@arg+3,7
  4356     0DF3                     l2287:
  4357     0DF3  087D               	movf	___xxtofl@arg+3,w
  4358     0DF4  00F3               	movwf	?___xxtofl+3
  4359     0DF5  087C               	movf	___xxtofl@arg+2,w
  4360     0DF6  00F2               	movwf	?___xxtofl+2
  4361     0DF7  087B               	movf	___xxtofl@arg+1,w
  4362     0DF8  00F1               	movwf	?___xxtofl+1
  4363     0DF9  087A               	movf	___xxtofl@arg,w
  4364     0DFA  00F0               	movwf	?___xxtofl
  4365     0DFB                     l688:
  4366     0DFB  0008               	return
  4367     0DFC                     __end_of___xxtofl:
  4368                           
  4369                           	psect	text8
  4370     0C2A                     __ptext8:	
  4371 ;; *************** function ___fltol *****************
  4372 ;; Defined at:
  4373 ;;		line 43 in file "C:\Program Files\Microchip\xc8\v2.40\pic\sources\c90\common\fltol.c"
  4374 ;; Parameters:    Size  Location     Type
  4375 ;;  f1              4   26[BANK0 ] unsigned char 
  4376 ;; Auto vars:     Size  Location     Type
  4377 ;;  exp1            1   35[BANK0 ] unsigned char 
  4378 ;;  sign1           1   34[BANK0 ] unsigned char 
  4379 ;; Return value:  Size  Location     Type
  4380 ;;                  4   26[BANK0 ] long 
  4381 ;; Registers used:
  4382 ;;		wreg, status,2, status,0
  4383 ;; Tracked objects:
  4384 ;;		On entry : 0/0
  4385 ;;		On exit  : 0/0
  4386 ;;		Unchanged: 0/0
  4387 ;; Data sizes:     COMMON   BANK0   BANK1   BANK3   BANK2
  4388 ;;      Params:         0       4       0       0       0
  4389 ;;      Locals:         0       2       0       0       0
  4390 ;;      Temps:          0       4       0       0       0
  4391 ;;      Totals:         0      10       0       0       0
  4392 ;;Total ram usage:       10 bytes
  4393 ;; Hardware stack levels used: 1
  4394 ;; This function calls:
  4395 ;;		Nothing
  4396 ;; This function is called by:
  4397 ;;		_main
  4398 ;; This function uses a non-reentrant model
  4399 ;;
  4400                           
  4401     0C2A                     ___fltol:	
  4402                           ;psect for function ___fltol
  4403                           
  4404     0C2A                     l2211:	
  4405                           ;incstack = 0
  4406                           ; Regs used in ___fltol: [wreg+status,2+status,0]
  4407                           
  4408     0C2A  1003               	clrc
  4409     0C2B  1283               	bcf	3,5	;RP0=0, select bank0
  4410     0C2C  1303               	bcf	3,6	;RP1=0, select bank0
  4411     0C2D  0D3C               	rlf	___fltol@f1+2,w
  4412     0C2E  0D3D               	rlf	___fltol@f1+3,w
  4413     0C2F  00C3               	movwf	___fltol@exp1
  4414     0C30  0843               	movf	___fltol@exp1,w
  4415     0C31  1D03               	btfss	3,2
  4416     0C32  2C34               	goto	u3101
  4417     0C33  2C35               	goto	u3100
  4418     0C34                     u3101:
  4419     0C34  2C3E               	goto	l2217
  4420     0C35                     u3100:
  4421     0C35                     l2213:
  4422     0C35  3000               	movlw	0
  4423     0C36  00BD               	movwf	?___fltol+3
  4424     0C37  3000               	movlw	0
  4425     0C38  00BC               	movwf	?___fltol+2
  4426     0C39  3000               	movlw	0
  4427     0C3A  00BB               	movwf	?___fltol+1
  4428     0C3B  3000               	movlw	0
  4429     0C3C  00BA               	movwf	?___fltol
  4430     0C3D  2CA1               	goto	l439
  4431     0C3E                     l2217:
  4432     0C3E  083A               	movf	___fltol@f1,w
  4433     0C3F  00BE               	movwf	??___fltol
  4434     0C40  083B               	movf	___fltol@f1+1,w
  4435     0C41  00BF               	movwf	??___fltol+1
  4436     0C42  083C               	movf	___fltol@f1+2,w
  4437     0C43  00C0               	movwf	??___fltol+2
  4438     0C44  083D               	movf	___fltol@f1+3,w
  4439     0C45  00C1               	movwf	??___fltol+3
  4440     0C46  301F               	movlw	31
  4441     0C47                     u3115:
  4442     0C47  1003               	clrc
  4443     0C48  0CC1               	rrf	??___fltol+3,f
  4444     0C49  0CC0               	rrf	??___fltol+2,f
  4445     0C4A  0CBF               	rrf	??___fltol+1,f
  4446     0C4B  0CBE               	rrf	??___fltol,f
  4447     0C4C                     u3110:
  4448     0C4C  3EFF               	addlw	-1
  4449     0C4D  1D03               	skipz
  4450     0C4E  2C47               	goto	u3115
  4451     0C4F  083E               	movf	??___fltol,w
  4452     0C50  00C2               	movwf	___fltol@sign1
  4453     0C51                     l2219:
  4454     0C51  17BC               	bsf	___fltol@f1+2,7
  4455     0C52                     l2221:
  4456     0C52  30FF               	movlw	255
  4457     0C53  05BA               	andwf	___fltol@f1,f
  4458     0C54  30FF               	movlw	255
  4459     0C55  05BB               	andwf	___fltol@f1+1,f
  4460     0C56  30FF               	movlw	255
  4461     0C57  05BC               	andwf	___fltol@f1+2,f
  4462     0C58  3000               	movlw	0
  4463     0C59  05BD               	andwf	___fltol@f1+3,f
  4464     0C5A                     l2223:
  4465     0C5A  3096               	movlw	150
  4466     0C5B  02C3               	subwf	___fltol@exp1,f
  4467     0C5C                     l2225:
  4468     0C5C  1FC3               	btfss	___fltol@exp1,7
  4469     0C5D  2C5F               	goto	u3121
  4470     0C5E  2C60               	goto	u3120
  4471     0C5F                     u3121:
  4472     0C5F  2C7A               	goto	l2235
  4473     0C60                     u3120:
  4474     0C60                     l2227:
  4475     0C60  0843               	movf	___fltol@exp1,w
  4476     0C61  3A80               	xorlw	128
  4477     0C62  3E97               	addlw	151
  4478     0C63  1803               	skipnc
  4479     0C64  2C66               	goto	u3131
  4480     0C65  2C67               	goto	u3130
  4481     0C66                     u3131:
  4482     0C66  2C68               	goto	l2233
  4483     0C67                     u3130:
  4484     0C67  2C35               	goto	l2213
  4485     0C68                     l2233:
  4486     0C68  3001               	movlw	1
  4487     0C69                     u3145:
  4488     0C69  1003               	clrc
  4489     0C6A  0CBD               	rrf	___fltol@f1+3,f
  4490     0C6B  0CBC               	rrf	___fltol@f1+2,f
  4491     0C6C  0CBB               	rrf	___fltol@f1+1,f
  4492     0C6D  0CBA               	rrf	___fltol@f1,f
  4493     0C6E  3EFF               	addlw	-1
  4494     0C6F  1D03               	skipz
  4495     0C70  2C69               	goto	u3145
  4496     0C71  3001               	movlw	1
  4497     0C72  00BE               	movwf	??___fltol
  4498     0C73  083E               	movf	??___fltol,w
  4499     0C74  07C3               	addwf	___fltol@exp1,f
  4500     0C75  1D03               	btfss	3,2
  4501     0C76  2C78               	goto	u3151
  4502     0C77  2C79               	goto	u3150
  4503     0C78                     u3151:
  4504     0C78  2C68               	goto	l2233
  4505     0C79                     u3150:
  4506     0C79  2C91               	goto	l2243
  4507     0C7A                     l2235:
  4508     0C7A  3020               	movlw	32
  4509     0C7B  0243               	subwf	___fltol@exp1,w
  4510     0C7C  1C03               	skipc
  4511     0C7D  2C7F               	goto	u3161
  4512     0C7E  2C80               	goto	u3160
  4513     0C7F                     u3161:
  4514     0C7F  2C8C               	goto	l446
  4515     0C80                     u3160:
  4516     0C80  2C35               	goto	l2213
  4517     0C81                     l2241:
  4518     0C81  3001               	movlw	1
  4519     0C82  00BE               	movwf	??___fltol
  4520     0C83                     u3175:
  4521     0C83  1003               	clrc
  4522     0C84  0DBA               	rlf	___fltol@f1,f
  4523     0C85  0DBB               	rlf	___fltol@f1+1,f
  4524     0C86  0DBC               	rlf	___fltol@f1+2,f
  4525     0C87  0DBD               	rlf	___fltol@f1+3,f
  4526     0C88  0BBE               	decfsz	??___fltol,f
  4527     0C89  2C83               	goto	u3175
  4528     0C8A  3001               	movlw	1
  4529     0C8B  02C3               	subwf	___fltol@exp1,f
  4530     0C8C                     l446:
  4531     0C8C  0843               	movf	___fltol@exp1,w
  4532     0C8D  1D03               	btfss	3,2
  4533     0C8E  2C90               	goto	u3181
  4534     0C8F  2C91               	goto	u3180
  4535     0C90                     u3181:
  4536     0C90  2C81               	goto	l2241
  4537     0C91                     u3180:
  4538     0C91                     l2243:
  4539     0C91  0842               	movf	___fltol@sign1,w
  4540     0C92  1903               	btfsc	3,2
  4541     0C93  2C95               	goto	u3191
  4542     0C94  2C96               	goto	u3190
  4543     0C95                     u3191:
  4544     0C95  2CA1               	goto	l449
  4545     0C96                     u3190:
  4546     0C96                     l2245:
  4547     0C96  09BA               	comf	___fltol@f1,f
  4548     0C97  09BB               	comf	___fltol@f1+1,f
  4549     0C98  09BC               	comf	___fltol@f1+2,f
  4550     0C99  09BD               	comf	___fltol@f1+3,f
  4551     0C9A  0ABA               	incf	___fltol@f1,f
  4552     0C9B  1903               	skipnz
  4553     0C9C  0ABB               	incf	___fltol@f1+1,f
  4554     0C9D  1903               	skipnz
  4555     0C9E  0ABC               	incf	___fltol@f1+2,f
  4556     0C9F  1903               	skipnz
  4557     0CA0  0ABD               	incf	___fltol@f1+3,f
  4558     0CA1                     l449:
  4559     0CA1                     l439:
  4560     0CA1  0008               	return
  4561     0CA2                     __end_of___fltol:
  4562                           
  4563                           	psect	text9
  4564     0EE3                     __ptext9:	
  4565 ;; *************** function _Lcd_Write_Int *****************
  4566 ;; Defined at:
  4567 ;;		line 121 in file "../00-Librerie.X/lcd.c"
  4568 ;; Parameters:    Size  Location     Type
  4569 ;;  val             2   36[BANK0 ] int 
  4570 ;; Auto vars:     Size  Location     Type
  4571 ;;  t               2   55[BANK1 ] int 
  4572 ;;  buffer         50    0[BANK1 ] unsigned char [50]
  4573 ;;  i               2   57[BANK1 ] int 
  4574 ;;  n               2   53[BANK1 ] int 
  4575 ;;  n1              2   51[BANK1 ] unsigned int 
  4576 ;;  isNeg           1   50[BANK1 ] unsigned char 
  4577 ;; Return value:  Size  Location     Type
  4578 ;;                  2   36[BANK0 ] PTR unsigned char 
  4579 ;; Registers used:
  4580 ;;		wreg, fsr0l, fsr0h, status,2, status,0, btemp+1, pclath, cstack
  4581 ;; Tracked objects:
  4582 ;;		On entry : 0/0
  4583 ;;		On exit  : 0/0
  4584 ;;		Unchanged: 0/0
  4585 ;; Data sizes:     COMMON   BANK0   BANK1   BANK3   BANK2
  4586 ;;      Params:         0       2       0       0       0
  4587 ;;      Locals:         0       0      59       0       0
  4588 ;;      Temps:          0       3       0       0       0
  4589 ;;      Totals:         0       5      59       0       0
  4590 ;;Total ram usage:       64 bytes
  4591 ;; Hardware stack levels used: 1
  4592 ;; Hardware stack levels required when called: 3
  4593 ;; This function calls:
  4594 ;;		_Lcd_Write_String
  4595 ;;		___awdiv
  4596 ;;		___lwdiv
  4597 ;;		___lwmod
  4598 ;; This function is called by:
  4599 ;;		_main
  4600 ;; This function uses a non-reentrant model
  4601 ;;
  4602                           
  4603     0EE3                     _Lcd_Write_Int:	
  4604                           ;psect for function _Lcd_Write_Int
  4605                           
  4606     0EE3                     l2167:	
  4607                           ;incstack = 0
  4608                           ; Regs used in _Lcd_Write_Int: [wreg-fsr0h+status,2+status,0+btemp+1+pclath+cstack]
  4609                           
  4610                           
  4611                           ;../00-Librerie.X/lcd.c: 123:     int n = val;
  4612     0EE3  1283               	bcf	3,5	;RP0=0, select bank0
  4613     0EE4  1303               	bcf	3,6	;RP1=0, select bank0
  4614     0EE5  0845               	movf	Lcd_Write_Int@val+1,w
  4615     0EE6  1683               	bsf	3,5	;RP0=1, select bank1
  4616     0EE7  1303               	bcf	3,6	;RP1=0, select bank1
  4617     0EE8  00D6               	movwf	(Lcd_Write_Int@n+1)^(0+128)
  4618     0EE9  1283               	bcf	3,5	;RP0=0, select bank0
  4619     0EEA  1303               	bcf	3,6	;RP1=0, select bank0
  4620     0EEB  0844               	movf	Lcd_Write_Int@val,w
  4621     0EEC  1683               	bsf	3,5	;RP0=1, select bank1
  4622     0EED  1303               	bcf	3,6	;RP1=0, select bank1
  4623     0EEE  00D5               	movwf	Lcd_Write_Int@n^(0+128)
  4624     0EEF                     l2169:
  4625                           
  4626                           ;../00-Librerie.X/lcd.c: 124:     char buffer[50];;../00-Librerie.X/lcd.c: 125:     int 
      +                          i = 0;
  4627     0EEF  01D9               	clrf	Lcd_Write_Int@i^(0+128)
  4628     0EF0  01DA               	clrf	(Lcd_Write_Int@i+1)^(0+128)
  4629     0EF1                     l2171:
  4630                           
  4631                           ;../00-Librerie.X/lcd.c: 126:     char isNeg = n < 0;
  4632     0EF1  1BD6               	btfsc	(Lcd_Write_Int@n+1)^(0+128),7
  4633     0EF2  2EF4               	goto	u3031
  4634     0EF3  2EF6               	goto	u3030
  4635     0EF4                     u3031:
  4636     0EF4  3001               	movlw	1
  4637     0EF5  2EF7               	goto	u3040
  4638     0EF6                     u3030:
  4639     0EF6  3000               	movlw	0
  4640     0EF7                     u3040:
  4641     0EF7  00D2               	movwf	Lcd_Write_Int@isNeg^(0+128)
  4642     0EF8                     l2173:
  4643                           
  4644                           ;../00-Librerie.X/lcd.c: 128:     unsigned int n1 = isNeg ? -n : n;
  4645     0EF8  0852               	movf	Lcd_Write_Int@isNeg^(0+128),w
  4646     0EF9  1D03               	btfss	3,2
  4647     0EFA  2EFC               	goto	u3051
  4648     0EFB  2EFD               	goto	u3050
  4649     0EFC                     u3051:
  4650     0EFC  2F02               	goto	l2177
  4651     0EFD                     u3050:
  4652     0EFD                     l2175:
  4653     0EFD  0856               	movf	(Lcd_Write_Int@n+1)^(0+128),w
  4654     0EFE  00D4               	movwf	(Lcd_Write_Int@n1+1)^(0+128)
  4655     0EFF  0855               	movf	Lcd_Write_Int@n^(0+128),w
  4656     0F00  00D3               	movwf	Lcd_Write_Int@n1^(0+128)
  4657     0F01  2F49               	goto	l2185
  4658     0F02                     l2177:
  4659     0F02  0955               	comf	Lcd_Write_Int@n^(0+128),w
  4660     0F03  1283               	bcf	3,5	;RP0=0, select bank0
  4661     0F04  1303               	bcf	3,6	;RP1=0, select bank0
  4662     0F05  00C6               	movwf	??_Lcd_Write_Int
  4663     0F06  1683               	bsf	3,5	;RP0=1, select bank1
  4664     0F07  1303               	bcf	3,6	;RP1=0, select bank1
  4665     0F08  0956               	comf	(Lcd_Write_Int@n+1)^(0+128),w
  4666     0F09  1283               	bcf	3,5	;RP0=0, select bank0
  4667     0F0A  1303               	bcf	3,6	;RP1=0, select bank0
  4668     0F0B  00C7               	movwf	??_Lcd_Write_Int+1
  4669     0F0C  0AC6               	incf	??_Lcd_Write_Int,f
  4670     0F0D  1903               	skipnz
  4671     0F0E  0AC7               	incf	??_Lcd_Write_Int+1,f
  4672     0F0F  0846               	movf	??_Lcd_Write_Int,w
  4673     0F10  1683               	bsf	3,5	;RP0=1, select bank1
  4674     0F11  1303               	bcf	3,6	;RP1=0, select bank1
  4675     0F12  00D3               	movwf	Lcd_Write_Int@n1^(0+128)
  4676     0F13  1283               	bcf	3,5	;RP0=0, select bank0
  4677     0F14  1303               	bcf	3,6	;RP1=0, select bank0
  4678     0F15  0847               	movf	??_Lcd_Write_Int+1,w
  4679     0F16  1683               	bsf	3,5	;RP0=1, select bank1
  4680     0F17  1303               	bcf	3,6	;RP1=0, select bank1
  4681     0F18  00D4               	movwf	(Lcd_Write_Int@n1+1)^(0+128)
  4682     0F19  2F49               	goto	l2185
  4683     0F1A                     l2179:
  4684                           
  4685                           ;../00-Librerie.X/lcd.c: 131:         buffer[i++] = n1 % 10 + '0';
  4686     0F1A  0859               	movf	Lcd_Write_Int@i^(0+128),w
  4687     0F1B  3EA0               	addlw	(low (Lcd_Write_Int@buffer| 0))& (0+255)
  4688     0F1C  0084               	movwf	4
  4689     0F1D  300A               	movlw	10
  4690     0F1E  00F0               	movwf	___lwmod@divisor
  4691     0F1F  3000               	movlw	0
  4692     0F20  00F1               	movwf	___lwmod@divisor+1
  4693     0F21  0854               	movf	(Lcd_Write_Int@n1+1)^(0+128),w
  4694     0F22  00F3               	movwf	___lwmod@dividend+1
  4695     0F23  0853               	movf	Lcd_Write_Int@n1^(0+128),w
  4696     0F24  00F2               	movwf	___lwmod@dividend
  4697     0F25  120A  158A  229E  120A  158A  	fcall	___lwmod
  4698     0F2A  0870               	movf	?___lwmod,w
  4699     0F2B  3E30               	addlw	48
  4700     0F2C  1383               	bcf	3,7	;select IRP bank1
  4701     0F2D  0080               	movwf	0
  4702     0F2E                     l2181:
  4703     0F2E  3001               	movlw	1
  4704     0F2F  1683               	bsf	3,5	;RP0=1, select bank1
  4705     0F30  1303               	bcf	3,6	;RP1=0, select bank1
  4706     0F31  07D9               	addwf	Lcd_Write_Int@i^(0+128),f
  4707     0F32  1803               	skipnc
  4708     0F33  0ADA               	incf	(Lcd_Write_Int@i+1)^(0+128),f
  4709     0F34  3000               	movlw	0
  4710     0F35  07DA               	addwf	(Lcd_Write_Int@i+1)^(0+128),f
  4711     0F36                     l2183:
  4712                           
  4713                           ;../00-Librerie.X/lcd.c: 132:         n1 = n1 / 10;
  4714     0F36  300A               	movlw	10
  4715     0F37  00F0               	movwf	___lwdiv@divisor
  4716     0F38  3000               	movlw	0
  4717     0F39  00F1               	movwf	___lwdiv@divisor+1
  4718     0F3A  0854               	movf	(Lcd_Write_Int@n1+1)^(0+128),w
  4719     0F3B  00F3               	movwf	___lwdiv@dividend+1
  4720     0F3C  0853               	movf	Lcd_Write_Int@n1^(0+128),w
  4721     0F3D  00F2               	movwf	___lwdiv@dividend
  4722     0F3E  120A  158A  231A  120A  158A  	fcall	___lwdiv
  4723     0F43  0871               	movf	?___lwdiv+1,w
  4724     0F44  1683               	bsf	3,5	;RP0=1, select bank1
  4725     0F45  1303               	bcf	3,6	;RP1=0, select bank1
  4726     0F46  00D4               	movwf	(Lcd_Write_Int@n1+1)^(0+128)
  4727     0F47  0870               	movf	?___lwdiv,w
  4728     0F48  00D3               	movwf	Lcd_Write_Int@n1^(0+128)
  4729     0F49                     l2185:
  4730                           
  4731                           ;../00-Librerie.X/lcd.c: 130:     while (n1 != 0) {
  4732     0F49  0853               	movf	Lcd_Write_Int@n1^(0+128),w
  4733     0F4A  0454               	iorwf	(Lcd_Write_Int@n1+1)^(0+128),w
  4734     0F4B  1D03               	btfss	3,2
  4735     0F4C  2F4E               	goto	u3061
  4736     0F4D  2F4F               	goto	u3060
  4737     0F4E                     u3061:
  4738     0F4E  2F1A               	goto	l2179
  4739     0F4F                     u3060:
  4740     0F4F                     l2187:
  4741                           
  4742                           ;../00-Librerie.X/lcd.c: 135:     if (isNeg)
  4743     0F4F  0852               	movf	Lcd_Write_Int@isNeg^(0+128),w
  4744     0F50  1903               	btfsc	3,2
  4745     0F51  2F53               	goto	u3071
  4746     0F52  2F54               	goto	u3070
  4747     0F53                     u3071:
  4748     0F53  2F60               	goto	l2193
  4749     0F54                     u3070:
  4750     0F54                     l2189:
  4751                           
  4752                           ;../00-Librerie.X/lcd.c: 136:         buffer[i++] = '-';
  4753     0F54  0859               	movf	Lcd_Write_Int@i^(0+128),w
  4754     0F55  3EA0               	addlw	(low (Lcd_Write_Int@buffer| 0))& (0+255)
  4755     0F56  0084               	movwf	4
  4756     0F57  302D               	movlw	45
  4757     0F58  1383               	bcf	3,7	;select IRP bank1
  4758     0F59  0080               	movwf	0
  4759     0F5A                     l2191:
  4760     0F5A  3001               	movlw	1
  4761     0F5B  07D9               	addwf	Lcd_Write_Int@i^(0+128),f
  4762     0F5C  1803               	skipnc
  4763     0F5D  0ADA               	incf	(Lcd_Write_Int@i+1)^(0+128),f
  4764     0F5E  3000               	movlw	0
  4765     0F5F  07DA               	addwf	(Lcd_Write_Int@i+1)^(0+128),f
  4766     0F60                     l2193:
  4767                           
  4768                           ;../00-Librerie.X/lcd.c: 138:     buffer[i] = '\0';
  4769     0F60  0859               	movf	Lcd_Write_Int@i^(0+128),w
  4770     0F61  3EA0               	addlw	(low (Lcd_Write_Int@buffer| 0))& (0+255)
  4771     0F62  0084               	movwf	4
  4772     0F63  1383               	bcf	3,7	;select IRP bank1
  4773     0F64  0180               	clrf	0
  4774     0F65                     l2195:
  4775                           
  4776                           ;../00-Librerie.X/lcd.c: 140:     for (int t = 0; t < i / 2; t++) {
  4777     0F65  01D7               	clrf	Lcd_Write_Int@t^(0+128)
  4778     0F66  01D8               	clrf	(Lcd_Write_Int@t+1)^(0+128)
  4779     0F67  2FCA               	goto	l2201
  4780     0F68                     l2197:
  4781                           
  4782                           ;../00-Librerie.X/lcd.c: 141:         buffer[t] ^= buffer[i - t - 1];
  4783     0F68  30A0               	movlw	(low (Lcd_Write_Int@buffer| 0))& (0+255)
  4784     0F69  1283               	bcf	3,5	;RP0=0, select bank0
  4785     0F6A  1303               	bcf	3,6	;RP1=0, select bank0
  4786     0F6B  00C6               	movwf	??_Lcd_Write_Int
  4787     0F6C  1683               	bsf	3,5	;RP0=1, select bank1
  4788     0F6D  1303               	bcf	3,6	;RP1=0, select bank1
  4789     0F6E  0857               	movf	Lcd_Write_Int@t^(0+128),w
  4790     0F6F  1283               	bcf	3,5	;RP0=0, select bank0
  4791     0F70  1303               	bcf	3,6	;RP1=0, select bank0
  4792     0F71  02C6               	subwf	??_Lcd_Write_Int,f
  4793     0F72  1683               	bsf	3,5	;RP0=1, select bank1
  4794     0F73  1303               	bcf	3,6	;RP1=0, select bank1
  4795     0F74  0859               	movf	Lcd_Write_Int@i^(0+128),w
  4796     0F75  1283               	bcf	3,5	;RP0=0, select bank0
  4797     0F76  1303               	bcf	3,6	;RP1=0, select bank0
  4798     0F77  0746               	addwf	??_Lcd_Write_Int,w
  4799     0F78  00C7               	movwf	??_Lcd_Write_Int+1
  4800     0F79  0847               	movf	??_Lcd_Write_Int+1,w
  4801     0F7A  3EFF               	addlw	255
  4802     0F7B  0084               	movwf	4
  4803     0F7C  1383               	bcf	3,7	;select IRP bank0
  4804     0F7D  0800               	movf	0,w
  4805     0F7E  00C8               	movwf	??_Lcd_Write_Int+2
  4806     0F7F  1683               	bsf	3,5	;RP0=1, select bank1
  4807     0F80  1303               	bcf	3,6	;RP1=0, select bank1
  4808     0F81  0857               	movf	Lcd_Write_Int@t^(0+128),w
  4809     0F82  3EA0               	addlw	(low (Lcd_Write_Int@buffer| 0))& (0+255)
  4810     0F83  0084               	movwf	4
  4811     0F84  1283               	bcf	3,5	;RP0=0, select bank0
  4812     0F85  1303               	bcf	3,6	;RP1=0, select bank0
  4813     0F86  0848               	movf	??_Lcd_Write_Int+2,w
  4814     0F87  0680               	xorwf	0,f
  4815                           
  4816                           ;../00-Librerie.X/lcd.c: 142:         buffer[i - t - 1] ^= buffer[t];
  4817     0F88  1683               	bsf	3,5	;RP0=1, select bank1
  4818     0F89  1303               	bcf	3,6	;RP1=0, select bank1
  4819     0F8A  0857               	movf	Lcd_Write_Int@t^(0+128),w
  4820     0F8B  3EA0               	addlw	(low (Lcd_Write_Int@buffer| 0))& (0+255)
  4821     0F8C  0084               	movwf	4
  4822     0F8D  0800               	movf	0,w
  4823     0F8E  1283               	bcf	3,5	;RP0=0, select bank0
  4824     0F8F  1303               	bcf	3,6	;RP1=0, select bank0
  4825     0F90  00C6               	movwf	??_Lcd_Write_Int
  4826     0F91  30A0               	movlw	(low (Lcd_Write_Int@buffer| 0))& (0+255)
  4827     0F92  00C7               	movwf	??_Lcd_Write_Int+1
  4828     0F93  1683               	bsf	3,5	;RP0=1, select bank1
  4829     0F94  1303               	bcf	3,6	;RP1=0, select bank1
  4830     0F95  0857               	movf	Lcd_Write_Int@t^(0+128),w
  4831     0F96  1283               	bcf	3,5	;RP0=0, select bank0
  4832     0F97  1303               	bcf	3,6	;RP1=0, select bank0
  4833     0F98  02C7               	subwf	??_Lcd_Write_Int+1,f
  4834     0F99  1683               	bsf	3,5	;RP0=1, select bank1
  4835     0F9A  1303               	bcf	3,6	;RP1=0, select bank1
  4836     0F9B  0859               	movf	Lcd_Write_Int@i^(0+128),w
  4837     0F9C  1283               	bcf	3,5	;RP0=0, select bank0
  4838     0F9D  1303               	bcf	3,6	;RP1=0, select bank0
  4839     0F9E  0747               	addwf	??_Lcd_Write_Int+1,w
  4840     0F9F  00C8               	movwf	??_Lcd_Write_Int+2
  4841     0FA0  0848               	movf	??_Lcd_Write_Int+2,w
  4842     0FA1  3EFF               	addlw	255
  4843     0FA2  0084               	movwf	4
  4844     0FA3  0846               	movf	??_Lcd_Write_Int,w
  4845     0FA4  0680               	xorwf	0,f
  4846                           
  4847                           ;../00-Librerie.X/lcd.c: 143:         buffer[t] ^= buffer[i - t - 1];
  4848     0FA5  30A0               	movlw	(low (Lcd_Write_Int@buffer| 0))& (0+255)
  4849     0FA6  00C6               	movwf	??_Lcd_Write_Int
  4850     0FA7  1683               	bsf	3,5	;RP0=1, select bank1
  4851     0FA8  1303               	bcf	3,6	;RP1=0, select bank1
  4852     0FA9  0857               	movf	Lcd_Write_Int@t^(0+128),w
  4853     0FAA  1283               	bcf	3,5	;RP0=0, select bank0
  4854     0FAB  1303               	bcf	3,6	;RP1=0, select bank0
  4855     0FAC  02C6               	subwf	??_Lcd_Write_Int,f
  4856     0FAD  1683               	bsf	3,5	;RP0=1, select bank1
  4857     0FAE  1303               	bcf	3,6	;RP1=0, select bank1
  4858     0FAF  0859               	movf	Lcd_Write_Int@i^(0+128),w
  4859     0FB0  1283               	bcf	3,5	;RP0=0, select bank0
  4860     0FB1  1303               	bcf	3,6	;RP1=0, select bank0
  4861     0FB2  0746               	addwf	??_Lcd_Write_Int,w
  4862     0FB3  00C7               	movwf	??_Lcd_Write_Int+1
  4863     0FB4  0847               	movf	??_Lcd_Write_Int+1,w
  4864     0FB5  3EFF               	addlw	255
  4865     0FB6  0084               	movwf	4
  4866     0FB7  0800               	movf	0,w
  4867     0FB8  00C8               	movwf	??_Lcd_Write_Int+2
  4868     0FB9  1683               	bsf	3,5	;RP0=1, select bank1
  4869     0FBA  1303               	bcf	3,6	;RP1=0, select bank1
  4870     0FBB  0857               	movf	Lcd_Write_Int@t^(0+128),w
  4871     0FBC  3EA0               	addlw	(low (Lcd_Write_Int@buffer| 0))& (0+255)
  4872     0FBD  0084               	movwf	4
  4873     0FBE  1283               	bcf	3,5	;RP0=0, select bank0
  4874     0FBF  1303               	bcf	3,6	;RP1=0, select bank0
  4875     0FC0  0848               	movf	??_Lcd_Write_Int+2,w
  4876     0FC1  0680               	xorwf	0,f
  4877     0FC2                     l2199:
  4878                           
  4879                           ;../00-Librerie.X/lcd.c: 144:     }
  4880     0FC2  3001               	movlw	1
  4881     0FC3  1683               	bsf	3,5	;RP0=1, select bank1
  4882     0FC4  1303               	bcf	3,6	;RP1=0, select bank1
  4883     0FC5  07D7               	addwf	Lcd_Write_Int@t^(0+128),f
  4884     0FC6  1803               	skipnc
  4885     0FC7  0AD8               	incf	(Lcd_Write_Int@t+1)^(0+128),f
  4886     0FC8  3000               	movlw	0
  4887     0FC9  07D8               	addwf	(Lcd_Write_Int@t+1)^(0+128),f
  4888     0FCA                     l2201:
  4889     0FCA  3002               	movlw	2
  4890     0FCB  00F0               	movwf	___awdiv@divisor
  4891     0FCC  3000               	movlw	0
  4892     0FCD  00F1               	movwf	___awdiv@divisor+1
  4893     0FCE  085A               	movf	(Lcd_Write_Int@i+1)^(0+128),w
  4894     0FCF  00F3               	movwf	___awdiv@dividend+1
  4895     0FD0  0859               	movf	Lcd_Write_Int@i^(0+128),w
  4896     0FD1  00F2               	movwf	___awdiv@dividend
  4897     0FD2  120A  158A  23C3  120A  158A  	fcall	___awdiv
  4898     0FD7  1683               	bsf	3,5	;RP0=1, select bank1
  4899     0FD8  1303               	bcf	3,6	;RP1=0, select bank1
  4900     0FD9  0858               	movf	(Lcd_Write_Int@t+1)^(0+128),w
  4901     0FDA  3A80               	xorlw	128
  4902     0FDB  1283               	bcf	3,5	;RP0=0, select bank0
  4903     0FDC  1303               	bcf	3,6	;RP1=0, select bank0
  4904     0FDD  00C6               	movwf	??_Lcd_Write_Int
  4905     0FDE  0871               	movf	?___awdiv+1,w
  4906     0FDF  3A80               	xorlw	128
  4907     0FE0  0246               	subwf	??_Lcd_Write_Int,w
  4908     0FE1  1D03               	skipz
  4909     0FE2  2FE7               	goto	u3085
  4910     0FE3  0870               	movf	?___awdiv,w
  4911     0FE4  1683               	bsf	3,5	;RP0=1, select bank1
  4912     0FE5  1303               	bcf	3,6	;RP1=0, select bank1
  4913     0FE6  0257               	subwf	Lcd_Write_Int@t^(0+128),w
  4914     0FE7                     u3085:
  4915     0FE7  1C03               	skipc
  4916     0FE8  2FEA               	goto	u3081
  4917     0FE9  2FEB               	goto	u3080
  4918     0FEA                     u3081:
  4919     0FEA  2F68               	goto	l2197
  4920     0FEB                     u3080:
  4921     0FEB                     l2203:
  4922                           
  4923                           ;../00-Librerie.X/lcd.c: 146:     if (n == 0) {
  4924     0FEB  1683               	bsf	3,5	;RP0=1, select bank1
  4925     0FEC  1303               	bcf	3,6	;RP1=0, select bank1
  4926     0FED  0855               	movf	Lcd_Write_Int@n^(0+128),w
  4927     0FEE  0456               	iorwf	(Lcd_Write_Int@n+1)^(0+128),w
  4928     0FEF  1D03               	btfss	3,2
  4929     0FF0  2FF2               	goto	u3091
  4930     0FF1  2FF3               	goto	u3090
  4931     0FF2                     u3091:
  4932     0FF2  2FF6               	goto	l2209
  4933     0FF3                     u3090:
  4934     0FF3                     l2205:
  4935                           
  4936                           ;../00-Librerie.X/lcd.c: 147:         buffer[0] = '0';
  4937     0FF3  3030               	movlw	48
  4938     0FF4  00A0               	movwf	Lcd_Write_Int@buffer^(0+128)
  4939     0FF5                     l2207:
  4940                           
  4941                           ;../00-Librerie.X/lcd.c: 148:         buffer[1] = '\0';
  4942     0FF5  01A1               	clrf	(Lcd_Write_Int@buffer^(0+128)+1)
  4943     0FF6                     l2209:
  4944                           
  4945                           ;../00-Librerie.X/lcd.c: 151:     Lcd_Write_String(buffer);
  4946     0FF6  30A0               	movlw	(low (Lcd_Write_Int@buffer| 0))& (0+255)
  4947     0FF7  00F5               	movwf	Lcd_Write_String@a
  4948     0FF8  3000               	movlw	0
  4949     0FF9  00F6               	movwf	Lcd_Write_String@a+1
  4950     0FFA  120A  158A  22D8  120A  158A  	fcall	_Lcd_Write_String
  4951     0FFF                     l132:
  4952     0FFF  0008               	return
  4953     1000                     __end_of_Lcd_Write_Int:
  4954                           
  4955                           	psect	text10
  4956     0A9E                     __ptext10:	
  4957 ;; *************** function ___lwmod *****************
  4958 ;; Defined at:
  4959 ;;		line 5 in file "C:\Program Files\Microchip\xc8\v2.40\pic\sources\c90\common\lwmod.c"
  4960 ;; Parameters:    Size  Location     Type
  4961 ;;  divisor         2    0[COMMON] unsigned int 
  4962 ;;  dividend        2    2[COMMON] unsigned int 
  4963 ;; Auto vars:     Size  Location     Type
  4964 ;;  counter         1    5[COMMON] unsigned char 
  4965 ;; Return value:  Size  Location     Type
  4966 ;;                  2    0[COMMON] unsigned int 
  4967 ;; Registers used:
  4968 ;;		wreg, status,2, status,0
  4969 ;; Tracked objects:
  4970 ;;		On entry : 0/0
  4971 ;;		On exit  : 0/0
  4972 ;;		Unchanged: 0/0
  4973 ;; Data sizes:     COMMON   BANK0   BANK1   BANK3   BANK2
  4974 ;;      Params:         4       0       0       0       0
  4975 ;;      Locals:         1       0       0       0       0
  4976 ;;      Temps:          1       0       0       0       0
  4977 ;;      Totals:         6       0       0       0       0
  4978 ;;Total ram usage:        6 bytes
  4979 ;; Hardware stack levels used: 1
  4980 ;; This function calls:
  4981 ;;		Nothing
  4982 ;; This function is called by:
  4983 ;;		_Lcd_Write_Int
  4984 ;; This function uses a non-reentrant model
  4985 ;;
  4986                           
  4987     0A9E                     ___lwmod:	
  4988                           ;psect for function ___lwmod
  4989                           
  4990     0A9E                     l1933:	
  4991                           ;incstack = 0
  4992                           ; Regs used in ___lwmod: [wreg+status,2+status,0]
  4993                           
  4994     0A9E  0870               	movf	___lwmod@divisor,w
  4995     0A9F  0471               	iorwf	___lwmod@divisor+1,w
  4996     0AA0  1903               	btfsc	3,2
  4997     0AA1  2AA3               	goto	u2561
  4998     0AA2  2AA4               	goto	u2560
  4999     0AA3                     u2561:
  5000     0AA3  2AD3               	goto	l1951
  5001     0AA4                     u2560:
  5002     0AA4                     l1935:
  5003     0AA4  01F5               	clrf	___lwmod@counter
  5004     0AA5  0AF5               	incf	___lwmod@counter,f
  5005     0AA6  2AB2               	goto	l1941
  5006     0AA7                     l1937:
  5007     0AA7  3001               	movlw	1
  5008     0AA8                     u2575:
  5009     0AA8  1003               	clrc
  5010     0AA9  0DF0               	rlf	___lwmod@divisor,f
  5011     0AAA  0DF1               	rlf	___lwmod@divisor+1,f
  5012     0AAB  3EFF               	addlw	-1
  5013     0AAC  1D03               	skipz
  5014     0AAD  2AA8               	goto	u2575
  5015     0AAE                     l1939:
  5016     0AAE  3001               	movlw	1
  5017     0AAF  00F4               	movwf	??___lwmod
  5018     0AB0  0874               	movf	??___lwmod,w
  5019     0AB1  07F5               	addwf	___lwmod@counter,f
  5020     0AB2                     l1941:
  5021     0AB2  1FF1               	btfss	___lwmod@divisor+1,7
  5022     0AB3  2AB5               	goto	u2581
  5023     0AB4  2AB6               	goto	u2580
  5024     0AB5                     u2581:
  5025     0AB5  2AA7               	goto	l1937
  5026     0AB6                     u2580:
  5027     0AB6                     l1943:
  5028     0AB6  0871               	movf	___lwmod@divisor+1,w
  5029     0AB7  0273               	subwf	___lwmod@dividend+1,w
  5030     0AB8  1D03               	skipz
  5031     0AB9  2ABC               	goto	u2595
  5032     0ABA  0870               	movf	___lwmod@divisor,w
  5033     0ABB  0272               	subwf	___lwmod@dividend,w
  5034     0ABC                     u2595:
  5035     0ABC  1C03               	skipc
  5036     0ABD  2ABF               	goto	u2591
  5037     0ABE  2AC0               	goto	u2590
  5038     0ABF                     u2591:
  5039     0ABF  2AC6               	goto	l1947
  5040     0AC0                     u2590:
  5041     0AC0                     l1945:
  5042     0AC0  0870               	movf	___lwmod@divisor,w
  5043     0AC1  02F2               	subwf	___lwmod@dividend,f
  5044     0AC2  0871               	movf	___lwmod@divisor+1,w
  5045     0AC3  1C03               	skipc
  5046     0AC4  03F3               	decf	___lwmod@dividend+1,f
  5047     0AC5  02F3               	subwf	___lwmod@dividend+1,f
  5048     0AC6                     l1947:
  5049     0AC6  3001               	movlw	1
  5050     0AC7                     u2605:
  5051     0AC7  1003               	clrc
  5052     0AC8  0CF1               	rrf	___lwmod@divisor+1,f
  5053     0AC9  0CF0               	rrf	___lwmod@divisor,f
  5054     0ACA  3EFF               	addlw	-1
  5055     0ACB  1D03               	skipz
  5056     0ACC  2AC7               	goto	u2605
  5057     0ACD                     l1949:
  5058     0ACD  3001               	movlw	1
  5059     0ACE  02F5               	subwf	___lwmod@counter,f
  5060     0ACF  1D03               	btfss	3,2
  5061     0AD0  2AD2               	goto	u2611
  5062     0AD1  2AD3               	goto	u2610
  5063     0AD2                     u2611:
  5064     0AD2  2AB6               	goto	l1943
  5065     0AD3                     u2610:
  5066     0AD3                     l1951:
  5067     0AD3  0873               	movf	___lwmod@dividend+1,w
  5068     0AD4  00F1               	movwf	?___lwmod+1
  5069     0AD5  0872               	movf	___lwmod@dividend,w
  5070     0AD6  00F0               	movwf	?___lwmod
  5071     0AD7                     l535:
  5072     0AD7  0008               	return
  5073     0AD8                     __end_of___lwmod:
  5074                           
  5075                           	psect	text11
  5076     0B1A                     __ptext11:	
  5077 ;; *************** function ___lwdiv *****************
  5078 ;; Defined at:
  5079 ;;		line 5 in file "C:\Program Files\Microchip\xc8\v2.40\pic\sources\c90\common\lwdiv.c"
  5080 ;; Parameters:    Size  Location     Type
  5081 ;;  divisor         2    0[COMMON] unsigned int 
  5082 ;;  dividend        2    2[COMMON] unsigned int 
  5083 ;; Auto vars:     Size  Location     Type
  5084 ;;  quotient        2    5[COMMON] unsigned int 
  5085 ;;  counter         1    7[COMMON] unsigned char 
  5086 ;; Return value:  Size  Location     Type
  5087 ;;                  2    0[COMMON] unsigned int 
  5088 ;; Registers used:
  5089 ;;		wreg, status,2, status,0
  5090 ;; Tracked objects:
  5091 ;;		On entry : 0/0
  5092 ;;		On exit  : 0/0
  5093 ;;		Unchanged: 0/0
  5094 ;; Data sizes:     COMMON   BANK0   BANK1   BANK3   BANK2
  5095 ;;      Params:         4       0       0       0       0
  5096 ;;      Locals:         3       0       0       0       0
  5097 ;;      Temps:          1       0       0       0       0
  5098 ;;      Totals:         8       0       0       0       0
  5099 ;;Total ram usage:        8 bytes
  5100 ;; Hardware stack levels used: 1
  5101 ;; This function calls:
  5102 ;;		Nothing
  5103 ;; This function is called by:
  5104 ;;		_Lcd_Write_Int
  5105 ;; This function uses a non-reentrant model
  5106 ;;
  5107                           
  5108     0B1A                     ___lwdiv:	
  5109                           ;psect for function ___lwdiv
  5110                           
  5111     0B1A                     l1907:	
  5112                           ;incstack = 0
  5113                           ; Regs used in ___lwdiv: [wreg+status,2+status,0]
  5114                           
  5115     0B1A  01F5               	clrf	___lwdiv@quotient
  5116     0B1B  01F6               	clrf	___lwdiv@quotient+1
  5117     0B1C                     l1909:
  5118     0B1C  0870               	movf	___lwdiv@divisor,w
  5119     0B1D  0471               	iorwf	___lwdiv@divisor+1,w
  5120     0B1E  1903               	btfsc	3,2
  5121     0B1F  2B21               	goto	u2491
  5122     0B20  2B22               	goto	u2490
  5123     0B21                     u2491:
  5124     0B21  2B59               	goto	l1929
  5125     0B22                     u2490:
  5126     0B22                     l1911:
  5127     0B22  01F7               	clrf	___lwdiv@counter
  5128     0B23  0AF7               	incf	___lwdiv@counter,f
  5129     0B24  2B30               	goto	l1917
  5130     0B25                     l1913:
  5131     0B25  3001               	movlw	1
  5132     0B26                     u2505:
  5133     0B26  1003               	clrc
  5134     0B27  0DF0               	rlf	___lwdiv@divisor,f
  5135     0B28  0DF1               	rlf	___lwdiv@divisor+1,f
  5136     0B29  3EFF               	addlw	-1
  5137     0B2A  1D03               	skipz
  5138     0B2B  2B26               	goto	u2505
  5139     0B2C                     l1915:
  5140     0B2C  3001               	movlw	1
  5141     0B2D  00F4               	movwf	??___lwdiv
  5142     0B2E  0874               	movf	??___lwdiv,w
  5143     0B2F  07F7               	addwf	___lwdiv@counter,f
  5144     0B30                     l1917:
  5145     0B30  1FF1               	btfss	___lwdiv@divisor+1,7
  5146     0B31  2B33               	goto	u2511
  5147     0B32  2B34               	goto	u2510
  5148     0B33                     u2511:
  5149     0B33  2B25               	goto	l1913
  5150     0B34                     u2510:
  5151     0B34                     l1919:
  5152     0B34  3001               	movlw	1
  5153     0B35                     u2525:
  5154     0B35  1003               	clrc
  5155     0B36  0DF5               	rlf	___lwdiv@quotient,f
  5156     0B37  0DF6               	rlf	___lwdiv@quotient+1,f
  5157     0B38  3EFF               	addlw	-1
  5158     0B39  1D03               	skipz
  5159     0B3A  2B35               	goto	u2525
  5160     0B3B  0871               	movf	___lwdiv@divisor+1,w
  5161     0B3C  0273               	subwf	___lwdiv@dividend+1,w
  5162     0B3D  1D03               	skipz
  5163     0B3E  2B41               	goto	u2535
  5164     0B3F  0870               	movf	___lwdiv@divisor,w
  5165     0B40  0272               	subwf	___lwdiv@dividend,w
  5166     0B41                     u2535:
  5167     0B41  1C03               	skipc
  5168     0B42  2B44               	goto	u2531
  5169     0B43  2B45               	goto	u2530
  5170     0B44                     u2531:
  5171     0B44  2B4C               	goto	l1925
  5172     0B45                     u2530:
  5173     0B45                     l1921:
  5174     0B45  0870               	movf	___lwdiv@divisor,w
  5175     0B46  02F2               	subwf	___lwdiv@dividend,f
  5176     0B47  0871               	movf	___lwdiv@divisor+1,w
  5177     0B48  1C03               	skipc
  5178     0B49  03F3               	decf	___lwdiv@dividend+1,f
  5179     0B4A  02F3               	subwf	___lwdiv@dividend+1,f
  5180     0B4B                     l1923:
  5181     0B4B  1475               	bsf	___lwdiv@quotient,0
  5182     0B4C                     l1925:
  5183     0B4C  3001               	movlw	1
  5184     0B4D                     u2545:
  5185     0B4D  1003               	clrc
  5186     0B4E  0CF1               	rrf	___lwdiv@divisor+1,f
  5187     0B4F  0CF0               	rrf	___lwdiv@divisor,f
  5188     0B50  3EFF               	addlw	-1
  5189     0B51  1D03               	skipz
  5190     0B52  2B4D               	goto	u2545
  5191     0B53                     l1927:
  5192     0B53  3001               	movlw	1
  5193     0B54  02F7               	subwf	___lwdiv@counter,f
  5194     0B55  1D03               	btfss	3,2
  5195     0B56  2B58               	goto	u2551
  5196     0B57  2B59               	goto	u2550
  5197     0B58                     u2551:
  5198     0B58  2B34               	goto	l1919
  5199     0B59                     u2550:
  5200     0B59                     l1929:
  5201     0B59  0876               	movf	___lwdiv@quotient+1,w
  5202     0B5A  00F1               	movwf	?___lwdiv+1
  5203     0B5B  0875               	movf	___lwdiv@quotient,w
  5204     0B5C  00F0               	movwf	?___lwdiv
  5205     0B5D                     l525:
  5206     0B5D  0008               	return
  5207     0B5E                     __end_of___lwdiv:
  5208                           
  5209                           	psect	text12
  5210     0BC3                     __ptext12:	
  5211 ;; *************** function ___awdiv *****************
  5212 ;; Defined at:
  5213 ;;		line 5 in file "C:\Program Files\Microchip\xc8\v2.40\pic\sources\c90\common\awdiv.c"
  5214 ;; Parameters:    Size  Location     Type
  5215 ;;  divisor         2    0[COMMON] int 
  5216 ;;  dividend        2    2[COMMON] int 
  5217 ;; Auto vars:     Size  Location     Type
  5218 ;;  quotient        2    7[COMMON] int 
  5219 ;;  sign            1    6[COMMON] unsigned char 
  5220 ;;  counter         1    5[COMMON] unsigned char 
  5221 ;; Return value:  Size  Location     Type
  5222 ;;                  2    0[COMMON] int 
  5223 ;; Registers used:
  5224 ;;		wreg, status,2, status,0
  5225 ;; Tracked objects:
  5226 ;;		On entry : 0/0
  5227 ;;		On exit  : 0/0
  5228 ;;		Unchanged: 0/0
  5229 ;; Data sizes:     COMMON   BANK0   BANK1   BANK3   BANK2
  5230 ;;      Params:         4       0       0       0       0
  5231 ;;      Locals:         4       0       0       0       0
  5232 ;;      Temps:          1       0       0       0       0
  5233 ;;      Totals:         9       0       0       0       0
  5234 ;;Total ram usage:        9 bytes
  5235 ;; Hardware stack levels used: 1
  5236 ;; This function calls:
  5237 ;;		Nothing
  5238 ;; This function is called by:
  5239 ;;		_Lcd_Write_Int
  5240 ;; This function uses a non-reentrant model
  5241 ;;
  5242                           
  5243     0BC3                     ___awdiv:	
  5244                           ;psect for function ___awdiv
  5245                           
  5246     0BC3                     l1843:	
  5247                           ;incstack = 0
  5248                           ; Regs used in ___awdiv: [wreg+status,2+status,0]
  5249                           
  5250     0BC3  01F6               	clrf	___awdiv@sign
  5251     0BC4                     l1845:
  5252     0BC4  1FF1               	btfss	___awdiv@divisor+1,7
  5253     0BC5  2BC7               	goto	u2321
  5254     0BC6  2BC8               	goto	u2320
  5255     0BC7                     u2321:
  5256     0BC7  2BCF               	goto	l1851
  5257     0BC8                     u2320:
  5258     0BC8                     l1847:
  5259     0BC8  09F0               	comf	___awdiv@divisor,f
  5260     0BC9  09F1               	comf	___awdiv@divisor+1,f
  5261     0BCA  0AF0               	incf	___awdiv@divisor,f
  5262     0BCB  1903               	skipnz
  5263     0BCC  0AF1               	incf	___awdiv@divisor+1,f
  5264     0BCD                     l1849:
  5265     0BCD  01F6               	clrf	___awdiv@sign
  5266     0BCE  0AF6               	incf	___awdiv@sign,f
  5267     0BCF                     l1851:
  5268     0BCF  1FF3               	btfss	___awdiv@dividend+1,7
  5269     0BD0  2BD2               	goto	u2331
  5270     0BD1  2BD3               	goto	u2330
  5271     0BD2                     u2331:
  5272     0BD2  2BDC               	goto	l1857
  5273     0BD3                     u2330:
  5274     0BD3                     l1853:
  5275     0BD3  09F2               	comf	___awdiv@dividend,f
  5276     0BD4  09F3               	comf	___awdiv@dividend+1,f
  5277     0BD5  0AF2               	incf	___awdiv@dividend,f
  5278     0BD6  1903               	skipnz
  5279     0BD7  0AF3               	incf	___awdiv@dividend+1,f
  5280     0BD8                     l1855:
  5281     0BD8  3001               	movlw	1
  5282     0BD9  00F4               	movwf	??___awdiv
  5283     0BDA  0874               	movf	??___awdiv,w
  5284     0BDB  06F6               	xorwf	___awdiv@sign,f
  5285     0BDC                     l1857:
  5286     0BDC  01F7               	clrf	___awdiv@quotient
  5287     0BDD  01F8               	clrf	___awdiv@quotient+1
  5288     0BDE                     l1859:
  5289     0BDE  0870               	movf	___awdiv@divisor,w
  5290     0BDF  0471               	iorwf	___awdiv@divisor+1,w
  5291     0BE0  1903               	btfsc	3,2
  5292     0BE1  2BE3               	goto	u2341
  5293     0BE2  2BE4               	goto	u2340
  5294     0BE3                     u2341:
  5295     0BE3  2C1B               	goto	l1879
  5296     0BE4                     u2340:
  5297     0BE4                     l1861:
  5298     0BE4  01F5               	clrf	___awdiv@counter
  5299     0BE5  0AF5               	incf	___awdiv@counter,f
  5300     0BE6  2BF2               	goto	l1867
  5301     0BE7                     l1863:
  5302     0BE7  3001               	movlw	1
  5303     0BE8                     u2355:
  5304     0BE8  1003               	clrc
  5305     0BE9  0DF0               	rlf	___awdiv@divisor,f
  5306     0BEA  0DF1               	rlf	___awdiv@divisor+1,f
  5307     0BEB  3EFF               	addlw	-1
  5308     0BEC  1D03               	skipz
  5309     0BED  2BE8               	goto	u2355
  5310     0BEE                     l1865:
  5311     0BEE  3001               	movlw	1
  5312     0BEF  00F4               	movwf	??___awdiv
  5313     0BF0  0874               	movf	??___awdiv,w
  5314     0BF1  07F5               	addwf	___awdiv@counter,f
  5315     0BF2                     l1867:
  5316     0BF2  1FF1               	btfss	___awdiv@divisor+1,7
  5317     0BF3  2BF5               	goto	u2361
  5318     0BF4  2BF6               	goto	u2360
  5319     0BF5                     u2361:
  5320     0BF5  2BE7               	goto	l1863
  5321     0BF6                     u2360:
  5322     0BF6                     l1869:
  5323     0BF6  3001               	movlw	1
  5324     0BF7                     u2375:
  5325     0BF7  1003               	clrc
  5326     0BF8  0DF7               	rlf	___awdiv@quotient,f
  5327     0BF9  0DF8               	rlf	___awdiv@quotient+1,f
  5328     0BFA  3EFF               	addlw	-1
  5329     0BFB  1D03               	skipz
  5330     0BFC  2BF7               	goto	u2375
  5331     0BFD  0871               	movf	___awdiv@divisor+1,w
  5332     0BFE  0273               	subwf	___awdiv@dividend+1,w
  5333     0BFF  1D03               	skipz
  5334     0C00  2C03               	goto	u2385
  5335     0C01  0870               	movf	___awdiv@divisor,w
  5336     0C02  0272               	subwf	___awdiv@dividend,w
  5337     0C03                     u2385:
  5338     0C03  1C03               	skipc
  5339     0C04  2C06               	goto	u2381
  5340     0C05  2C07               	goto	u2380
  5341     0C06                     u2381:
  5342     0C06  2C0E               	goto	l1875
  5343     0C07                     u2380:
  5344     0C07                     l1871:
  5345     0C07  0870               	movf	___awdiv@divisor,w
  5346     0C08  02F2               	subwf	___awdiv@dividend,f
  5347     0C09  0871               	movf	___awdiv@divisor+1,w
  5348     0C0A  1C03               	skipc
  5349     0C0B  03F3               	decf	___awdiv@dividend+1,f
  5350     0C0C  02F3               	subwf	___awdiv@dividend+1,f
  5351     0C0D                     l1873:
  5352     0C0D  1477               	bsf	___awdiv@quotient,0
  5353     0C0E                     l1875:
  5354     0C0E  3001               	movlw	1
  5355     0C0F                     u2395:
  5356     0C0F  1003               	clrc
  5357     0C10  0CF1               	rrf	___awdiv@divisor+1,f
  5358     0C11  0CF0               	rrf	___awdiv@divisor,f
  5359     0C12  3EFF               	addlw	-1
  5360     0C13  1D03               	skipz
  5361     0C14  2C0F               	goto	u2395
  5362     0C15                     l1877:
  5363     0C15  3001               	movlw	1
  5364     0C16  02F5               	subwf	___awdiv@counter,f
  5365     0C17  1D03               	btfss	3,2
  5366     0C18  2C1A               	goto	u2401
  5367     0C19  2C1B               	goto	u2400
  5368     0C1A                     u2401:
  5369     0C1A  2BF6               	goto	l1869
  5370     0C1B                     u2400:
  5371     0C1B                     l1879:
  5372     0C1B  0876               	movf	___awdiv@sign,w
  5373     0C1C  1903               	btfsc	3,2
  5374     0C1D  2C1F               	goto	u2411
  5375     0C1E  2C20               	goto	u2410
  5376     0C1F                     u2411:
  5377     0C1F  2C25               	goto	l1883
  5378     0C20                     u2410:
  5379     0C20                     l1881:
  5380     0C20  09F7               	comf	___awdiv@quotient,f
  5381     0C21  09F8               	comf	___awdiv@quotient+1,f
  5382     0C22  0AF7               	incf	___awdiv@quotient,f
  5383     0C23  1903               	skipnz
  5384     0C24  0AF8               	incf	___awdiv@quotient+1,f
  5385     0C25                     l1883:
  5386     0C25  0878               	movf	___awdiv@quotient+1,w
  5387     0C26  00F1               	movwf	?___awdiv+1
  5388     0C27  0877               	movf	___awdiv@quotient,w
  5389     0C28  00F0               	movwf	?___awdiv
  5390     0C29                     l406:
  5391     0C29  0008               	return
  5392     0C2A                     __end_of___awdiv:
  5393                           
  5394                           	psect	text13
  5395     0AD8                     __ptext13:	
  5396 ;; *************** function _Lcd_Write_String *****************
  5397 ;; Defined at:
  5398 ;;		line 105 in file "../00-Librerie.X/lcd.c"
  5399 ;; Parameters:    Size  Location     Type
  5400 ;;  a               2    5[COMMON] PTR unsigned char 
  5401 ;;		 -> Lcd_Write_Int@buffer(50), STR_1(3), 
  5402 ;; Auto vars:     Size  Location     Type
  5403 ;;  i               2   10[COMMON] int 
  5404 ;; Return value:  Size  Location     Type
  5405 ;;                  1    wreg      void 
  5406 ;; Registers used:
  5407 ;;		wreg, fsr0l, fsr0h, status,2, status,0, btemp+1, pclath, cstack
  5408 ;; Tracked objects:
  5409 ;;		On entry : 0/0
  5410 ;;		On exit  : 0/0
  5411 ;;		Unchanged: 0/0
  5412 ;; Data sizes:     COMMON   BANK0   BANK1   BANK3   BANK2
  5413 ;;      Params:         2       0       0       0       0
  5414 ;;      Locals:         2       0       0       0       0
  5415 ;;      Temps:          3       0       0       0       0
  5416 ;;      Totals:         7       0       0       0       0
  5417 ;;Total ram usage:        7 bytes
  5418 ;; Hardware stack levels used: 1
  5419 ;; Hardware stack levels required when called: 2
  5420 ;; This function calls:
  5421 ;;		_Lcd_Write_Char
  5422 ;; This function is called by:
  5423 ;;		_main
  5424 ;;		_Lcd_Write_Int
  5425 ;; This function uses a non-reentrant model
  5426 ;;
  5427                           
  5428     0AD8                     _Lcd_Write_String:	
  5429                           ;psect for function _Lcd_Write_String
  5430                           
  5431     0AD8                     l1821:	
  5432                           ;incstack = 0
  5433                           ; Regs used in _Lcd_Write_String: [wreg-fsr0h+status,2+status,0+btemp+1+pclath+cstack]
  5434                           
  5435                           
  5436                           ;../00-Librerie.X/lcd.c: 106:     int i;;../00-Librerie.X/lcd.c: 107:     for (i = 0; a[
      +                          i] != '\0'; i++)
  5437     0AD8  01FA               	clrf	Lcd_Write_String@i
  5438     0AD9  01FB               	clrf	Lcd_Write_String@i+1
  5439     0ADA  2AFD               	goto	l1827
  5440     0ADB                     l1823:
  5441                           
  5442                           ;../00-Librerie.X/lcd.c: 108:         Lcd_Write_Char(a[i]);
  5443     0ADB  087A               	movf	Lcd_Write_String@i,w
  5444     0ADC  0775               	addwf	Lcd_Write_String@a,w
  5445     0ADD  00F8               	movwf	??_Lcd_Write_String+1
  5446     0ADE  0876               	movf	Lcd_Write_String@a+1,w
  5447     0ADF  00F7               	movwf	??_Lcd_Write_String
  5448     0AE0  1803               	skipnc
  5449     0AE1  0AF7               	incf	??_Lcd_Write_String,f
  5450     0AE2  1FFA               	btfss	Lcd_Write_String@i,7
  5451     0AE3  2AE5               	goto	u2290
  5452     0AE4  03F7               	decf	??_Lcd_Write_String,f
  5453     0AE5                     u2290:
  5454     0AE5  0877               	movf	??_Lcd_Write_String,w
  5455     0AE6  00F9               	movwf	??_Lcd_Write_String+2
  5456     0AE7  0879               	movf	??_Lcd_Write_String+2,w
  5457     0AE8  1283               	bcf	3,5	;RP0=0, select bank0
  5458     0AE9  1303               	bcf	3,6	;RP1=0, select bank0
  5459     0AEA  00FF               	movwf	btemp+1
  5460     0AEB  0878               	movf	??_Lcd_Write_String+1,w
  5461     0AEC  0084               	movwf	4
  5462     0AED  120A  158A  2000  120A  158A  	fcall	stringtab
  5463     0AF2  120A  158A  2269  120A  158A  	fcall	_Lcd_Write_Char
  5464     0AF7                     l1825:
  5465     0AF7  3001               	movlw	1
  5466     0AF8  07FA               	addwf	Lcd_Write_String@i,f
  5467     0AF9  1803               	skipnc
  5468     0AFA  0AFB               	incf	Lcd_Write_String@i+1,f
  5469     0AFB  3000               	movlw	0
  5470     0AFC  07FB               	addwf	Lcd_Write_String@i+1,f
  5471     0AFD                     l1827:
  5472     0AFD  087A               	movf	Lcd_Write_String@i,w
  5473     0AFE  0775               	addwf	Lcd_Write_String@a,w
  5474     0AFF  00F8               	movwf	??_Lcd_Write_String+1
  5475     0B00  0876               	movf	Lcd_Write_String@a+1,w
  5476     0B01  00F7               	movwf	??_Lcd_Write_String
  5477     0B02  1803               	skipnc
  5478     0B03  0AF7               	incf	??_Lcd_Write_String,f
  5479     0B04  1FFA               	btfss	Lcd_Write_String@i,7
  5480     0B05  2B07               	goto	u2300
  5481     0B06  03F7               	decf	??_Lcd_Write_String,f
  5482     0B07                     u2300:
  5483     0B07  0877               	movf	??_Lcd_Write_String,w
  5484     0B08  00F9               	movwf	??_Lcd_Write_String+2
  5485     0B09  0879               	movf	??_Lcd_Write_String+2,w
  5486     0B0A  1283               	bcf	3,5	;RP0=0, select bank0
  5487     0B0B  1303               	bcf	3,6	;RP1=0, select bank0
  5488     0B0C  00FF               	movwf	btemp+1
  5489     0B0D  0878               	movf	??_Lcd_Write_String+1,w
  5490     0B0E  0084               	movwf	4
  5491     0B0F  120A  158A  2000  120A  158A  	fcall	stringtab
  5492     0B14  3A00               	xorlw	0
  5493     0B15  1D03               	skipz
  5494     0B16  2B18               	goto	u2311
  5495     0B17  2B19               	goto	u2310
  5496     0B18                     u2311:
  5497     0B18  2ADB               	goto	l1823
  5498     0B19                     u2310:
  5499     0B19                     l111:
  5500     0B19  0008               	return
  5501     0B1A                     __end_of_Lcd_Write_String:
  5502                           
  5503                           	psect	text14
  5504     0A69                     __ptext14:	
  5505 ;; *************** function _Lcd_Write_Char *****************
  5506 ;; Defined at:
  5507 ;;		line 88 in file "../00-Librerie.X/lcd.c"
  5508 ;; Parameters:    Size  Location     Type
  5509 ;;  a               1    wreg     unsigned char 
  5510 ;; Auto vars:     Size  Location     Type
  5511 ;;  a               1    4[COMMON] unsigned char 
  5512 ;;  y               1    3[COMMON] unsigned char 
  5513 ;;  temp            1    2[COMMON] unsigned char 
  5514 ;; Return value:  Size  Location     Type
  5515 ;;                  1    wreg      void 
  5516 ;; Registers used:
  5517 ;;		wreg, status,2, status,0, pclath, cstack
  5518 ;; Tracked objects:
  5519 ;;		On entry : 0/0
  5520 ;;		On exit  : 0/0
  5521 ;;		Unchanged: 0/0
  5522 ;; Data sizes:     COMMON   BANK0   BANK1   BANK3   BANK2
  5523 ;;      Params:         0       0       0       0       0
  5524 ;;      Locals:         3       0       0       0       0
  5525 ;;      Temps:          1       0       0       0       0
  5526 ;;      Totals:         4       0       0       0       0
  5527 ;;Total ram usage:        4 bytes
  5528 ;; Hardware stack levels used: 1
  5529 ;; Hardware stack levels required when called: 1
  5530 ;; This function calls:
  5531 ;;		_Lcd_Port
  5532 ;; This function is called by:
  5533 ;;		_Lcd_Write_String
  5534 ;; This function uses a non-reentrant model
  5535 ;;
  5536                           
  5537     0A69                     _Lcd_Write_Char:	
  5538                           ;psect for function _Lcd_Write_Char
  5539                           
  5540                           
  5541                           ;incstack = 0
  5542                           ; Regs used in _Lcd_Write_Char: [wreg+status,2+status,0+pclath+cstack]
  5543                           ;Lcd_Write_Char@a stored from wreg
  5544     0A69  00F4               	movwf	Lcd_Write_Char@a
  5545     0A6A                     l1593:
  5546                           
  5547                           ;../00-Librerie.X/lcd.c: 89:     char temp, y;;../00-Librerie.X/lcd.c: 90:     temp = a 
      +                          & 0x0F;
  5548     0A6A  0874               	movf	Lcd_Write_Char@a,w
  5549     0A6B  390F               	andlw	15
  5550     0A6C  00F2               	movwf	Lcd_Write_Char@temp
  5551                           
  5552                           ;../00-Librerie.X/lcd.c: 91:     y = a & 0xF0;
  5553     0A6D  0874               	movf	Lcd_Write_Char@a,w
  5554     0A6E  39F0               	andlw	240
  5555     0A6F  00F3               	movwf	Lcd_Write_Char@y
  5556     0A70                     l1595:
  5557                           
  5558                           ;../00-Librerie.X/lcd.c: 93:     PORTEbits.RE2 = 1;
  5559     0A70  1283               	bcf	3,5	;RP0=0, select bank0
  5560     0A71  1303               	bcf	3,6	;RP1=0, select bank0
  5561     0A72  1509               	bsf	9,2	;volatile
  5562     0A73                     l1597:
  5563                           
  5564                           ;../00-Librerie.X/lcd.c: 95:     Lcd_Port(y >> 4);
  5565     0A73  0873               	movf	Lcd_Write_Char@y,w
  5566     0A74  00F1               	movwf	??_Lcd_Write_Char
  5567     0A75  3004               	movlw	4
  5568     0A76                     u1795:
  5569     0A76  1003               	clrc
  5570     0A77  0CF1               	rrf	??_Lcd_Write_Char,f
  5571     0A78  3EFF               	addlw	-1
  5572     0A79  1D03               	skipz
  5573     0A7A  2A76               	goto	u1795
  5574     0A7B  0871               	movf	??_Lcd_Write_Char,w
  5575     0A7C  120A  158A  21CD  120A  158A  	fcall	_Lcd_Port
  5576     0A81                     l1599:
  5577                           
  5578                           ;../00-Librerie.X/lcd.c: 96:     PORTEbits.RE1 = 1;
  5579     0A81  1283               	bcf	3,5	;RP0=0, select bank0
  5580     0A82  1303               	bcf	3,6	;RP1=0, select bank0
  5581     0A83  1489               	bsf	9,1	;volatile
  5582     0A84                     l1601:
  5583                           
  5584                           ;../00-Librerie.X/lcd.c: 97:     _delay((unsigned long)((4)*(20*1000000/4000000.0)));
  5585     0A84  3006               	movlw	6
  5586     0A85  00F1               	movwf	??_Lcd_Write_Char
  5587     0A86                     u3487:
  5588     0A86  0BF1               	decfsz	??_Lcd_Write_Char,f
  5589     0A87  2A86               	goto	u3487
  5590     0A88  0000               	nop
  5591     0A89                     l1603:
  5592                           
  5593                           ;../00-Librerie.X/lcd.c: 98:     PORTEbits.RE1 = 0;
  5594     0A89  1283               	bcf	3,5	;RP0=0, select bank0
  5595     0A8A  1303               	bcf	3,6	;RP1=0, select bank0
  5596     0A8B  1089               	bcf	9,1	;volatile
  5597     0A8C                     l1605:
  5598                           
  5599                           ;../00-Librerie.X/lcd.c: 99:     Lcd_Port(temp);
  5600     0A8C  0872               	movf	Lcd_Write_Char@temp,w
  5601     0A8D  120A  158A  21CD  120A  158A  	fcall	_Lcd_Port
  5602     0A92                     l1607:
  5603                           
  5604                           ;../00-Librerie.X/lcd.c: 100:     PORTEbits.RE1 = 1;
  5605     0A92  1283               	bcf	3,5	;RP0=0, select bank0
  5606     0A93  1303               	bcf	3,6	;RP1=0, select bank0
  5607     0A94  1489               	bsf	9,1	;volatile
  5608     0A95                     l1609:
  5609                           
  5610                           ;../00-Librerie.X/lcd.c: 101:     _delay((unsigned long)((4)*(20*1000000/4000000.0)));
  5611     0A95  3006               	movlw	6
  5612     0A96  00F1               	movwf	??_Lcd_Write_Char
  5613     0A97                     u3497:
  5614     0A97  0BF1               	decfsz	??_Lcd_Write_Char,f
  5615     0A98  2A97               	goto	u3497
  5616     0A99  0000               	nop
  5617     0A9A                     l1611:
  5618                           
  5619                           ;../00-Librerie.X/lcd.c: 102:     PORTEbits.RE1 = 0;
  5620     0A9A  1283               	bcf	3,5	;RP0=0, select bank0
  5621     0A9B  1303               	bcf	3,6	;RP1=0, select bank0
  5622     0A9C  1089               	bcf	9,1	;volatile
  5623     0A9D                     l105:
  5624     0A9D  0008               	return
  5625     0A9E                     __end_of_Lcd_Write_Char:
  5626                           
  5627                           	psect	text15
  5628     0B5E                     __ptext15:	
  5629 ;; *************** function _Lcd_Init *****************
  5630 ;; Defined at:
  5631 ;;		line 41 in file "../00-Librerie.X/lcd.c"
  5632 ;; Parameters:    Size  Location     Type
  5633 ;;		None
  5634 ;; Auto vars:     Size  Location     Type
  5635 ;;		None
  5636 ;; Return value:  Size  Location     Type
  5637 ;;                  1    wreg      void 
  5638 ;; Registers used:
  5639 ;;		wreg, status,2, status,0, pclath, cstack
  5640 ;; Tracked objects:
  5641 ;;		On entry : 0/0
  5642 ;;		On exit  : 0/0
  5643 ;;		Unchanged: 0/0
  5644 ;; Data sizes:     COMMON   BANK0   BANK1   BANK3   BANK2
  5645 ;;      Params:         0       0       0       0       0
  5646 ;;      Locals:         0       0       0       0       0
  5647 ;;      Temps:          2       0       0       0       0
  5648 ;;      Totals:         2       0       0       0       0
  5649 ;;Total ram usage:        2 bytes
  5650 ;; Hardware stack levels used: 1
  5651 ;; Hardware stack levels required when called: 2
  5652 ;; This function calls:
  5653 ;;		_Lcd_Cmd
  5654 ;;		_Lcd_Port
  5655 ;; This function is called by:
  5656 ;;		_main
  5657 ;; This function uses a non-reentrant model
  5658 ;;
  5659                           
  5660     0B5E                     _Lcd_Init:	
  5661                           ;psect for function _Lcd_Init
  5662                           
  5663     0B5E                     l2103:	
  5664                           ;incstack = 0
  5665                           ; Regs used in _Lcd_Init: [wreg+status,2+status,0+pclath+cstack]
  5666                           
  5667                           
  5668                           ;../00-Librerie.X/lcd.c: 42:     TRISD &= ~0xff;
  5669     0B5E  1683               	bsf	3,5	;RP0=1, select bank1
  5670     0B5F  1303               	bcf	3,6	;RP1=0, select bank1
  5671     0B60  0188               	clrf	8	;volatile
  5672     0B61                     l2105:
  5673                           
  5674                           ;../00-Librerie.X/lcd.c: 43:     TRISE &= ~0x06;
  5675     0B61  30F9               	movlw	249
  5676     0B62  00F4               	movwf	??_Lcd_Init
  5677     0B63  0874               	movf	??_Lcd_Init,w
  5678     0B64  0589               	andwf	9,f	;volatile
  5679     0B65                     l2107:
  5680                           
  5681                           ;../00-Librerie.X/lcd.c: 44:     Lcd_Port(0x00);
  5682     0B65  3000               	movlw	0
  5683     0B66  120A  158A  21CD  120A  158A  	fcall	_Lcd_Port
  5684     0B6B                     l2109:
  5685                           
  5686                           ;../00-Librerie.X/lcd.c: 45:     _delay((unsigned long)((20)*(20*1000000/4000.0)));
  5687     0B6B  3082               	movlw	130
  5688     0B6C  00F5               	movwf	??_Lcd_Init+1
  5689     0B6D  30DD               	movlw	221
  5690     0B6E  00F4               	movwf	??_Lcd_Init
  5691     0B6F                     u3507:
  5692     0B6F  0BF4               	decfsz	??_Lcd_Init,f
  5693     0B70  2B6F               	goto	u3507
  5694     0B71  0BF5               	decfsz	??_Lcd_Init+1,f
  5695     0B72  2B6F               	goto	u3507
  5696     0B73  2B74               	nop2
  5697     0B74                     l2111:
  5698                           
  5699                           ;../00-Librerie.X/lcd.c: 46:     Lcd_Cmd(0x03);
  5700     0B74  3003               	movlw	3
  5701     0B75  120A  158A  21AC  120A  158A  	fcall	_Lcd_Cmd
  5702     0B7A                     l2113:
  5703                           
  5704                           ;../00-Librerie.X/lcd.c: 47:     _delay((unsigned long)((5)*(20*1000000/4000.0)));
  5705     0B7A  3021               	movlw	33
  5706     0B7B  00F5               	movwf	??_Lcd_Init+1
  5707     0B7C  3076               	movlw	118
  5708     0B7D  00F4               	movwf	??_Lcd_Init
  5709     0B7E                     u3517:
  5710     0B7E  0BF4               	decfsz	??_Lcd_Init,f
  5711     0B7F  2B7E               	goto	u3517
  5712     0B80  0BF5               	decfsz	??_Lcd_Init+1,f
  5713     0B81  2B7E               	goto	u3517
  5714     0B82  0000               	nop
  5715     0B83                     l2115:
  5716                           
  5717                           ;../00-Librerie.X/lcd.c: 48:     Lcd_Cmd(0x03);
  5718     0B83  3003               	movlw	3
  5719     0B84  120A  158A  21AC  120A  158A  	fcall	_Lcd_Cmd
  5720     0B89                     l2117:
  5721                           
  5722                           ;../00-Librerie.X/lcd.c: 49:     _delay((unsigned long)((10)*(20*1000000/4000.0)));
  5723     0B89  3041               	movlw	65
  5724     0B8A  00F5               	movwf	??_Lcd_Init+1
  5725     0B8B  30EE               	movlw	238
  5726     0B8C  00F4               	movwf	??_Lcd_Init
  5727     0B8D                     u3527:
  5728     0B8D  0BF4               	decfsz	??_Lcd_Init,f
  5729     0B8E  2B8D               	goto	u3527
  5730     0B8F  0BF5               	decfsz	??_Lcd_Init+1,f
  5731     0B90  2B8D               	goto	u3527
  5732     0B91  0000               	nop
  5733     0B92                     l2119:
  5734                           
  5735                           ;../00-Librerie.X/lcd.c: 50:     Lcd_Cmd(0x03);
  5736     0B92  3003               	movlw	3
  5737     0B93  120A  158A  21AC  120A  158A  	fcall	_Lcd_Cmd
  5738     0B98                     l2121:
  5739                           
  5740                           ;../00-Librerie.X/lcd.c: 52:     Lcd_Cmd(0x02);
  5741     0B98  3002               	movlw	2
  5742     0B99  120A  158A  21AC  120A  158A  	fcall	_Lcd_Cmd
  5743     0B9E                     l2123:
  5744                           
  5745                           ;../00-Librerie.X/lcd.c: 54:     Lcd_Cmd(0x02);
  5746     0B9E  3002               	movlw	2
  5747     0B9F  120A  158A  21AC  120A  158A  	fcall	_Lcd_Cmd
  5748     0BA4                     l2125:
  5749                           
  5750                           ;../00-Librerie.X/lcd.c: 55:     Lcd_Cmd(0x08);
  5751     0BA4  3008               	movlw	8
  5752     0BA5  120A  158A  21AC  120A  158A  	fcall	_Lcd_Cmd
  5753     0BAA                     l2127:
  5754                           
  5755                           ;../00-Librerie.X/lcd.c: 57:     Lcd_Cmd(0x00);
  5756     0BAA  3000               	movlw	0
  5757     0BAB  120A  158A  21AC  120A  158A  	fcall	_Lcd_Cmd
  5758     0BB0                     l2129:
  5759                           
  5760                           ;../00-Librerie.X/lcd.c: 58:     Lcd_Cmd(0x0C);
  5761     0BB0  300C               	movlw	12
  5762     0BB1  120A  158A  21AC  120A  158A  	fcall	_Lcd_Cmd
  5763     0BB6                     l2131:
  5764                           
  5765                           ;../00-Librerie.X/lcd.c: 60:     Lcd_Cmd(0x00);
  5766     0BB6  3000               	movlw	0
  5767     0BB7  120A  158A  21AC  120A  158A  	fcall	_Lcd_Cmd
  5768     0BBC                     l2133:
  5769                           
  5770                           ;../00-Librerie.X/lcd.c: 61:     Lcd_Cmd(0x06);
  5771     0BBC  3006               	movlw	6
  5772     0BBD  120A  158A  21AC  120A  158A  	fcall	_Lcd_Cmd
  5773     0BC2                     l93:
  5774     0BC2  0008               	return
  5775     0BC3                     __end_of_Lcd_Init:
  5776                           
  5777                           	psect	text16
  5778     0009                     __ptext16:	
  5779 ;; *************** function _Lcd_Clear *****************
  5780 ;; Defined at:
  5781 ;;		line 64 in file "../00-Librerie.X/lcd.c"
  5782 ;; Parameters:    Size  Location     Type
  5783 ;;		None
  5784 ;; Auto vars:     Size  Location     Type
  5785 ;;		None
  5786 ;; Return value:  Size  Location     Type
  5787 ;;                  1    wreg      void 
  5788 ;; Registers used:
  5789 ;;		wreg, status,2, status,0, pclath, cstack
  5790 ;; Tracked objects:
  5791 ;;		On entry : 0/0
  5792 ;;		On exit  : 0/0
  5793 ;;		Unchanged: 0/0
  5794 ;; Data sizes:     COMMON   BANK0   BANK1   BANK3   BANK2
  5795 ;;      Params:         0       0       0       0       0
  5796 ;;      Locals:         0       0       0       0       0
  5797 ;;      Temps:          0       0       0       0       0
  5798 ;;      Totals:         0       0       0       0       0
  5799 ;;Total ram usage:        0 bytes
  5800 ;; Hardware stack levels used: 1
  5801 ;; Hardware stack levels required when called: 2
  5802 ;; This function calls:
  5803 ;;		_Lcd_Cmd
  5804 ;; This function is called by:
  5805 ;;		_main
  5806 ;; This function uses a non-reentrant model
  5807 ;;
  5808                           
  5809     0009                     _Lcd_Clear:	
  5810                           ;psect for function _Lcd_Clear
  5811                           
  5812     0009                     l2165:	
  5813                           ;incstack = 0
  5814                           ; Regs used in _Lcd_Clear: [wreg+status,2+status,0+pclath+cstack]
  5815                           
  5816                           
  5817                           ;../00-Librerie.X/lcd.c: 66:     Lcd_Cmd(0);
  5818     0009  3000               	movlw	0
  5819     000A  120A  158A  21AC  120A  118A  	fcall	_Lcd_Cmd
  5820                           
  5821                           ;../00-Librerie.X/lcd.c: 67:     Lcd_Cmd(1);
  5822     000F  3001               	movlw	1
  5823     0010  120A  158A  21AC  120A  118A  	fcall	_Lcd_Cmd
  5824     0015                     l96:
  5825     0015  0008               	return
  5826     0016                     __end_of_Lcd_Clear:
  5827                           
  5828                           	psect	text17
  5829     09AC                     __ptext17:	
  5830 ;; *************** function _Lcd_Cmd *****************
  5831 ;; Defined at:
  5832 ;;		line 29 in file "../00-Librerie.X/lcd.c"
  5833 ;; Parameters:    Size  Location     Type
  5834 ;;  a               1    wreg     unsigned char 
  5835 ;; Auto vars:     Size  Location     Type
  5836 ;;  a               1    3[COMMON] unsigned char 
  5837 ;; Return value:  Size  Location     Type
  5838 ;;                  1    wreg      void 
  5839 ;; Registers used:
  5840 ;;		wreg, status,2, status,0, pclath, cstack
  5841 ;; Tracked objects:
  5842 ;;		On entry : 0/0
  5843 ;;		On exit  : 0/0
  5844 ;;		Unchanged: 0/0
  5845 ;; Data sizes:     COMMON   BANK0   BANK1   BANK3   BANK2
  5846 ;;      Params:         0       0       0       0       0
  5847 ;;      Locals:         1       0       0       0       0
  5848 ;;      Temps:          2       0       0       0       0
  5849 ;;      Totals:         3       0       0       0       0
  5850 ;;Total ram usage:        3 bytes
  5851 ;; Hardware stack levels used: 1
  5852 ;; Hardware stack levels required when called: 1
  5853 ;; This function calls:
  5854 ;;		_Lcd_Port
  5855 ;; This function is called by:
  5856 ;;		_Lcd_Init
  5857 ;;		_Lcd_Clear
  5858 ;;		_Lcd_Set_Cursor
  5859 ;;		_Lcd_Shift_Right
  5860 ;;		_Lcd_Shift_Left
  5861 ;; This function uses a non-reentrant model
  5862 ;;
  5863                           
  5864     09AC                     _Lcd_Cmd:	
  5865                           ;psect for function _Lcd_Cmd
  5866                           
  5867                           
  5868                           ;incstack = 0
  5869                           ; Regs used in _Lcd_Cmd: [wreg+status,2+status,0+pclath+cstack]
  5870                           ;Lcd_Cmd@a stored from wreg
  5871     09AC  00F3               	movwf	Lcd_Cmd@a
  5872     09AD                     l1829:
  5873                           
  5874                           ;../00-Librerie.X/lcd.c: 30:     TRISD &= ~0xff;
  5875     09AD  1683               	bsf	3,5	;RP0=1, select bank1
  5876     09AE  1303               	bcf	3,6	;RP1=0, select bank1
  5877     09AF  0188               	clrf	8	;volatile
  5878     09B0                     l1831:
  5879                           
  5880                           ;../00-Librerie.X/lcd.c: 31:     TRISE &= ~0x06;
  5881     09B0  30F9               	movlw	249
  5882     09B1  00F1               	movwf	??_Lcd_Cmd
  5883     09B2  0871               	movf	??_Lcd_Cmd,w
  5884     09B3  0589               	andwf	9,f	;volatile
  5885     09B4                     l1833:
  5886                           
  5887                           ;../00-Librerie.X/lcd.c: 34:     PORTEbits.RE2 = 0;
  5888     09B4  1283               	bcf	3,5	;RP0=0, select bank0
  5889     09B5  1303               	bcf	3,6	;RP1=0, select bank0
  5890     09B6  1109               	bcf	9,2	;volatile
  5891     09B7                     l1835:
  5892                           
  5893                           ;../00-Librerie.X/lcd.c: 35:     Lcd_Port(a);
  5894     09B7  0873               	movf	Lcd_Cmd@a,w
  5895     09B8  120A  158A  21CD  120A  158A  	fcall	_Lcd_Port
  5896     09BD                     l1837:
  5897                           
  5898                           ;../00-Librerie.X/lcd.c: 36:     PORTEbits.RE1 = 1;
  5899     09BD  1283               	bcf	3,5	;RP0=0, select bank0
  5900     09BE  1303               	bcf	3,6	;RP1=0, select bank0
  5901     09BF  1489               	bsf	9,1	;volatile
  5902     09C0                     l1839:
  5903                           
  5904                           ;../00-Librerie.X/lcd.c: 37:     _delay((unsigned long)((4)*(20*1000000/4000.0)));
  5905     09C0  301A               	movlw	26
  5906     09C1  00F2               	movwf	??_Lcd_Cmd+1
  5907     09C2  30F8               	movlw	248
  5908     09C3  00F1               	movwf	??_Lcd_Cmd
  5909     09C4                     u3537:
  5910     09C4  0BF1               	decfsz	??_Lcd_Cmd,f
  5911     09C5  29C4               	goto	u3537
  5912     09C6  0BF2               	decfsz	??_Lcd_Cmd+1,f
  5913     09C7  29C4               	goto	u3537
  5914     09C8  0000               	nop
  5915     09C9                     l1841:
  5916                           
  5917                           ;../00-Librerie.X/lcd.c: 38:     PORTEbits.RE1 = 0;
  5918     09C9  1283               	bcf	3,5	;RP0=0, select bank0
  5919     09CA  1303               	bcf	3,6	;RP1=0, select bank0
  5920     09CB  1089               	bcf	9,1	;volatile
  5921     09CC                     l90:
  5922     09CC  0008               	return
  5923     09CD                     __end_of_Lcd_Cmd:
  5924                           
  5925                           	psect	text18
  5926     09CD                     __ptext18:	
  5927 ;; *************** function _Lcd_Port *****************
  5928 ;; Defined at:
  5929 ;;		line 14 in file "../00-Librerie.X/lcd.c"
  5930 ;; Parameters:    Size  Location     Type
  5931 ;;  a               1    wreg     unsigned char 
  5932 ;; Auto vars:     Size  Location     Type
  5933 ;;  a               1    0[COMMON] unsigned char 
  5934 ;; Return value:  Size  Location     Type
  5935 ;;                  1    wreg      void 
  5936 ;; Registers used:
  5937 ;;		wreg
  5938 ;; Tracked objects:
  5939 ;;		On entry : 0/0
  5940 ;;		On exit  : 0/0
  5941 ;;		Unchanged: 0/0
  5942 ;; Data sizes:     COMMON   BANK0   BANK1   BANK3   BANK2
  5943 ;;      Params:         0       0       0       0       0
  5944 ;;      Locals:         1       0       0       0       0
  5945 ;;      Temps:          0       0       0       0       0
  5946 ;;      Totals:         1       0       0       0       0
  5947 ;;Total ram usage:        1 bytes
  5948 ;; Hardware stack levels used: 1
  5949 ;; This function calls:
  5950 ;;		Nothing
  5951 ;; This function is called by:
  5952 ;;		_Lcd_Cmd
  5953 ;;		_Lcd_Init
  5954 ;;		_Lcd_Write_Char
  5955 ;; This function uses a non-reentrant model
  5956 ;;
  5957                           
  5958     09CD                     _Lcd_Port:	
  5959                           ;psect for function _Lcd_Port
  5960                           
  5961                           
  5962                           ;incstack = 0
  5963                           ; Regs used in _Lcd_Port: [wreg]
  5964                           ;Lcd_Port@a stored from wreg
  5965     09CD  00F0               	movwf	Lcd_Port@a
  5966     09CE                     l1583:
  5967                           
  5968                           ;../00-Librerie.X/lcd.c: 16:     if (a & 1) PORTDbits.RD4 = 1;
  5969     09CE  1C70               	btfss	Lcd_Port@a,0
  5970     09CF  29D1               	goto	u1751
  5971     09D0  29D2               	goto	u1750
  5972     09D1                     u1751:
  5973     09D1  29D6               	goto	l79
  5974     09D2                     u1750:
  5975     09D2                     l1585:
  5976     09D2  1283               	bcf	3,5	;RP0=0, select bank0
  5977     09D3  1303               	bcf	3,6	;RP1=0, select bank0
  5978     09D4  1608               	bsf	8,4	;volatile
  5979     09D5  29D9               	goto	l80
  5980     09D6                     l79:	
  5981                           ;../00-Librerie.X/lcd.c: 17:     else PORTDbits.RD4 = 0;
  5982                           
  5983     09D6  1283               	bcf	3,5	;RP0=0, select bank0
  5984     09D7  1303               	bcf	3,6	;RP1=0, select bank0
  5985     09D8  1208               	bcf	8,4	;volatile
  5986     09D9                     l80:
  5987                           
  5988                           ;../00-Librerie.X/lcd.c: 19:     if (a & 2) PORTDbits.RD5 = 1;
  5989     09D9  1CF0               	btfss	Lcd_Port@a,1
  5990     09DA  29DC               	goto	u1761
  5991     09DB  29DD               	goto	u1760
  5992     09DC                     u1761:
  5993     09DC  29DF               	goto	l81
  5994     09DD                     u1760:
  5995     09DD                     l1587:
  5996     09DD  1688               	bsf	8,5	;volatile
  5997     09DE  29E0               	goto	l82
  5998     09DF                     l81:	
  5999                           ;../00-Librerie.X/lcd.c: 20:     else PORTDbits.RD5 = 0;
  6000                           
  6001     09DF  1288               	bcf	8,5	;volatile
  6002     09E0                     l82:
  6003                           
  6004                           ;../00-Librerie.X/lcd.c: 22:     if (a & 4) PORTDbits.RD6 = 1;
  6005     09E0  1D70               	btfss	Lcd_Port@a,2
  6006     09E1  29E3               	goto	u1771
  6007     09E2  29E4               	goto	u1770
  6008     09E3                     u1771:
  6009     09E3  29E6               	goto	l83
  6010     09E4                     u1770:
  6011     09E4                     l1589:
  6012     09E4  1708               	bsf	8,6	;volatile
  6013     09E5  29E7               	goto	l84
  6014     09E6                     l83:	
  6015                           ;../00-Librerie.X/lcd.c: 23:     else PORTDbits.RD6 = 0;
  6016                           
  6017     09E6  1308               	bcf	8,6	;volatile
  6018     09E7                     l84:
  6019                           
  6020                           ;../00-Librerie.X/lcd.c: 25:     if (a & 8) PORTDbits.RD7 = 1;
  6021     09E7  1DF0               	btfss	Lcd_Port@a,3
  6022     09E8  29EA               	goto	u1781
  6023     09E9  29EB               	goto	u1780
  6024     09EA                     u1781:
  6025     09EA  29ED               	goto	l85
  6026     09EB                     u1780:
  6027     09EB                     l1591:
  6028     09EB  1788               	bsf	8,7	;volatile
  6029     09EC  29EE               	goto	l87
  6030     09ED                     l85:	
  6031                           ;../00-Librerie.X/lcd.c: 26:     else PORTDbits.RD7 = 0;
  6032                           
  6033     09ED  1388               	bcf	8,7	;volatile
  6034     09EE                     l87:
  6035     09EE  0008               	return
  6036     09EF                     __end_of_Lcd_Port:
  6037                           
  6038                           	psect	text19
  6039     0A3A                     __ptext19:	
  6040 ;; *************** function _Adc_Read *****************
  6041 ;; Defined at:
  6042 ;;		line 10 in file "../00-Librerie.X/Adc.c"
  6043 ;; Parameters:    Size  Location     Type
  6044 ;;  channel         1    wreg     unsigned char 
  6045 ;; Auto vars:     Size  Location     Type
  6046 ;;  channel         1    4[COMMON] unsigned char 
  6047 ;; Return value:  Size  Location     Type
  6048 ;;                  2    0[COMMON] int 
  6049 ;; Registers used:
  6050 ;;		wreg, status,2, status,0
  6051 ;; Tracked objects:
  6052 ;;		On entry : 0/0
  6053 ;;		On exit  : 0/0
  6054 ;;		Unchanged: 0/0
  6055 ;; Data sizes:     COMMON   BANK0   BANK1   BANK3   BANK2
  6056 ;;      Params:         2       0       0       0       0
  6057 ;;      Locals:         1       0       0       0       0
  6058 ;;      Temps:          2       0       0       0       0
  6059 ;;      Totals:         5       0       0       0       0
  6060 ;;Total ram usage:        5 bytes
  6061 ;; Hardware stack levels used: 1
  6062 ;; This function calls:
  6063 ;;		Nothing
  6064 ;; This function is called by:
  6065 ;;		_main
  6066 ;; This function uses a non-reentrant model
  6067 ;;
  6068                           
  6069     0A3A                     _Adc_Read:	
  6070                           ;psect for function _Adc_Read
  6071                           
  6072                           
  6073                           ;incstack = 0
  6074                           ; Regs used in _Adc_Read: [wreg+status,2+status,0]
  6075                           ;Adc_Read@channel stored from wreg
  6076     0A3A  00F4               	movwf	Adc_Read@channel
  6077     0A3B                     l2135:
  6078                           
  6079                           ;../00-Librerie.X/Adc.c: 11:     TRISA |= 0x01;
  6080     0A3B  1683               	bsf	3,5	;RP0=1, select bank1
  6081     0A3C  1303               	bcf	3,6	;RP1=0, select bank1
  6082     0A3D  1405               	bsf	5,0	;volatile
  6083     0A3E                     l2137:
  6084                           
  6085                           ;../00-Librerie.X/Adc.c: 13:     ADCON0 &= ~0x38;
  6086     0A3E  30C7               	movlw	199
  6087     0A3F  00F2               	movwf	??_Adc_Read
  6088     0A40  0872               	movf	??_Adc_Read,w
  6089     0A41  1283               	bcf	3,5	;RP0=0, select bank0
  6090     0A42  1303               	bcf	3,6	;RP1=0, select bank0
  6091     0A43  059F               	andwf	31,f	;volatile
  6092                           
  6093                           ;../00-Librerie.X/Adc.c: 15:     ADCON0 |= channel << 3;
  6094     0A44  0874               	movf	Adc_Read@channel,w	;volatile
  6095     0A45  00F2               	movwf	??_Adc_Read
  6096     0A46  3002               	movlw	2
  6097     0A47                     u2995:
  6098     0A47  1003               	clrc
  6099     0A48  0DF2               	rlf	??_Adc_Read,f
  6100     0A49  3EFF               	addlw	-1
  6101     0A4A  1D03               	skipz
  6102     0A4B  2A47               	goto	u2995
  6103     0A4C  1003               	clrc
  6104     0A4D  0D72               	rlf	??_Adc_Read,w
  6105     0A4E  00F3               	movwf	??_Adc_Read+1
  6106     0A4F  0873               	movf	??_Adc_Read+1,w
  6107     0A50  049F               	iorwf	31,f	;volatile
  6108     0A51                     l2139:
  6109                           
  6110                           ;../00-Librerie.X/Adc.c: 17:     _delay((unsigned long)((1)*(20*10000000/4000.0)));
  6111     0A51  3041               	movlw	65
  6112     0A52  00F3               	movwf	??_Adc_Read+1
  6113     0A53  30EE               	movlw	238
  6114     0A54  00F2               	movwf	??_Adc_Read
  6115     0A55                     u3547:
  6116     0A55  0BF2               	decfsz	??_Adc_Read,f
  6117     0A56  2A55               	goto	u3547
  6118     0A57  0BF3               	decfsz	??_Adc_Read+1,f
  6119     0A58  2A55               	goto	u3547
  6120     0A59  0000               	nop
  6121     0A5A                     l2141:
  6122                           
  6123                           ;../00-Librerie.X/Adc.c: 19:     ADCON0 |= 1 << 2;
  6124     0A5A  1283               	bcf	3,5	;RP0=0, select bank0
  6125     0A5B  1303               	bcf	3,6	;RP1=0, select bank0
  6126     0A5C  151F               	bsf	31,2	;volatile
  6127     0A5D                     l63:	
  6128                           ;../00-Librerie.X/Adc.c: 21:     while(ADCON0 & 0x04) { }
  6129                           
  6130     0A5D  191F               	btfsc	31,2	;volatile
  6131     0A5E  2A60               	goto	u3001
  6132     0A5F  2A61               	goto	u3000
  6133     0A60                     u3001:
  6134     0A60  2A5D               	goto	l63
  6135     0A61                     u3000:
  6136     0A61                     l65:
  6137                           
  6138                           ;../00-Librerie.X/Adc.c: 23:     ADCON0 |= 0x04;
  6139     0A61  151F               	bsf	31,2	;volatile
  6140     0A62                     l2143:
  6141                           
  6142                           ;../00-Librerie.X/Adc.c: 25:     return ADRESL + (ADRESH << 8);
  6143     0A62  081E               	movf	30,w	;volatile
  6144     0A63  00F1               	movwf	?_Adc_Read+1
  6145     0A64  1683               	bsf	3,5	;RP0=1, select bank1
  6146     0A65  1303               	bcf	3,6	;RP1=0, select bank1
  6147     0A66  081E               	movf	30,w	;volatile
  6148     0A67  00F0               	movwf	?_Adc_Read
  6149     0A68                     l66:
  6150     0A68  0008               	return
  6151     0A69                     __end_of_Adc_Read:
  6152                           
  6153                           	psect	text20
  6154     09A3                     __ptext20:	
  6155 ;; *************** function _Adc_Init *****************
  6156 ;; Defined at:
  6157 ;;		line 5 in file "../00-Librerie.X/Adc.c"
  6158 ;; Parameters:    Size  Location     Type
  6159 ;;		None
  6160 ;; Auto vars:     Size  Location     Type
  6161 ;;		None
  6162 ;; Return value:  Size  Location     Type
  6163 ;;                  1    wreg      void 
  6164 ;; Registers used:
  6165 ;;		wreg
  6166 ;; Tracked objects:
  6167 ;;		On entry : 0/0
  6168 ;;		On exit  : 0/0
  6169 ;;		Unchanged: 0/0
  6170 ;; Data sizes:     COMMON   BANK0   BANK1   BANK3   BANK2
  6171 ;;      Params:         0       0       0       0       0
  6172 ;;      Locals:         0       0       0       0       0
  6173 ;;      Temps:          0       0       0       0       0
  6174 ;;      Totals:         0       0       0       0       0
  6175 ;;Total ram usage:        0 bytes
  6176 ;; Hardware stack levels used: 1
  6177 ;; This function calls:
  6178 ;;		Nothing
  6179 ;; This function is called by:
  6180 ;;		_main
  6181 ;; This function uses a non-reentrant model
  6182 ;;
  6183                           
  6184     09A3                     _Adc_Init:	
  6185                           ;psect for function _Adc_Init
  6186                           
  6187     09A3                     l2101:	
  6188                           ;incstack = 0
  6189                           ; Regs used in _Adc_Init: [wreg]
  6190                           
  6191                           
  6192                           ;../00-Librerie.X/Adc.c: 6:     ADCON0 = 0x81;
  6193     09A3  3081               	movlw	129
  6194     09A4  1283               	bcf	3,5	;RP0=0, select bank0
  6195     09A5  1303               	bcf	3,6	;RP1=0, select bank0
  6196     09A6  009F               	movwf	31	;volatile
  6197                           
  6198                           ;../00-Librerie.X/Adc.c: 7:     ADCON1 = 0x80;
  6199     09A7  3080               	movlw	128
  6200     09A8  1683               	bsf	3,5	;RP0=1, select bank1
  6201     09A9  1303               	bcf	3,6	;RP1=0, select bank1
  6202     09AA  009F               	movwf	31	;volatile
  6203     09AB                     l60:
  6204     09AB  0008               	return
  6205     09AC                     __end_of_Adc_Init:
  6206     007E                     btemp	set	126	;btemp
  6207     007E                     wtemp0	set	126
  6208                           
  6209                           	psect	idloc
  6210                           
  6211                           ;Config register IDLOC0 @ 0x2000
  6212                           ;	unspecified, using default values
  6213     2000                     	org	8192
  6214     2000  3FFF               	dw	16383
  6215                           
  6216                           ;Config register IDLOC1 @ 0x2001
  6217                           ;	unspecified, using default values
  6218     2001                     	org	8193
  6219     2001  3FFF               	dw	16383
  6220                           
  6221                           ;Config register IDLOC2 @ 0x2002
  6222                           ;	unspecified, using default values
  6223     2002                     	org	8194
  6224     2002  3FFF               	dw	16383
  6225                           
  6226                           ;Config register IDLOC3 @ 0x2003
  6227                           ;	unspecified, using default values
  6228     2003                     	org	8195
  6229     2003  3FFF               	dw	16383
  6230                           
  6231                           	psect	config
  6232                           
  6233                           ;Config register CONFIG @ 0x2007
  6234                           ;	Oscillator Selection bits
  6235                           ;	FOSC = HS, HS oscillator
  6236                           ;	Watchdog Timer Enable bit
  6237                           ;	WDTE = OFF, WDT disabled
  6238                           ;	Power-up Timer Enable bit
  6239                           ;	PWRTE = ON, PWRT enabled
  6240                           ;	Brown-out Reset Enable bit
  6241                           ;	BOREN = ON, BOR enabled
  6242                           ;	Low-Voltage (Single-Supply) In-Circuit Serial Programming Enable bit
  6243                           ;	LVP = ON, RB3/PGM pin has PGM function; low-voltage programming enabled
  6244                           ;	Data EEPROM Memory Code Protection bit
  6245                           ;	CPD = OFF, Data EEPROM code protection off
  6246                           ;	Flash Program Memory Write Enable bits
  6247                           ;	WRT = OFF, Write protection off; all program memory may be written to by EECON control
  6248                           ;	In-Circuit Debugger Mode bit
  6249                           ;	DEBUG = 0x1, unprogrammed default
  6250                           ;	Flash Program Memory Code Protection bit
  6251                           ;	CP = OFF, Code protection off
  6252     2007                     	org	8199
  6253     2007  3FF2               	dw	16370

Data Sizes:
    Strings     3
    Constant    22
    Data        0
    BSS         9
    Persistent  0
    Stack       0

Auto Spaces:
    Space          Size  Autos    Used
    COMMON           14     14      14
    BANK0            80     74      75
    BANK1            80     59      67
    BANK3            96      0       0
    BANK2            96      0       0

Pointer List with Targets:

    Lcd_Write_String@a	PTR unsigned char  size(2) Largest target is 50
		 -> Lcd_Write_Int@buffer(BANK1[50]), STR_1(CODE[3]), 


Critical Paths under _main in COMMON

    _main->___xxtofl
    _pid_controller->___xxtofl
    ___flmul->___xxtofl
    ___fltol->___xxtofl
    _Lcd_Write_Int->___xxtofl
    _Lcd_Write_String->_Lcd_Write_Char
    _Lcd_Write_Char->_Lcd_Port
    _Lcd_Init->_Lcd_Cmd
    _Lcd_Clear->_Lcd_Cmd
    _Lcd_Cmd->_Lcd_Port

Critical Paths under _main in BANK0

    _main->_pid_controller
    _pid_controller->___flsub
    ___flsub->___fladd
    ___fladd->___flmul
    ___fltol->___flmul
    _Lcd_Write_Int->___fltol

Critical Paths under _main in BANK1

    _main->_Lcd_Write_Int

Critical Paths under _main in BANK3

    None.

Critical Paths under _main in BANK2

    None.

Call Graph Tables:

 ---------------------------------------------------------------------------------
 (Depth) Function   	        Calls       Base Space   Used Autos Params    Refs
 ---------------------------------------------------------------------------------
 (0) _main                                                 5     5      0   17068
                                             70 BANK0      4     4      0
                           _Adc_Init
                           _Adc_Read
                          _Lcd_Clear
                           _Lcd_Init
                      _Lcd_Write_Int
                   _Lcd_Write_String
                            ___flmul
                            ___fltol
                           ___xxtofl
                     _pid_controller
 ---------------------------------------------------------------------------------
 (1) _pid_controller                                      44    16     28   10158
                                             54 BANK0     16    16      0
                                              0 BANK1     28     0     28
                            ___fladd
                             ___flge
                            ___flmul
                            ___flsub
                           ___xxtofl (ARG)
 ---------------------------------------------------------------------------------
 (2) ___flsub                                              8     0      8    3245
                                             46 BANK0      8     0      8
                            ___fladd
 ---------------------------------------------------------------------------------
 (3) ___fladd                                             20    12      8    2592
                                             26 BANK0     20    12      8
                            ___flmul (ARG)
 ---------------------------------------------------------------------------------
 (2) ___flmul                                             26    18      8    2873
                                              0 BANK0     26    18      8
                          __Umul8_16
                           ___xxtofl (ARG)
 ---------------------------------------------------------------------------------
 (3) __Umul8_16                                            9     7      2     799
                                              0 COMMON     9     7      2
 ---------------------------------------------------------------------------------
 (2) ___flge                                              12     4      8     486
                                              0 COMMON    12     4      8
 ---------------------------------------------------------------------------------
 (1) ___xxtofl                                            14    10      4     474
                                              0 COMMON    14    10      4
 ---------------------------------------------------------------------------------
 (1) ___fltol                                             10     6      4     305
                                             26 BANK0     10     6      4
                            ___flmul (ARG)
                           ___xxtofl (ARG)
 ---------------------------------------------------------------------------------
 (1) _Lcd_Write_Int                                       64    62      2    2373
                                             36 BANK0      5     3      2
                                              0 BANK1     59    59      0
                   _Lcd_Write_String
                            ___awdiv
                            ___flmul (ARG)
                            ___fltol (ARG)
                            ___lwdiv
                            ___lwmod
                           ___xxtofl (ARG)
 ---------------------------------------------------------------------------------
 (2) ___lwmod                                              6     2      4     311
                                              0 COMMON     6     2      4
 ---------------------------------------------------------------------------------
 (2) ___lwdiv                                              8     4      4     314
                                              0 COMMON     8     4      4
 ---------------------------------------------------------------------------------
 (2) ___awdiv                                              9     5      4     452
                                              0 COMMON     9     5      4
 ---------------------------------------------------------------------------------
 (1) _Lcd_Write_String                                     7     5      2     420
                                              5 COMMON     7     5      2
                     _Lcd_Write_Char
 ---------------------------------------------------------------------------------
 (2) _Lcd_Write_Char                                       4     4      0     178
                                              1 COMMON     4     4      0
                           _Lcd_Port
 ---------------------------------------------------------------------------------
 (1) _Lcd_Init                                             2     2      0     198
                                              4 COMMON     2     2      0
                            _Lcd_Cmd
                           _Lcd_Port
 ---------------------------------------------------------------------------------
 (1) _Lcd_Clear                                            0     0      0     110
                            _Lcd_Cmd
 ---------------------------------------------------------------------------------
 (2) _Lcd_Cmd                                              3     3      0     110
                                              1 COMMON     3     3      0
                           _Lcd_Port
 ---------------------------------------------------------------------------------
 (3) _Lcd_Port                                             1     1      0      88
                                              0 COMMON     1     1      0
 ---------------------------------------------------------------------------------
 (1) _Adc_Read                                             5     3      2      22
                                              0 COMMON     5     3      2
 ---------------------------------------------------------------------------------
 (1) _Adc_Init                                             0     0      0       0
 ---------------------------------------------------------------------------------
 Estimated maximum stack depth 3
 ---------------------------------------------------------------------------------

 Call Graph Graphs:

 _main (ROOT)
   _Adc_Init
   _Adc_Read
   _Lcd_Clear
     _Lcd_Cmd
       _Lcd_Port
   _Lcd_Init
     _Lcd_Cmd
     _Lcd_Port
   _Lcd_Write_Int
     _Lcd_Write_String
       _Lcd_Write_Char
         _Lcd_Port
     ___awdiv
     ___flmul (ARG)
       __Umul8_16
       ___xxtofl (ARG)
     ___fltol (ARG)
       ___flmul (ARG)
       ___xxtofl (ARG)
     ___lwdiv (ARG)
     ___lwmod (ARG)
     ___xxtofl (ARG)
   _Lcd_Write_String
   ___flmul
   ___fltol
   ___xxtofl
   _pid_controller
     ___fladd
       ___flmul (ARG)
     ___flge
     ___flmul
     ___flsub
       ___fladd
     ___xxtofl (ARG)

 Address spaces:
Name               Size   Autos  Total    Cost      Usage
BITCOMMON            E      0       0       0        0.0%
EEDATA             100      0       0       0        0.0%
NULL                 0      0       0       0        0.0%
CODE                 0      0       0       0        0.0%
COMMON               E      E       E       1      100.0%
BITSFR0              0      0       0       1        0.0%
SFR0                 0      0       0       1        0.0%
BITSFR1              0      0       0       2        0.0%
SFR1                 0      0       0       2        0.0%
STACK                0      0       0       2        0.0%
ABS                  0      0      9C       3        0.0%
BITBANK0            50      0       0       4        0.0%
BITSFR3              0      0       0       4        0.0%
SFR3                 0      0       0       4        0.0%
BANK0               50     4A      4B       5       93.8%
BITSFR2              0      0       0       5        0.0%
SFR2                 0      0       0       5        0.0%
BITBANK1            50      0       0       6        0.0%
BANK1               50     3B      43       7       83.8%
BITBANK3            60      0       0       8        0.0%
BANK3               60      0       0       9        0.0%
BITBANK2            60      0       0      10        0.0%
BANK2               60      0       0      11        0.0%
DATA                 0      0      9C      12        0.0%


Microchip Technology PIC Macro Assembler V2.40 build 20220703182018 
Symbol Table                                                                                   Wed Jan 18 22:37:39 2023

                                   pc 0002                                    l60 09AB  
                                  l63 0A5D                                    l80 09D9  
                                  l65 0A61                                    l81 09DF  
                                  l66 0A68                                    l82 09E0  
                                  l90 09CC                                    l83 09E6  
                                  l84 09E7                                    l85 09ED  
                                  l93 0BC2                                    l87 09EE  
                                  l79 09D6                                    l96 0015  
__end_ofSevenSeg_Write@displayPattern 0826          SevenSeg_Write@displayPattern 081C  
                        ___awdiv@sign 0076                                    fsr 0004  
                 __Umul8_16@word_mpld 0076                                   l111 0B19  
                                 l105 0A9D                                   l132 0FFF  
                                 l406 0C29                                   l430 0D2A  
                                 l431 0D43                                   l249 0251  
                                 l427 0CBE                                   l700 0DD1  
                                 l525 0B5D                                   l446 0C8C  
                                 l550 0330                                   l535 0AD7  
                                 l439 0CA1                                   l552 0309  
                                 l449 0CA1                                   l642 07EE  
                                 l546 02AD                                   l571 041D  
                                 l580 047D                                   l661 0A27  
                                 l654 07E2                                   l663 0A39  
                                 l567 03F9                                   l559 04A9  
                                 l648 075E                                   l592 0A12  
                                 l577 043F                                   l692 0DA9  
                                 l588 049F                                   l589 04A9  
                                 l686 0D66                                   l688 0DFB  
                                 l699 0DC5                                   _PR2 0092  
                                 fsr0 0004                                   indf 0000  
                        ___flmul@aexp 0032                          ___flmul@bexp 0033  
                        ___flmul@sign 002D                          ___flmul@temp 0038  
                        ___flmul@prod 0034                          ___fltol@exp1 0043  
                                l2001 0508                                  l2011 0547  
                                l2101 09A3                                  l2021 05CE  
                                l2013 0563                                  l2005 0511  
                                l2111 0B74                                  l2103 0B5E  
                                l2031 063B                                  l2023 05DC  
                                l2015 058D                                  l2007 051F  
                                l2121 0B98                                  l2113 0B7A  
                                l2105 0B61                                  l2201 0FCA  
                                l2041 06E2                                  l2033 0658  
                                l2025 05F9                                  l2017 05A9  
                                l2009 052C                                  l2131 0BB6  
                                l2123 0B9E                                  l2115 0B83  
                                l2107 0B65                                  l2203 0FEB  
                                l2211 0C2A                                  l2051 072E  
                                l2043 070A                                  l2035 0683  
                                l2027 0607                                  l2019 05C5  
                                l2141 0A5A                                  l2133 0BBC  
                                l2125 0BA4                                  l2117 0B89  
                                l2109 0B6B                                  l2205 0FF3  
                                l2221 0C52                                  l2213 0C35  
                                l2061 0743                                  l2053 072F  
                                l2045 0713                                  l2037 0691  
                                l2029 0624                                  l2301 0E19  
                                l2143 0A62                                  l2135 0A3B  
                                l2127 0BAA                                  l2119 0B92  
                                l2207 0FF5                                  l2223 0C5A  
                                l2071 0768                                  l2063 0747  
                                l2055 0738                                  l2047 0721  
                                l2039 06BC                                  l2151 019D  
                                l2311 0E33                                  l2303 0E1C  
                                l2137 0A3E                                  l2129 0BB0  
                                l1601 0A84                                  l2209 0FF6  
                                l2241 0C81                                  l2233 0C68  
                                l2225 0C5C                                  l2217 0C3E  
                                l2081 07A6                                  l2073 0776  
                                l2065 075B                                  l2049 072A  
                                l2057 073E                                  l2161 0239  
                                l2153 01DC                                  l2321 0ED6  
                                l2313 0E85                                  l2305 0E1C  
                                l2139 0A51                                  l1611 0A9A  
                                l1603 0A89                                  l2171 0EF1  
                                l2243 0C91                                  l2227 0C60  
                                l2235 0C7A                                  l2219 0C51  
                                l2251 0D4E                                  l2091 07D8  
                                l2083 07B1                                  l2075 077A  
                                l2059 0742                                  l2155 01DD  
                                l2147 0016                                  l2315 0E8A  
                                l2307 0E28                                  l2165 0009  
                                l1605 0A8C                                  l2181 0F2E  
                                l2173 0EF8                                  l2245 0C96  
                                l2261 0D7A                                  l2253 0D5E  
                                l2093 07DC                                  l2085 07C0  
                                l2077 0793                                  l2069 0763  
                                l1701 0316                                  l1621 0260  
                                l1613 0252                                  l2157 01FA  
                                l2149 0182                                  l2317 0E90  
                                l1607 0A92                                  l2191 0F5A  
                                l2183 0F36                                  l2175 0EFD  
                                l2167 0EE3                                  l2271 0DB0  
                                l2263 0D87                                  l2255 0D6E  
                                l2247 0D45                                  l2095 07DD  
                                l2087 07CA                                  l2079 0799  
                                l1711 0334                                  l1703 031A  
                                l1623 0265                                  l1631 0275  
                                l1615 0257                                  l2159 0239  
                                l2319 0ED0                                  l1609 0A95  
                                l2193 0F60                                  l2185 0F49  
                                l2177 0F02                                  l2169 0EEF  
                                l2281 0DE9                                  l2273 0DBB  
                                l2265 0D8E                                  l2249 0D4A  
                                l2097 07E6                                  l2089 07CC  
                                l1801 049B                                  l1721 035D  
                                l1713 0339                                  l1705 031B  
                                l1641 028B                                  l1633 027D  
                                l1625 026A                                  l1617 025B  
                                l2195 0F65                                  l2187 0F4F  
                                l2179 0F1A                                  l2283 0DEE  
                                l2275 0DBF                                  l2267 0D92  
                                l2259 0D77                                  l1811 0A1D  
                                l1803 04A4                                  l1731 036F  
                                l1723 0361                                  l1707 0324  
                                l1651 02A2                                  l1643 028F  
                                l1635 0280                                  l1627 0272  
                                l1619 025F                                  l2291 0DFC  
                                l1821 0AD8                                  l2197 0F68  
                                l2189 0F54                                  l2285 0DF2  
                                l2277 0DC9                                  l2269 0DA0  
                                l1901 0D40                                  l1813 0A21  
                                l1805 04A8                                  l1741 03D7  
                                l1733 0378                                  l1725 0368  
                                l1717 0342                                  l1709 0328  
                                l1661 02BB                                  l1653 02A3  
                                l1645 0290                                  l1637 0286  
                                l1629 0273                                  l2293 0E0A  
                                l1591 09EB                                  l1583 09CE  
                                l1831 09B0                                  l1823 0ADB  
                                l1911 0B22                                  l2199 0FC2  
                                l2287 0DF3                                  l2279 0DD3  
                                l1903 0D42                                  l1815 0A30  
                                l1807 0A14                                  l1743 03DC  
                                l1727 036A                                  l1719 0359  
                                l1735 037D                                  l1671 02C5  
                                l1663 02BD                                  l1647 0295  
                                l1655 02A5                                  l1639 0287  
                                l2295 0E0C                                  l1585 09D2  
                                l1841 09C9                                  l1833 09B4  
                                l1593 0A6A                                  l1825 0AF7  
                                l1921 0B45                                  l1913 0B25  
                                l1817 0A35                                  l1809 0A16  
                                l1761 0424                                  l1753 040F  
                                l1737 0393                                  l1745 03EB  
                                l1729 036E                                  l1681 02CF  
                                l1673 02C7                                  l1665 02BF  
                                l1657 02B3                                  l1649 029A  
                                l2297 0E11                                  l1587 09DD  
                                l1835 09B7                                  l1595 0A70  
                                l1827 0AFD                                  l1851 0BCF  
                                l1843 0BC3                                  l1923 0B4B  
                                l1915 0B2C                                  l1907 0B1A  
                                l1771 0432                                  l1763 0426  
                                l1755 0418                                  l1747 0401  
                                l1739 03D1                                  l1683 02D1  
                                l1675 02C9                                  l1667 02C1  
                                l1659 02B7                                  l1691 02D9  
                                l2299 0E16                                  l1589 09E4  
                                l1837 09BD                                  l1829 09AD  
                                l1597 0A73                                  l1861 0BE4  
                                l1853 0BD3                                  l1845 0BC4  
                                l1925 0B4C                                  l1917 0B30  
                                l1909 0B1C                                  l1941 0AB2  
                                l1933 0A9E                                  l1781 0449  
                                l1773 0436                                  l1765 042B  
                                l1757 041C                                  l1749 0406  
                                l1693 02DA                                  l1685 02D3  
                                l1677 02CB                                  l1669 02C3  
                                l1839 09C0                                  l1599 0A81  
                                l1871 0C07                                  l1863 0BE7  
                                l1855 0BD8                                  l1847 0BC8  
                                l1927 0B53                                  l1919 0B34  
                                l1943 0AB6                                  l1935 0AA4  
                                l1951 0AD3                                  l1791 0487  
                                l1783 0457                                  l1775 043C  
                                l1759 0421                                  l1767 042D  
                                l1695 02F1                                  l1687 02D5  
                                l1679 02CD                                  l1881 0C20  
                                l1873 0C0D                                  l1865 0BEE  
                                l1857 0BDC                                  l1849 0BCD  
                                l1929 0B59                                  l1945 0AC0  
                                l1937 0AA7                                  l1961 04AA  
                                l1793 048F                                  l1785 045B  
                                l1769 0431                                  l1697 030D  
                                l1689 02D7                                  l1883 0C25  
                                l1875 0C0E                                  l1867 0BF2  
                                l1859 0BDE                                  l1947 0AC6  
                                l1939 0AAE                                  l1891 0CD2  
                                l1971 04BD                                  l1963 04AF  
                                l1795 0494                                  l1787 0479  
                                l1779 0444                                  l1699 0314  
                                l1955 09EF                                  l1877 0C15  
                                l1869 0BF6                                  l1949 0ACD  
                                l1893 0CDA                                  l1981 04D9  
                                l1973 04C2                                  l1965 04B3  
                                l1797 0495                                  l1789 0482  
                                l1957 09F3                                  l1879 0C1B  
                                l1895 0CDE                                  l1887 0CA2  
                                l1991 04EC                                  l1983 04DD  
                                l1975 04CA                                  l1967 04B7  
                                l1799 0499                                  l1897 0D02  
                                l1889 0CB6                                  l1993 04F4  
                                l1985 04E1                                  l1977 04CC  
                                l1969 04B8                                  l1899 0D06  
                                l1995 04F6                                  l1987 04E2  
                                l1979 04D4                                  l1997 04FE  
                                l1989 04E7                                  l1999 0503  
                                STR_1 0826                                  u2000 0361  
                                u2001 0360                                  u2010 036E  
                                u2011 036D                                  u2100 041C  
                                u2101 041B                                  u2110 0421  
                                u2030 0393                                  u2111 0420  
                                u2031 0392                                  u3000 0A61  
                                u2200 0479                                  u2120 042B  
                                u3001 0A60                                  u2201 0478  
                                u2121 042A                                  u2041 03AA  
                                u2033 038F                                  u2025 0371  
                                u2210 0482                                  u2130 0431  
                                u2050 03BE                                  u2042 03AB  
                                u3010 019D                                  u2211 0481  
                                u2131 0430                                  u2051 03BF  
                                u2043 03B0                                  u3011 019C  
                                u2300 0B07                                  u3100 0C35  
                                u2220 0487                                  u2140 0436  
                                u2060 03DC                                  u2052 03C4  
                                u2044 03B1                                  u3020 01FA  
                                u3101 0C34                                  u2221 0486  
                                u2141 0435                                  u2061 03DB  
                                u2053 03C5                                  u2045 03B6  
                                u3021 01F9                                  u2310 0B19  
                                u3030 0EF6                                  u3110 0C4C  
                                u2230 0494                                  u2150 043C  
                                u2070 0401                                  u2046 03B7  
                                u2311 0B18                                  u3031 0EF4  
                                u2231 0493                                  u2151 043B  
                                u2071 0400                                  u2400 0C1B  
                                u2320 0BC8                                  u3040 0EF7  
                                u3120 0C60                                  u3200 0D4A  
                                u2240 0499                                  u2160 0443  
                                u2080 0406                                  u2401 0C1A  
                                u2321 0BC7                                  u3121 0C5F  
                                u3201 0D49                                  u2241 0498  
                                u2161 0442                                  u2081 0405  
                                u2410 0C20                                  u2330 0BD3  
                                u3050 0EFD                                  u3130 0C67  
                                u3210 0D4E                                  u2250 04A8  
                                u2170 0449                                  u2411 0C1F  
                                u2331 0BD2                                  u3051 0EFC  
                                u3131 0C66                                  u3115 0C47  
                                u3211 0D4D                                  u2251 04A7  
                                u2171 0448                                  u2340 0BE4  
                                u3060 0F4F                                  u3300 0DC9  
                                u3220 0D6E                                  u2420 0CB6  
                                u2260 0A21                                  u2180 045B  
                                u2341 0BE3                                  u3061 0F4E  
                                u3301 0DC8                                  u3221 0D6D  
                                u2421 0CB5                                  u2261 0A20  
                                u2181 045A                                  u2510 0B34  
                                u3070 0F54                                  u3150 0C79  
                                u3310 0DDE                                  u2430 0CD2  
                                u2190 046A                                  u2511 0B33  
                                u3071 0F53                                  u3151 0C78  
                                u2431 0CD1                                  u2095 0411  
                                u2360 0BF6                                  u3080 0FEB  
                                u3160 0C80                                  u3320 0DEE  
                                u3240 0D8D                                  u2440 0CDE  
                                u2280 0A35                                  u1800 025F  
                                u2361 0BF5                                  u2505 0B26  
                                u3081 0FEA                                  u3161 0C7F  
                                u3145 0C69                                  u3321 0DED  
                                u3241 0D8C                                  u2441 0CDD  
                                u2281 0A34                                  u1801 025E  
                                u2290 0AE5                                  u2530 0B45  
                                u2610 0AD3                                  u3090 0FF3  
                                u3330 0DF2                                  u1810 0265  
                                u2355 0BE8                                  u2531 0B44  
                                u2611 0AD2                                  u3091 0FF2  
                                u3331 0DF1                                  u3315 0DD9  
                                u3235 0D7F                                  u2451 0CED  
                                u2275 0A28                                  u2195 0465  
                                u1811 0264                                  u2380 0C07  
                                u3180 0C91                                  u3260 0DAF  
                                u2460 0D06                                  u2452 0CEE  
                                u2620 04B7                                  u1900 02FC  
                                u1820 026A                                  u3340 0E32  
                                u2381 0C06                                  u2525 0B35  
                                u2605 0AC7                                  u3085 0FE7  
                                u3181 0C90                                  u3261 0DAE  
                                u2461 0D05                                  u2453 0CF3  
                                u2701 0555                                  u2621 04B6  
                                u1901 02FA                                  u1821 0269  
                                u3341 0E31                                  u1750 09D2  
                                u2550 0B59                                  u3190 0C96  
                                u2454 0CF4                                  u2702 055C  
                                u2630 04BD                                  u1910 02FD  
                                u1830 0286                                  u3350 0ED6  
                                u1751 09D1                                  u2375 0BF7  
                                u2551 0B58                                  u2535 0B41  
                                u3191 0C95                                  u3175 0C83  
                                u3255 0DA1                                  u2471 0D15  
                                u2455 0CF9                                  u2711 0571  
                                u2703 0563                                  u2631 04BC  
                                u1831 0285                                  u3351 0ED5  
                                u1760 09DD                                  u2560 0AA4  
                                u3280 0DBF                                  u2480 0D40  
                                u2472 0D16                                  u2456 0CFA  
                                u2712 0578                                  u2640 04C2  
                                u1920 030D                                  u1840 028F  
                                u1761 09DC                                  u2385 0C03  
                                u2545 0B4D                                  u2561 0AA3  
                                u3281 0DBE                                  u2481 0D3F  
                                u2473 0D1B                                  u2801 06A0  
                                u2721 059B                                  u2713 057F  
                                u2641 04C1                                  u1921 030C  
                                u1841 028E                                  u3345 0E2E  
                                u1770 09E4                                  u2490 0B22  
                                u3290 0DC5                                  u2474 0D1C  
                                u2810 06C8                                  u2802 06A7  
                                u2722 05A2                                  u2650 04E1  
                                u1930 031A                                  u1850 0295  
                                u1771 09E3                                  u3507 0B6F  
                                u2395 0C0F                                  u2491 0B21  
                                u3291 0DC4                                  u3275 0DB4  
                                u2475 0D21                                  u2803 06AE  
                                u2731 05B7                                  u2723 05A9  
                                u2651 04E0                                  u1931 0319  
                                u1851 0294                                  u1780 09EB  
                                u2580 0AB6                                  u2476 0D22  
                                u2900 0747                                  u2732 05BE  
                                u2660 04E7                                  u1860 029A  
                                u1781 09EA                                  u3517 0B7E  
                                u2581 0AB5                                  u2485 0D3C  
                                u2901 0746                                  u2821 06D4  
                                u2733 05C5                                  u2661 04E6  
                                u1861 0299                                  u2590 0AC0  
                                u2910 075B                                  u2830 06F0  
                                u2822 06DB                                  u2670 04EC  
                                u1950 0330                                  u1870 02B3  
                                u3527 0B8D                                  u2591 0ABF  
                                u2575 0AA8                                  u2911 075A  
                                u2823 06E2                                  u2815 06C3  
                                u2751 05EB                                  u2671 04EB  
                                u1951 032F                                  u1871 02B2  
                                u2920 0762                                  u2752 05F2  
                                u2680 0503                                  u1960 0334  
                                u1880 02B7                                  u3537 09C4  
                                u2921 0761                                  u2841 06FC  
                                u2761 0616                                  u2753 05F9  
                                u2745 05C7                                  u2681 0502  
                                u1961 0333                                  u1945 031D  
                                u1881 02B6                                  u2930 0768  
                                u2842 0703                                  u2762 061D  
                                u2690 0508                                  u1970 0339  
                                u1890 02F1                                  u3547 0A55  
                                u1795 0A76                                  u2595 0ABC  
                                u2931 0767                                  u2843 070A  
                                u2835 06EB                                  u2763 0624  
                                u2691 0507                                  u1971 0338  
                                u1891 02F0                                  u2940 077A  
                                u2941 0779                                  u2781 064A  
                                u1981 034B                                  u2950 0789  
                                u2870 072E                                  u2782 0651  
                                u1990 035D                                  u1982 0352  
                                u3487 0A86                                  u2871 072D  
                                u2855 070C                                  u2791 0675  
                                u2783 0658                                  u2775 0626  
                                u1991 035C                                  u1983 0359  
                                u1895 02ED                                  u2960 07A6  
                                u2792 067C                                  u3497 0A97  
                                u2961 07A5                                  u2865 0723  
                                u2793 0683                                  u2970 07C0  
                                u2890 0742                                  u2971 07BF  
                                u2955 0784                                  u2891 0741  
                                u2980 07DC                                  u2981 07DB  
                                u2965 07A2                                  u2885 0731  
                                u2975 07BC                                  u2995 0A47  
                                _TMR1 000E                           main@old_val 0066  
                   ?_Lcd_Write_String 0075                                  _main 0DFC  
                                btemp 007E                                  start 0000  
                  ??_Lcd_Write_String 0077                       __end_of_Lcd_Cmd 09CD  
                       ___fltol@sign1 0042                       __end_of___fladd 04AA  
                               ?_main 0070                       __end_of___awdiv 0C2A  
                     __end_of___flmul 07EF                       __end_of___flsub 0A13  
                     __end_of___fltol 0CA2                       ___awdiv@divisor 0070  
                               _T1CON 0010                       __end_of___lwdiv 0B5E  
                     __end_of___lwmod 0AD8                       ___awdiv@counter 0075  
                               _PORTB 0006                                 _PORTC 0007  
                               _PORTD 0008                                 _TRISA 0085  
                               _TRISB 0086                                 _TRISC 0087  
                               _TRISD 0088                                 _TRISE 0089  
               pid_controller@control 005E                      __end_of_Adc_Init 09AC  
                    __end_of_Adc_Read 0A69                                 pclath 000A  
                               status 0003                                 wtemp0 007E  
      pid_controller@process_variable 00A4                      __end_of_Lcd_Init 0BC3  
                    __end_of_Lcd_Port 09EF                       __initialization 07EF  
                        __end_of_main 0EE3          pid_controller@previous_error 00DF  
                              ??_main 007E                      ??_pid_controller 007E  
                              _ADCON0 001F                                _ADCON1 009F  
                              _ADRESH 001E                                _ADRESL 009E  
                              _CCPR1L 0015                      ___awdiv@dividend 0072  
                           ??_Lcd_Cmd 0071                      __end_of___xxtofl 0DFC  
           pid_controller@control_max 00B8             pid_controller@control_min 00B4  
                              ___flge 0CA2                             ??___fladd 0042  
                           ??___awdiv 0074                             ??___flmul 0028  
                           ??___flsub 007E                             ??___fltol 003E  
                           ??___lwdiv 0074                pid_controller@integral 00DB  
                           ??___lwmod 0074                       Adc_Read@channel 0074  
                              _keypad 0810                      ___awdiv@quotient 0077  
               __end_of_Lcd_Write_Int 1000                pid_controller@setpoint 00A0  
                    Lcd_Write_Int@val 0044                            ___flge@ff1 0070  
                          ___flge@ff2 0074                          ___xxtofl@arg 007A  
                        ___xxtofl@exp 0079                          ___xxtofl@val 0070  
             __end_of__initialization 07FC                     __end_of_Lcd_Clear 0016  
                          ___fltol@f1 003A                        __pcstackCOMMON 0070  
                 pid_controller@error 0062                             ?_Adc_Init 0070  
                           ?_Adc_Read 0070                             ?_Lcd_Init 0070  
                           ?_Lcd_Port 0070                        Lcd_Write_Int@i 00D9  
                      Lcd_Write_Int@n 00D5                        Lcd_Write_Int@t 00D7  
                          __pbssBANK0 006A                            __pbssBANK1 00DB  
                   __end_of__Umul8_16 0A3A                            __pmaintext 0DFC  
                             ?___flge 0070                               _CCP1CON 0017  
                          ??_Adc_Init 0070                            ??_Adc_Read 0072  
                           ?___xxtofl 0070                            ??_Lcd_Init 0074  
                          ??_Lcd_Port 0070                            __stringtab 0800  
                      _Lcd_Write_Char 0A69                               _Lcd_Cmd 09AC  
                             ___fladd 0252                               ___awdiv 0BC3  
                             ___flmul 04AA                               ___flsub 09EF  
                             ___fltol 0C2A                      pid_controller@kd 00B0  
                    pid_controller@ki 00AC                      pid_controller@kp 00A8  
                             ___lwdiv 0B1A                               ___lwmod 0A9E  
                             __ptext1 0016                               __ptext2 09EF  
                             __ptext3 0252                               __ptext4 04AA  
                             __ptext5 0A13                               __ptext6 0CA2  
                             __ptext7 0D44                               __ptext8 0C2A  
                             __ptext9 0EE3                            ??___xxtofl 0074  
                Numpad_Read@oldKeyVal 006A                               main@val 0068  
              __end_of_Lcd_Write_Char 0A9E                  end_of_initialization 07FC  
                           Lcd_Port@a 0070                             _PORTDbits 0008  
                           _PORTEbits 0009                    _pid_controller$821 005A  
                         ___fladd@grs 004D                         ___xxtofl@sign 0078  
                     ?_Lcd_Write_Char 0070                     Lcd_Write_String@a 0075  
                   Lcd_Write_String@i 007A                           ___flmul@grs 002E  
                           _Lcd_Clear 0009                        __end_of___flge 0D44  
                    _Lcd_Write_String 0AD8                        __end_of_keypad 081C  
                 start_initialization 07EF                            ?_Lcd_Clear 0070  
                            ??___flge 0078                             __Umul8_16 0A13  
                     Lcd_Write_Char@a 0074                       Lcd_Write_Char@y 0073  
                     Lcd_Write_Int@n1 00D3                             ___fladd@a 003E  
                           ___fladd@b 003A                             ___flmul@a 0024  
                           ___flmul@b 0020                             ___flsub@a 004E  
                           ___flsub@b 0052                             ___latbits 0002  
                       __pcstackBANK0 0020                         __pcstackBANK1 00A0  
                            ?_Lcd_Cmd 0070                      ___lwdiv@dividend 0072  
                            ?___fladd 003A                              ?___awdiv 0070  
                            ?___flmul 0020                              ?___flsub 004E  
                            ?___fltol 003A                            ?__Umul8_16 0070  
                            ?___lwdiv 0070                              ?___lwmod 0070  
                           __pstrings 0800                         _Lcd_Write_Int 0EE3  
                    ___lwdiv@quotient 0075                              Lcd_Cmd@a 0073  
                         ??_Lcd_Clear 0074                              _Adc_Init 09A3  
                            _Adc_Read 0A3A                           __stringbase 080F  
                      ?_Lcd_Write_Int 0044                      ??_Lcd_Write_Char 0071  
            pid_controller@derivative 0056                              _Lcd_Init 0B5E  
                            _Lcd_Port 09CD                        _pid_controller 0016  
            __end_of_Lcd_Write_String 0B1A                           ??__Umul8_16 0072  
                  __end_of__stringtab 0810                              ___xxtofl 0D44  
                     ___lwdiv@divisor 0070                       ___lwdiv@counter 0077  
                            __ptext10 0A9E                              __ptext11 0B1A  
                            __ptext20 09A3                              __ptext12 0BC3  
                            __ptext13 0AD8                              __ptext14 0A69  
                            __ptext15 0B5E                              __ptext16 0009  
                            __ptext17 09AC                              __ptext18 09CD  
                            __ptext19 0A3A                __end_of_pid_controller 0252  
                     ??_Lcd_Write_Int 0046                   Lcd_Write_Int@buffer 00A0  
                     ?_pid_controller 00A0                    Lcd_Write_Char@temp 0072  
                    ___lwmod@dividend 0072                             stringcode 080A  
                  Lcd_Write_Int@isNeg 00D2                __Umul8_16@multiplicand 0070  
                     ___lwmod@divisor 0070                       ___lwmod@counter 0075  
                            stringdir 080A                              stringtab 0800  
                       ___fladd@signs 004A                          ___fladd@aexp 004B  
                        ___fladd@bexp 004C                  __Umul8_16@multiplier 0078  
                   __Umul8_16@product 0074  
